
obj/kern/kernel:     file format elf32-i386


Disassembly of section .text:

f0100000 <_start+0xeffffff4>:
.globl		_start
_start = RELOC(entry)

.globl entry
entry:
	movw	$0x1234,0x472			# warm boot
f0100000:	02 b0 ad 1b 00 00    	add    0x1bad(%eax),%dh
f0100006:	00 00                	add    %al,(%eax)
f0100008:	fe 4f 52             	decb   0x52(%edi)
f010000b:	e4 66                	in     $0x66,%al

f010000c <entry>:
f010000c:	66 c7 05 72 04 00 00 	movw   $0x1234,0x472
f0100013:	34 12 
	# sufficient until we set up our real page table in mem_init
	# in lab 2.

	# Load the physical address of entry_pgdir into cr3.  entry_pgdir
	# is defined in entrypgdir.c.
	movl	$(RELOC(entry_pgdir)), %eax
f0100015:	b8 00 f0 11 00       	mov    $0x11f000,%eax
	movl	%eax, %cr3
f010001a:	0f 22 d8             	mov    %eax,%cr3
	# Turn on paging.
	movl	%cr0, %eax
f010001d:	0f 20 c0             	mov    %cr0,%eax
	orl	$(CR0_PE|CR0_PG|CR0_WP), %eax
f0100020:	0d 01 00 01 80       	or     $0x80010001,%eax
	movl	%eax, %cr0
f0100025:	0f 22 c0             	mov    %eax,%cr0

	# Now paging is enabled, but we're still running at a low EIP
	# (why is this okay?).  Jump up above KERNBASE before entering
	# C code.
	mov	$relocated, %eax
f0100028:	b8 2f 00 10 f0       	mov    $0xf010002f,%eax
	jmp	*%eax
f010002d:	ff e0                	jmp    *%eax

f010002f <relocated>:
relocated:

	# Clear the frame pointer register (EBP)
	# so that once we get into debugging C code,
	# stack backtraces will be terminated properly.
	movl	$0x0,%ebp			# nuke frame pointer
f010002f:	bd 00 00 00 00       	mov    $0x0,%ebp

	# Set the stack pointer
	movl	$(bootstacktop),%esp
f0100034:	bc 00 f0 11 f0       	mov    $0xf011f000,%esp

	# now to C code
	call	i386_init
f0100039:	e8 6a 00 00 00       	call   f01000a8 <i386_init>

f010003e <spin>:

	# Should never get here, but in case we do, just spin.
spin:	jmp	spin
f010003e:	eb fe                	jmp    f010003e <spin>

f0100040 <_panic>:
 * Panic is called on unresolvable fatal errors.
 * It prints "panic: mesg", and then enters the kernel monitor.
 */
void
_panic(const char *file, int line, const char *fmt,...)
{
f0100040:	55                   	push   %ebp
f0100041:	89 e5                	mov    %esp,%ebp
f0100043:	56                   	push   %esi
f0100044:	53                   	push   %ebx
f0100045:	83 ec 10             	sub    $0x10,%esp
f0100048:	8b 75 10             	mov    0x10(%ebp),%esi
	va_list ap;

	if (panicstr)
f010004b:	83 3d 80 3e 20 f0 00 	cmpl   $0x0,0xf0203e80
f0100052:	75 46                	jne    f010009a <_panic+0x5a>
		goto dead;
	panicstr = fmt;
f0100054:	89 35 80 3e 20 f0    	mov    %esi,0xf0203e80

	// Be extra sure that the machine is in as reasonable state
	__asm __volatile("cli; cld");
f010005a:	fa                   	cli    
f010005b:	fc                   	cld    

	va_start(ap, fmt);
f010005c:	8d 5d 14             	lea    0x14(%ebp),%ebx
	cprintf("kernel panic on CPU %d at %s:%d: ", cpunum(), file, line);
f010005f:	e8 3f 65 00 00       	call   f01065a3 <cpunum>
f0100064:	8b 55 0c             	mov    0xc(%ebp),%edx
f0100067:	89 54 24 0c          	mov    %edx,0xc(%esp)
f010006b:	8b 55 08             	mov    0x8(%ebp),%edx
f010006e:	89 54 24 08          	mov    %edx,0x8(%esp)
f0100072:	89 44 24 04          	mov    %eax,0x4(%esp)
f0100076:	c7 04 24 c0 6c 10 f0 	movl   $0xf0106cc0,(%esp)
f010007d:	e8 e3 40 00 00       	call   f0104165 <cprintf>
	vcprintf(fmt, ap);
f0100082:	89 5c 24 04          	mov    %ebx,0x4(%esp)
f0100086:	89 34 24             	mov    %esi,(%esp)
f0100089:	e8 a4 40 00 00       	call   f0104132 <vcprintf>
	cprintf("\n");
f010008e:	c7 04 24 d9 7e 10 f0 	movl   $0xf0107ed9,(%esp)
f0100095:	e8 cb 40 00 00       	call   f0104165 <cprintf>
	va_end(ap);

dead:
	/* break into the kernel monitor */
	while (1)
		monitor(NULL);
f010009a:	c7 04 24 00 00 00 00 	movl   $0x0,(%esp)
f01000a1:	e8 32 09 00 00       	call   f01009d8 <monitor>
f01000a6:	eb f2                	jmp    f010009a <_panic+0x5a>

f01000a8 <i386_init>:
static void boot_aps(void);


void
i386_init(void)
{
f01000a8:	55                   	push   %ebp
f01000a9:	89 e5                	mov    %esp,%ebp
f01000ab:	53                   	push   %ebx
f01000ac:	83 ec 14             	sub    $0x14,%esp
	extern char edata[], end[];

	// Before doing anything else, complete the ELF loading process.
	// Clear the uninitialized global data (BSS) section of our program.
	// This ensures that all static/global variables start out zero.
	memset(edata, 0, end - edata);
f01000af:	b8 08 50 24 f0       	mov    $0xf0245008,%eax
f01000b4:	2d 91 2e 20 f0       	sub    $0xf0202e91,%eax
f01000b9:	89 44 24 08          	mov    %eax,0x8(%esp)
f01000bd:	c7 44 24 04 00 00 00 	movl   $0x0,0x4(%esp)
f01000c4:	00 
f01000c5:	c7 04 24 91 2e 20 f0 	movl   $0xf0202e91,(%esp)
f01000cc:	e8 38 5e 00 00       	call   f0105f09 <memset>

	// Initialize the console.
	// Can't call cprintf until after we do this!
	cons_init();
f01000d1:	e8 f4 05 00 00       	call   f01006ca <cons_init>

	cprintf("6828 decimal is %o octal!\n", 6828);
f01000d6:	c7 44 24 04 ac 1a 00 	movl   $0x1aac,0x4(%esp)
f01000dd:	00 
f01000de:	c7 04 24 2c 6d 10 f0 	movl   $0xf0106d2c,(%esp)
f01000e5:	e8 7b 40 00 00       	call   f0104165 <cprintf>

	// Lab 2 memory management initialization functions
	mem_init();
f01000ea:	e8 a9 15 00 00       	call   f0101698 <mem_init>

	// Lab 3 user environment initialization functions
	env_init();
f01000ef:	e8 a7 38 00 00       	call   f010399b <env_init>
	trap_init();
f01000f4:	e8 56 41 00 00       	call   f010424f <trap_init>

	// Lab 4 multiprocessor initialization functions
	mp_init();
f01000f9:	e8 8b 61 00 00       	call   f0106289 <mp_init>
	lapic_init();
f01000fe:	66 90                	xchg   %ax,%ax
f0100100:	e8 b9 64 00 00       	call   f01065be <lapic_init>

	// Lab 4 multitasking initialization functions
	pic_init();
f0100105:	e8 8b 3f 00 00       	call   f0104095 <pic_init>
extern struct spinlock kernel_lock;

static inline void
lock_kernel(void)
{
	spin_lock(&kernel_lock);
f010010a:	c7 04 24 80 14 12 f0 	movl   $0xf0121480,(%esp)
f0100111:	e8 0b 67 00 00       	call   f0106821 <spin_lock>
#define KADDR(pa) _kaddr(__FILE__, __LINE__, pa)

static inline void*
_kaddr(const char *file, int line, physaddr_t pa)
{
	if (PGNUM(pa) >= npages)
f0100116:	83 3d 88 3e 20 f0 07 	cmpl   $0x7,0xf0203e88
f010011d:	77 24                	ja     f0100143 <i386_init+0x9b>
		_panic(file, line, "KADDR called with invalid pa %08lx", pa);
f010011f:	c7 44 24 0c 00 70 00 	movl   $0x7000,0xc(%esp)
f0100126:	00 
f0100127:	c7 44 24 08 e4 6c 10 	movl   $0xf0106ce4,0x8(%esp)
f010012e:	f0 
f010012f:	c7 44 24 04 59 00 00 	movl   $0x59,0x4(%esp)
f0100136:	00 
f0100137:	c7 04 24 47 6d 10 f0 	movl   $0xf0106d47,(%esp)
f010013e:	e8 fd fe ff ff       	call   f0100040 <_panic>
	void *code;
	struct CpuInfo *c;

	// Write entry code to unused memory at MPENTRY_PADDR
	code = KADDR(MPENTRY_PADDR);
	memmove(code, mpentry_start, mpentry_end - mpentry_start);
f0100143:	b8 b6 61 10 f0       	mov    $0xf01061b6,%eax
f0100148:	2d 3c 61 10 f0       	sub    $0xf010613c,%eax
f010014d:	89 44 24 08          	mov    %eax,0x8(%esp)
f0100151:	c7 44 24 04 3c 61 10 	movl   $0xf010613c,0x4(%esp)
f0100158:	f0 
f0100159:	c7 04 24 00 70 00 f0 	movl   $0xf0007000,(%esp)
f0100160:	e8 f1 5d 00 00       	call   f0105f56 <memmove>

	// Boot each AP one at a time
	for (c = cpus; c < cpus + ncpu; c++) {
f0100165:	6b 05 c4 43 20 f0 74 	imul   $0x74,0xf02043c4,%eax
f010016c:	05 20 40 20 f0       	add    $0xf0204020,%eax
f0100171:	3d 20 40 20 f0       	cmp    $0xf0204020,%eax
f0100176:	76 62                	jbe    f01001da <i386_init+0x132>
f0100178:	bb 20 40 20 f0       	mov    $0xf0204020,%ebx
		if (c == cpus + cpunum())  // We've started already.
f010017d:	e8 21 64 00 00       	call   f01065a3 <cpunum>
f0100182:	6b c0 74             	imul   $0x74,%eax,%eax
f0100185:	05 20 40 20 f0       	add    $0xf0204020,%eax
f010018a:	39 c3                	cmp    %eax,%ebx
f010018c:	74 39                	je     f01001c7 <i386_init+0x11f>
f010018e:	89 d8                	mov    %ebx,%eax
f0100190:	2d 20 40 20 f0       	sub    $0xf0204020,%eax
			continue;

		// Tell mpentry.S what stack to use 
		mpentry_kstack = percpu_kstacks[c - cpus] + KSTKSIZE;
f0100195:	c1 f8 02             	sar    $0x2,%eax
f0100198:	69 c0 35 c2 72 4f    	imul   $0x4f72c235,%eax,%eax
f010019e:	c1 e0 0f             	shl    $0xf,%eax
f01001a1:	8d 80 00 d0 20 f0    	lea    -0xfdf3000(%eax),%eax
f01001a7:	a3 84 3e 20 f0       	mov    %eax,0xf0203e84
		// Start the CPU at mpentry_start
		lapic_startap(c->cpu_id, PADDR(code));
f01001ac:	c7 44 24 04 00 70 00 	movl   $0x7000,0x4(%esp)
f01001b3:	00 
f01001b4:	0f b6 03             	movzbl (%ebx),%eax
f01001b7:	89 04 24             	mov    %eax,(%esp)
f01001ba:	e8 4f 65 00 00       	call   f010670e <lapic_startap>
		// Wait for the CPU to finish some basic setup in mp_main()
		while(c->cpu_status != CPU_STARTED)
f01001bf:	8b 43 04             	mov    0x4(%ebx),%eax
f01001c2:	83 f8 01             	cmp    $0x1,%eax
f01001c5:	75 f8                	jne    f01001bf <i386_init+0x117>
	// Write entry code to unused memory at MPENTRY_PADDR
	code = KADDR(MPENTRY_PADDR);
	memmove(code, mpentry_start, mpentry_end - mpentry_start);

	// Boot each AP one at a time
	for (c = cpus; c < cpus + ncpu; c++) {
f01001c7:	83 c3 74             	add    $0x74,%ebx
f01001ca:	6b 05 c4 43 20 f0 74 	imul   $0x74,0xf02043c4,%eax
f01001d1:	05 20 40 20 f0       	add    $0xf0204020,%eax
f01001d6:	39 c3                	cmp    %eax,%ebx
f01001d8:	72 a3                	jb     f010017d <i386_init+0xd5>

	// Starting non-boot CPUs
	boot_aps();

	// Start fs.
	ENV_CREATE(fs_fs, ENV_TYPE_FS);
f01001da:	c7 44 24 08 01 00 00 	movl   $0x1,0x8(%esp)
f01001e1:	00 
f01001e2:	c7 44 24 04 92 52 01 	movl   $0x15292,0x4(%esp)
f01001e9:	00 
f01001ea:	c7 04 24 ec 41 1c f0 	movl   $0xf01c41ec,(%esp)
f01001f1:	e8 96 39 00 00       	call   f0103b8c <env_create>

#if defined(TEST)
	// Don't touch -- used by grading script!
	ENV_CREATE(TEST, ENV_TYPE_USER);
f01001f6:	c7 44 24 08 00 00 00 	movl   $0x0,0x8(%esp)
f01001fd:	00 
f01001fe:	c7 44 24 04 c7 5f 00 	movl   $0x5fc7,0x4(%esp)
f0100205:	00 
f0100206:	c7 04 24 7e 94 1d f0 	movl   $0xf01d947e,(%esp)
f010020d:	e8 7a 39 00 00       	call   f0103b8c <env_create>
	// ENV_CREATE(user_primes, ENV_TYPE_USER);
	ENV_CREATE(user_forktree, ENV_TYPE_USER);
#endif // TEST*

	// Schedule and run the first user environment!
	sched_yield();
f0100212:	e8 d0 48 00 00       	call   f0104ae7 <sched_yield>

f0100217 <mp_main>:
}

// Setup code for APs
void
mp_main(void)
{
f0100217:	55                   	push   %ebp
f0100218:	89 e5                	mov    %esp,%ebp
f010021a:	83 ec 18             	sub    $0x18,%esp
	// We are in high EIP now, safe to switch to kern_pgdir 
	lcr3(PADDR(kern_pgdir));
f010021d:	a1 8c 3e 20 f0       	mov    0xf0203e8c,%eax
#define PADDR(kva) _paddr(__FILE__, __LINE__, kva)

static inline physaddr_t
_paddr(const char *file, int line, void *kva)
{
	if ((uint32_t)kva < KERNBASE)
f0100222:	3d ff ff ff ef       	cmp    $0xefffffff,%eax
f0100227:	77 20                	ja     f0100249 <mp_main+0x32>
		_panic(file, line, "PADDR called with invalid kva %08lx", kva);
f0100229:	89 44 24 0c          	mov    %eax,0xc(%esp)
f010022d:	c7 44 24 08 08 6d 10 	movl   $0xf0106d08,0x8(%esp)
f0100234:	f0 
f0100235:	c7 44 24 04 70 00 00 	movl   $0x70,0x4(%esp)
f010023c:	00 
f010023d:	c7 04 24 47 6d 10 f0 	movl   $0xf0106d47,(%esp)
f0100244:	e8 f7 fd ff ff       	call   f0100040 <_panic>
	return (physaddr_t)kva - KERNBASE;
f0100249:	05 00 00 00 10       	add    $0x10000000,%eax
}

static __inline void
lcr3(uint32_t val)
{
	__asm __volatile("movl %0,%%cr3" : : "r" (val));
f010024e:	0f 22 d8             	mov    %eax,%cr3
	cprintf("SMP: CPU %d starting\n", cpunum());
f0100251:	e8 4d 63 00 00       	call   f01065a3 <cpunum>
f0100256:	89 44 24 04          	mov    %eax,0x4(%esp)
f010025a:	c7 04 24 53 6d 10 f0 	movl   $0xf0106d53,(%esp)
f0100261:	e8 ff 3e 00 00       	call   f0104165 <cprintf>

	lapic_init();
f0100266:	e8 53 63 00 00       	call   f01065be <lapic_init>
	env_init_percpu();
f010026b:	e8 01 37 00 00       	call   f0103971 <env_init_percpu>
	trap_init_percpu();
f0100270:	e8 0b 3f 00 00       	call   f0104180 <trap_init_percpu>
	xchg(&thiscpu->cpu_status, CPU_STARTED); // tell boot_aps() we're up
f0100275:	e8 29 63 00 00       	call   f01065a3 <cpunum>
f010027a:	6b d0 74             	imul   $0x74,%eax,%edx
f010027d:	81 c2 20 40 20 f0    	add    $0xf0204020,%edx
xchg(volatile uint32_t *addr, uint32_t newval)
{
	uint32_t result;

	// The + in "+m" denotes a read-modify-write operand.
	asm volatile("lock; xchgl %0, %1" :
f0100283:	b8 01 00 00 00       	mov    $0x1,%eax
f0100288:	f0 87 42 04          	lock xchg %eax,0x4(%edx)
f010028c:	c7 04 24 80 14 12 f0 	movl   $0xf0121480,(%esp)
f0100293:	e8 89 65 00 00       	call   f0106821 <spin_lock>
	// to start running processes on this CPU.  But make sure that
	// only one CPU can enter the scheduler at a time!
	//
	// Your code here:
	lock_kernel();
	sched_yield();
f0100298:	e8 4a 48 00 00       	call   f0104ae7 <sched_yield>

f010029d <_warn>:
}

/* like panic, but don't */
void
_warn(const char *file, int line, const char *fmt,...)
{
f010029d:	55                   	push   %ebp
f010029e:	89 e5                	mov    %esp,%ebp
f01002a0:	53                   	push   %ebx
f01002a1:	83 ec 14             	sub    $0x14,%esp
	va_list ap;

	va_start(ap, fmt);
f01002a4:	8d 5d 14             	lea    0x14(%ebp),%ebx
	cprintf("kernel warning at %s:%d: ", file, line);
f01002a7:	8b 45 0c             	mov    0xc(%ebp),%eax
f01002aa:	89 44 24 08          	mov    %eax,0x8(%esp)
f01002ae:	8b 45 08             	mov    0x8(%ebp),%eax
f01002b1:	89 44 24 04          	mov    %eax,0x4(%esp)
f01002b5:	c7 04 24 69 6d 10 f0 	movl   $0xf0106d69,(%esp)
f01002bc:	e8 a4 3e 00 00       	call   f0104165 <cprintf>
	vcprintf(fmt, ap);
f01002c1:	89 5c 24 04          	mov    %ebx,0x4(%esp)
f01002c5:	8b 45 10             	mov    0x10(%ebp),%eax
f01002c8:	89 04 24             	mov    %eax,(%esp)
f01002cb:	e8 62 3e 00 00       	call   f0104132 <vcprintf>
	cprintf("\n");
f01002d0:	c7 04 24 d9 7e 10 f0 	movl   $0xf0107ed9,(%esp)
f01002d7:	e8 89 3e 00 00       	call   f0104165 <cprintf>
	va_end(ap);
}
f01002dc:	83 c4 14             	add    $0x14,%esp
f01002df:	5b                   	pop    %ebx
f01002e0:	5d                   	pop    %ebp
f01002e1:	c3                   	ret    
f01002e2:	66 90                	xchg   %ax,%ax
f01002e4:	66 90                	xchg   %ax,%ax
f01002e6:	66 90                	xchg   %ax,%ax
f01002e8:	66 90                	xchg   %ax,%ax
f01002ea:	66 90                	xchg   %ax,%ax
f01002ec:	66 90                	xchg   %ax,%ax
f01002ee:	66 90                	xchg   %ax,%ax

f01002f0 <serial_proc_data>:

static bool serial_exists;

static int
serial_proc_data(void)
{
f01002f0:	55                   	push   %ebp
f01002f1:	89 e5                	mov    %esp,%ebp

static __inline uint8_t
inb(int port)
{
	uint8_t data;
	__asm __volatile("inb %w1,%0" : "=a" (data) : "d" (port));
f01002f3:	ba fd 03 00 00       	mov    $0x3fd,%edx
f01002f8:	ec                   	in     (%dx),%al
	if (!(inb(COM1+COM_LSR) & COM_LSR_DATA))
f01002f9:	a8 01                	test   $0x1,%al
f01002fb:	74 08                	je     f0100305 <serial_proc_data+0x15>
f01002fd:	b2 f8                	mov    $0xf8,%dl
f01002ff:	ec                   	in     (%dx),%al
		return -1;
	return inb(COM1+COM_RX);
f0100300:	0f b6 c0             	movzbl %al,%eax
f0100303:	eb 05                	jmp    f010030a <serial_proc_data+0x1a>

static int
serial_proc_data(void)
{
	if (!(inb(COM1+COM_LSR) & COM_LSR_DATA))
		return -1;
f0100305:	b8 ff ff ff ff       	mov    $0xffffffff,%eax
	return inb(COM1+COM_RX);
}
f010030a:	5d                   	pop    %ebp
f010030b:	c3                   	ret    

f010030c <cons_intr>:

// called by device interrupt routines to feed input characters
// into the circular console input buffer.
static void
cons_intr(int (*proc)(void))
{
f010030c:	55                   	push   %ebp
f010030d:	89 e5                	mov    %esp,%ebp
f010030f:	53                   	push   %ebx
f0100310:	83 ec 04             	sub    $0x4,%esp
f0100313:	89 c3                	mov    %eax,%ebx
	int c;

	while ((c = (*proc)()) != -1) {
f0100315:	eb 2a                	jmp    f0100341 <cons_intr+0x35>
		if (c == 0)
f0100317:	85 d2                	test   %edx,%edx
f0100319:	74 26                	je     f0100341 <cons_intr+0x35>
			continue;
		cons.buf[cons.wpos++] = c;
f010031b:	a1 24 32 20 f0       	mov    0xf0203224,%eax
f0100320:	8d 48 01             	lea    0x1(%eax),%ecx
f0100323:	89 0d 24 32 20 f0    	mov    %ecx,0xf0203224
f0100329:	88 90 20 30 20 f0    	mov    %dl,-0xfdfcfe0(%eax)
		if (cons.wpos == CONSBUFSIZE)
f010032f:	81 f9 00 02 00 00    	cmp    $0x200,%ecx
f0100335:	75 0a                	jne    f0100341 <cons_intr+0x35>
			cons.wpos = 0;
f0100337:	c7 05 24 32 20 f0 00 	movl   $0x0,0xf0203224
f010033e:	00 00 00 
static void
cons_intr(int (*proc)(void))
{
	int c;

	while ((c = (*proc)()) != -1) {
f0100341:	ff d3                	call   *%ebx
f0100343:	89 c2                	mov    %eax,%edx
f0100345:	83 f8 ff             	cmp    $0xffffffff,%eax
f0100348:	75 cd                	jne    f0100317 <cons_intr+0xb>
			continue;
		cons.buf[cons.wpos++] = c;
		if (cons.wpos == CONSBUFSIZE)
			cons.wpos = 0;
	}
}
f010034a:	83 c4 04             	add    $0x4,%esp
f010034d:	5b                   	pop    %ebx
f010034e:	5d                   	pop    %ebp
f010034f:	c3                   	ret    

f0100350 <kbd_proc_data>:
f0100350:	ba 64 00 00 00       	mov    $0x64,%edx
f0100355:	ec                   	in     (%dx),%al
{
	int c;
	uint8_t data;
	static uint32_t shift;

	if ((inb(KBSTATP) & KBS_DIB) == 0)
f0100356:	a8 01                	test   $0x1,%al
f0100358:	0f 84 ef 00 00 00    	je     f010044d <kbd_proc_data+0xfd>
f010035e:	b2 60                	mov    $0x60,%dl
f0100360:	ec                   	in     (%dx),%al
f0100361:	89 c2                	mov    %eax,%edx
		return -1;

	data = inb(KBDATAP);

	if (data == 0xE0) {
f0100363:	3c e0                	cmp    $0xe0,%al
f0100365:	75 0d                	jne    f0100374 <kbd_proc_data+0x24>
		// E0 escape character
		shift |= E0ESC;
f0100367:	83 0d 00 30 20 f0 40 	orl    $0x40,0xf0203000
		return 0;
f010036e:	b8 00 00 00 00       	mov    $0x0,%eax
		cprintf("Rebooting!\n");
		outb(0x92, 0x3); // courtesy of Chris Frost
	}

	return c;
}
f0100373:	c3                   	ret    
 * Get data from the keyboard.  If we finish a character, return it.  Else 0.
 * Return -1 if no data.
 */
static int
kbd_proc_data(void)
{
f0100374:	55                   	push   %ebp
f0100375:	89 e5                	mov    %esp,%ebp
f0100377:	53                   	push   %ebx
f0100378:	83 ec 14             	sub    $0x14,%esp

	if (data == 0xE0) {
		// E0 escape character
		shift |= E0ESC;
		return 0;
	} else if (data & 0x80) {
f010037b:	84 c0                	test   %al,%al
f010037d:	79 37                	jns    f01003b6 <kbd_proc_data+0x66>
		// Key released
		data = (shift & E0ESC ? data : data & 0x7F);
f010037f:	8b 0d 00 30 20 f0    	mov    0xf0203000,%ecx
f0100385:	89 cb                	mov    %ecx,%ebx
f0100387:	83 e3 40             	and    $0x40,%ebx
f010038a:	83 e0 7f             	and    $0x7f,%eax
f010038d:	85 db                	test   %ebx,%ebx
f010038f:	0f 44 d0             	cmove  %eax,%edx
		shift &= ~(shiftcode[data] | E0ESC);
f0100392:	0f b6 d2             	movzbl %dl,%edx
f0100395:	0f b6 82 e0 6e 10 f0 	movzbl -0xfef9120(%edx),%eax
f010039c:	83 c8 40             	or     $0x40,%eax
f010039f:	0f b6 c0             	movzbl %al,%eax
f01003a2:	f7 d0                	not    %eax
f01003a4:	21 c1                	and    %eax,%ecx
f01003a6:	89 0d 00 30 20 f0    	mov    %ecx,0xf0203000
		return 0;
f01003ac:	b8 00 00 00 00       	mov    $0x0,%eax
f01003b1:	e9 9d 00 00 00       	jmp    f0100453 <kbd_proc_data+0x103>
	} else if (shift & E0ESC) {
f01003b6:	8b 0d 00 30 20 f0    	mov    0xf0203000,%ecx
f01003bc:	f6 c1 40             	test   $0x40,%cl
f01003bf:	74 0e                	je     f01003cf <kbd_proc_data+0x7f>
		// Last character was an E0 escape; or with 0x80
		data |= 0x80;
f01003c1:	83 c8 80             	or     $0xffffff80,%eax
f01003c4:	89 c2                	mov    %eax,%edx
		shift &= ~E0ESC;
f01003c6:	83 e1 bf             	and    $0xffffffbf,%ecx
f01003c9:	89 0d 00 30 20 f0    	mov    %ecx,0xf0203000
	}

	shift |= shiftcode[data];
f01003cf:	0f b6 d2             	movzbl %dl,%edx
f01003d2:	0f b6 82 e0 6e 10 f0 	movzbl -0xfef9120(%edx),%eax
f01003d9:	0b 05 00 30 20 f0    	or     0xf0203000,%eax
	shift ^= togglecode[data];
f01003df:	0f b6 8a e0 6d 10 f0 	movzbl -0xfef9220(%edx),%ecx
f01003e6:	31 c8                	xor    %ecx,%eax
f01003e8:	a3 00 30 20 f0       	mov    %eax,0xf0203000

	c = charcode[shift & (CTL | SHIFT)][data];
f01003ed:	89 c1                	mov    %eax,%ecx
f01003ef:	83 e1 03             	and    $0x3,%ecx
f01003f2:	8b 0c 8d c0 6d 10 f0 	mov    -0xfef9240(,%ecx,4),%ecx
f01003f9:	0f b6 14 11          	movzbl (%ecx,%edx,1),%edx
f01003fd:	0f b6 da             	movzbl %dl,%ebx
	if (shift & CAPSLOCK) {
f0100400:	a8 08                	test   $0x8,%al
f0100402:	74 1b                	je     f010041f <kbd_proc_data+0xcf>
		if ('a' <= c && c <= 'z')
f0100404:	89 da                	mov    %ebx,%edx
f0100406:	8d 4b 9f             	lea    -0x61(%ebx),%ecx
f0100409:	83 f9 19             	cmp    $0x19,%ecx
f010040c:	77 05                	ja     f0100413 <kbd_proc_data+0xc3>
			c += 'A' - 'a';
f010040e:	83 eb 20             	sub    $0x20,%ebx
f0100411:	eb 0c                	jmp    f010041f <kbd_proc_data+0xcf>
		else if ('A' <= c && c <= 'Z')
f0100413:	83 ea 41             	sub    $0x41,%edx
			c += 'a' - 'A';
f0100416:	8d 4b 20             	lea    0x20(%ebx),%ecx
f0100419:	83 fa 19             	cmp    $0x19,%edx
f010041c:	0f 46 d9             	cmovbe %ecx,%ebx
	}

	// Process special keys
	// Ctrl-Alt-Del: reboot
	if (!(~shift & (CTL | ALT)) && c == KEY_DEL) {
f010041f:	f7 d0                	not    %eax
f0100421:	89 c2                	mov    %eax,%edx
		cprintf("Rebooting!\n");
		outb(0x92, 0x3); // courtesy of Chris Frost
	}

	return c;
f0100423:	89 d8                	mov    %ebx,%eax
			c += 'a' - 'A';
	}

	// Process special keys
	// Ctrl-Alt-Del: reboot
	if (!(~shift & (CTL | ALT)) && c == KEY_DEL) {
f0100425:	f6 c2 06             	test   $0x6,%dl
f0100428:	75 29                	jne    f0100453 <kbd_proc_data+0x103>
f010042a:	81 fb e9 00 00 00    	cmp    $0xe9,%ebx
f0100430:	75 21                	jne    f0100453 <kbd_proc_data+0x103>
		cprintf("Rebooting!\n");
f0100432:	c7 04 24 83 6d 10 f0 	movl   $0xf0106d83,(%esp)
f0100439:	e8 27 3d 00 00       	call   f0104165 <cprintf>
}

static __inline void
outb(int port, uint8_t data)
{
	__asm __volatile("outb %0,%w1" : : "a" (data), "d" (port));
f010043e:	ba 92 00 00 00       	mov    $0x92,%edx
f0100443:	b8 03 00 00 00       	mov    $0x3,%eax
f0100448:	ee                   	out    %al,(%dx)
		outb(0x92, 0x3); // courtesy of Chris Frost
	}

	return c;
f0100449:	89 d8                	mov    %ebx,%eax
f010044b:	eb 06                	jmp    f0100453 <kbd_proc_data+0x103>
	int c;
	uint8_t data;
	static uint32_t shift;

	if ((inb(KBSTATP) & KBS_DIB) == 0)
		return -1;
f010044d:	b8 ff ff ff ff       	mov    $0xffffffff,%eax
f0100452:	c3                   	ret    
		cprintf("Rebooting!\n");
		outb(0x92, 0x3); // courtesy of Chris Frost
	}

	return c;
}
f0100453:	83 c4 14             	add    $0x14,%esp
f0100456:	5b                   	pop    %ebx
f0100457:	5d                   	pop    %ebp
f0100458:	c3                   	ret    

f0100459 <cons_putc>:
}

// output a character to the console
static void
cons_putc(int c)
{
f0100459:	55                   	push   %ebp
f010045a:	89 e5                	mov    %esp,%ebp
f010045c:	57                   	push   %edi
f010045d:	56                   	push   %esi
f010045e:	53                   	push   %ebx
f010045f:	83 ec 1c             	sub    $0x1c,%esp
f0100462:	89 c7                	mov    %eax,%edi

static __inline uint8_t
inb(int port)
{
	uint8_t data;
	__asm __volatile("inb %w1,%0" : "=a" (data) : "d" (port));
f0100464:	ba fd 03 00 00       	mov    $0x3fd,%edx
f0100469:	ec                   	in     (%dx),%al
static void
serial_putc(int c)
{
	int i;

	for (i = 0;
f010046a:	a8 20                	test   $0x20,%al
f010046c:	75 27                	jne    f0100495 <cons_putc+0x3c>
f010046e:	bb 00 32 00 00       	mov    $0x3200,%ebx
f0100473:	b9 84 00 00 00       	mov    $0x84,%ecx
f0100478:	be fd 03 00 00       	mov    $0x3fd,%esi
f010047d:	89 ca                	mov    %ecx,%edx
f010047f:	ec                   	in     (%dx),%al
f0100480:	89 ca                	mov    %ecx,%edx
f0100482:	ec                   	in     (%dx),%al
f0100483:	89 ca                	mov    %ecx,%edx
f0100485:	ec                   	in     (%dx),%al
f0100486:	89 ca                	mov    %ecx,%edx
f0100488:	ec                   	in     (%dx),%al
f0100489:	89 f2                	mov    %esi,%edx
f010048b:	ec                   	in     (%dx),%al
f010048c:	a8 20                	test   $0x20,%al
f010048e:	75 05                	jne    f0100495 <cons_putc+0x3c>
	     !(inb(COM1 + COM_LSR) & COM_LSR_TXRDY) && i < 12800;
f0100490:	83 eb 01             	sub    $0x1,%ebx
f0100493:	75 e8                	jne    f010047d <cons_putc+0x24>
	     i++)
		delay();

	outb(COM1 + COM_TX, c);
f0100495:	89 f8                	mov    %edi,%eax
f0100497:	0f b6 c0             	movzbl %al,%eax
f010049a:	89 45 e4             	mov    %eax,-0x1c(%ebp)
}

static __inline void
outb(int port, uint8_t data)
{
	__asm __volatile("outb %0,%w1" : : "a" (data), "d" (port));
f010049d:	ba f8 03 00 00       	mov    $0x3f8,%edx
f01004a2:	ee                   	out    %al,(%dx)

static __inline uint8_t
inb(int port)
{
	uint8_t data;
	__asm __volatile("inb %w1,%0" : "=a" (data) : "d" (port));
f01004a3:	b2 79                	mov    $0x79,%dl
f01004a5:	ec                   	in     (%dx),%al
static void
lpt_putc(int c)
{
	int i;

	for (i = 0; !(inb(0x378+1) & 0x80) && i < 12800; i++)
f01004a6:	84 c0                	test   %al,%al
f01004a8:	78 27                	js     f01004d1 <cons_putc+0x78>
f01004aa:	bb 00 32 00 00       	mov    $0x3200,%ebx
f01004af:	b9 84 00 00 00       	mov    $0x84,%ecx
f01004b4:	be 79 03 00 00       	mov    $0x379,%esi
f01004b9:	89 ca                	mov    %ecx,%edx
f01004bb:	ec                   	in     (%dx),%al
f01004bc:	89 ca                	mov    %ecx,%edx
f01004be:	ec                   	in     (%dx),%al
f01004bf:	89 ca                	mov    %ecx,%edx
f01004c1:	ec                   	in     (%dx),%al
f01004c2:	89 ca                	mov    %ecx,%edx
f01004c4:	ec                   	in     (%dx),%al
f01004c5:	89 f2                	mov    %esi,%edx
f01004c7:	ec                   	in     (%dx),%al
f01004c8:	84 c0                	test   %al,%al
f01004ca:	78 05                	js     f01004d1 <cons_putc+0x78>
f01004cc:	83 eb 01             	sub    $0x1,%ebx
f01004cf:	75 e8                	jne    f01004b9 <cons_putc+0x60>
}

static __inline void
outb(int port, uint8_t data)
{
	__asm __volatile("outb %0,%w1" : : "a" (data), "d" (port));
f01004d1:	ba 78 03 00 00       	mov    $0x378,%edx
f01004d6:	0f b6 45 e4          	movzbl -0x1c(%ebp),%eax
f01004da:	ee                   	out    %al,(%dx)
f01004db:	b2 7a                	mov    $0x7a,%dl
f01004dd:	b8 0d 00 00 00       	mov    $0xd,%eax
f01004e2:	ee                   	out    %al,(%dx)
f01004e3:	b8 08 00 00 00       	mov    $0x8,%eax
f01004e8:	ee                   	out    %al,(%dx)

static void
cga_putc(int c)
{
	// if no attribute given, then use black on white
	if (!(c & ~0xFF))
f01004e9:	89 fa                	mov    %edi,%edx
f01004eb:	81 e2 00 ff ff ff    	and    $0xffffff00,%edx
		c |= 0x0700;
f01004f1:	89 f8                	mov    %edi,%eax
f01004f3:	80 cc 07             	or     $0x7,%ah
f01004f6:	85 d2                	test   %edx,%edx
f01004f8:	0f 44 f8             	cmove  %eax,%edi

	switch (c & 0xff) {
f01004fb:	89 f8                	mov    %edi,%eax
f01004fd:	0f b6 c0             	movzbl %al,%eax
f0100500:	83 f8 09             	cmp    $0x9,%eax
f0100503:	74 78                	je     f010057d <cons_putc+0x124>
f0100505:	83 f8 09             	cmp    $0x9,%eax
f0100508:	7f 0b                	jg     f0100515 <cons_putc+0xbc>
f010050a:	83 f8 08             	cmp    $0x8,%eax
f010050d:	74 18                	je     f0100527 <cons_putc+0xce>
f010050f:	90                   	nop
f0100510:	e9 9c 00 00 00       	jmp    f01005b1 <cons_putc+0x158>
f0100515:	83 f8 0a             	cmp    $0xa,%eax
f0100518:	74 3d                	je     f0100557 <cons_putc+0xfe>
f010051a:	83 f8 0d             	cmp    $0xd,%eax
f010051d:	8d 76 00             	lea    0x0(%esi),%esi
f0100520:	74 3d                	je     f010055f <cons_putc+0x106>
f0100522:	e9 8a 00 00 00       	jmp    f01005b1 <cons_putc+0x158>
	case '\b':
		if (crt_pos > 0) {
f0100527:	0f b7 05 28 32 20 f0 	movzwl 0xf0203228,%eax
f010052e:	66 85 c0             	test   %ax,%ax
f0100531:	0f 84 e5 00 00 00    	je     f010061c <cons_putc+0x1c3>
			crt_pos--;
f0100537:	83 e8 01             	sub    $0x1,%eax
f010053a:	66 a3 28 32 20 f0    	mov    %ax,0xf0203228
			crt_buf[crt_pos] = (c & ~0xff) | ' ';
f0100540:	0f b7 c0             	movzwl %ax,%eax
f0100543:	66 81 e7 00 ff       	and    $0xff00,%di
f0100548:	83 cf 20             	or     $0x20,%edi
f010054b:	8b 15 2c 32 20 f0    	mov    0xf020322c,%edx
f0100551:	66 89 3c 42          	mov    %di,(%edx,%eax,2)
f0100555:	eb 78                	jmp    f01005cf <cons_putc+0x176>
		}
		break;
	case '\n':
		crt_pos += CRT_COLS;
f0100557:	66 83 05 28 32 20 f0 	addw   $0x50,0xf0203228
f010055e:	50 
		/* fallthru */
	case '\r':
		crt_pos -= (crt_pos % CRT_COLS);
f010055f:	0f b7 05 28 32 20 f0 	movzwl 0xf0203228,%eax
f0100566:	69 c0 cd cc 00 00    	imul   $0xcccd,%eax,%eax
f010056c:	c1 e8 16             	shr    $0x16,%eax
f010056f:	8d 04 80             	lea    (%eax,%eax,4),%eax
f0100572:	c1 e0 04             	shl    $0x4,%eax
f0100575:	66 a3 28 32 20 f0    	mov    %ax,0xf0203228
f010057b:	eb 52                	jmp    f01005cf <cons_putc+0x176>
		break;
	case '\t':
		cons_putc(' ');
f010057d:	b8 20 00 00 00       	mov    $0x20,%eax
f0100582:	e8 d2 fe ff ff       	call   f0100459 <cons_putc>
		cons_putc(' ');
f0100587:	b8 20 00 00 00       	mov    $0x20,%eax
f010058c:	e8 c8 fe ff ff       	call   f0100459 <cons_putc>
		cons_putc(' ');
f0100591:	b8 20 00 00 00       	mov    $0x20,%eax
f0100596:	e8 be fe ff ff       	call   f0100459 <cons_putc>
		cons_putc(' ');
f010059b:	b8 20 00 00 00       	mov    $0x20,%eax
f01005a0:	e8 b4 fe ff ff       	call   f0100459 <cons_putc>
		cons_putc(' ');
f01005a5:	b8 20 00 00 00       	mov    $0x20,%eax
f01005aa:	e8 aa fe ff ff       	call   f0100459 <cons_putc>
f01005af:	eb 1e                	jmp    f01005cf <cons_putc+0x176>
		break;
	default:
		crt_buf[crt_pos++] = c;		/* write the character */
f01005b1:	0f b7 05 28 32 20 f0 	movzwl 0xf0203228,%eax
f01005b8:	8d 50 01             	lea    0x1(%eax),%edx
f01005bb:	66 89 15 28 32 20 f0 	mov    %dx,0xf0203228
f01005c2:	0f b7 c0             	movzwl %ax,%eax
f01005c5:	8b 15 2c 32 20 f0    	mov    0xf020322c,%edx
f01005cb:	66 89 3c 42          	mov    %di,(%edx,%eax,2)
		break;
	}

	// What is the purpose of this?
	if (crt_pos >= CRT_SIZE) {
f01005cf:	66 81 3d 28 32 20 f0 	cmpw   $0x7cf,0xf0203228
f01005d6:	cf 07 
f01005d8:	76 42                	jbe    f010061c <cons_putc+0x1c3>
		int i;

		memmove(crt_buf, crt_buf + CRT_COLS, (CRT_SIZE - CRT_COLS) * sizeof(uint16_t));
f01005da:	a1 2c 32 20 f0       	mov    0xf020322c,%eax
f01005df:	c7 44 24 08 00 0f 00 	movl   $0xf00,0x8(%esp)
f01005e6:	00 
f01005e7:	8d 90 a0 00 00 00    	lea    0xa0(%eax),%edx
f01005ed:	89 54 24 04          	mov    %edx,0x4(%esp)
f01005f1:	89 04 24             	mov    %eax,(%esp)
f01005f4:	e8 5d 59 00 00       	call   f0105f56 <memmove>
		for (i = CRT_SIZE - CRT_COLS; i < CRT_SIZE; i++)
			crt_buf[i] = 0x0700 | ' ';
f01005f9:	8b 15 2c 32 20 f0    	mov    0xf020322c,%edx
	// What is the purpose of this?
	if (crt_pos >= CRT_SIZE) {
		int i;

		memmove(crt_buf, crt_buf + CRT_COLS, (CRT_SIZE - CRT_COLS) * sizeof(uint16_t));
		for (i = CRT_SIZE - CRT_COLS; i < CRT_SIZE; i++)
f01005ff:	b8 80 07 00 00       	mov    $0x780,%eax
			crt_buf[i] = 0x0700 | ' ';
f0100604:	66 c7 04 42 20 07    	movw   $0x720,(%edx,%eax,2)
	// What is the purpose of this?
	if (crt_pos >= CRT_SIZE) {
		int i;

		memmove(crt_buf, crt_buf + CRT_COLS, (CRT_SIZE - CRT_COLS) * sizeof(uint16_t));
		for (i = CRT_SIZE - CRT_COLS; i < CRT_SIZE; i++)
f010060a:	83 c0 01             	add    $0x1,%eax
f010060d:	3d d0 07 00 00       	cmp    $0x7d0,%eax
f0100612:	75 f0                	jne    f0100604 <cons_putc+0x1ab>
			crt_buf[i] = 0x0700 | ' ';
		crt_pos -= CRT_COLS;
f0100614:	66 83 2d 28 32 20 f0 	subw   $0x50,0xf0203228
f010061b:	50 
	}

	/* move that little blinky thing */
	outb(addr_6845, 14);
f010061c:	8b 0d 30 32 20 f0    	mov    0xf0203230,%ecx
f0100622:	b8 0e 00 00 00       	mov    $0xe,%eax
f0100627:	89 ca                	mov    %ecx,%edx
f0100629:	ee                   	out    %al,(%dx)
	outb(addr_6845 + 1, crt_pos >> 8);
f010062a:	0f b7 1d 28 32 20 f0 	movzwl 0xf0203228,%ebx
f0100631:	8d 71 01             	lea    0x1(%ecx),%esi
f0100634:	89 d8                	mov    %ebx,%eax
f0100636:	66 c1 e8 08          	shr    $0x8,%ax
f010063a:	89 f2                	mov    %esi,%edx
f010063c:	ee                   	out    %al,(%dx)
f010063d:	b8 0f 00 00 00       	mov    $0xf,%eax
f0100642:	89 ca                	mov    %ecx,%edx
f0100644:	ee                   	out    %al,(%dx)
f0100645:	89 d8                	mov    %ebx,%eax
f0100647:	89 f2                	mov    %esi,%edx
f0100649:	ee                   	out    %al,(%dx)
cons_putc(int c)
{
	serial_putc(c);
	lpt_putc(c);
	cga_putc(c);
}
f010064a:	83 c4 1c             	add    $0x1c,%esp
f010064d:	5b                   	pop    %ebx
f010064e:	5e                   	pop    %esi
f010064f:	5f                   	pop    %edi
f0100650:	5d                   	pop    %ebp
f0100651:	c3                   	ret    

f0100652 <serial_intr>:
}

void
serial_intr(void)
{
	if (serial_exists)
f0100652:	80 3d 34 32 20 f0 00 	cmpb   $0x0,0xf0203234
f0100659:	74 11                	je     f010066c <serial_intr+0x1a>
	return inb(COM1+COM_RX);
}

void
serial_intr(void)
{
f010065b:	55                   	push   %ebp
f010065c:	89 e5                	mov    %esp,%ebp
f010065e:	83 ec 08             	sub    $0x8,%esp
	if (serial_exists)
		cons_intr(serial_proc_data);
f0100661:	b8 f0 02 10 f0       	mov    $0xf01002f0,%eax
f0100666:	e8 a1 fc ff ff       	call   f010030c <cons_intr>
}
f010066b:	c9                   	leave  
f010066c:	f3 c3                	repz ret 

f010066e <kbd_intr>:
	return c;
}

void
kbd_intr(void)
{
f010066e:	55                   	push   %ebp
f010066f:	89 e5                	mov    %esp,%ebp
f0100671:	83 ec 08             	sub    $0x8,%esp
	cons_intr(kbd_proc_data);
f0100674:	b8 50 03 10 f0       	mov    $0xf0100350,%eax
f0100679:	e8 8e fc ff ff       	call   f010030c <cons_intr>
}
f010067e:	c9                   	leave  
f010067f:	c3                   	ret    

f0100680 <cons_getc>:
}

// return the next input character from the console, or 0 if none waiting
int
cons_getc(void)
{
f0100680:	55                   	push   %ebp
f0100681:	89 e5                	mov    %esp,%ebp
f0100683:	83 ec 08             	sub    $0x8,%esp
	int c;

	// poll for any pending input characters,
	// so that this function works even when interrupts are disabled
	// (e.g., when called from the kernel monitor).
	serial_intr();
f0100686:	e8 c7 ff ff ff       	call   f0100652 <serial_intr>
	kbd_intr();
f010068b:	e8 de ff ff ff       	call   f010066e <kbd_intr>

	// grab the next character from the input buffer.
	if (cons.rpos != cons.wpos) {
f0100690:	a1 20 32 20 f0       	mov    0xf0203220,%eax
f0100695:	3b 05 24 32 20 f0    	cmp    0xf0203224,%eax
f010069b:	74 26                	je     f01006c3 <cons_getc+0x43>
		c = cons.buf[cons.rpos++];
f010069d:	8d 50 01             	lea    0x1(%eax),%edx
f01006a0:	89 15 20 32 20 f0    	mov    %edx,0xf0203220
f01006a6:	0f b6 88 20 30 20 f0 	movzbl -0xfdfcfe0(%eax),%ecx
		if (cons.rpos == CONSBUFSIZE)
			cons.rpos = 0;
		return c;
f01006ad:	89 c8                	mov    %ecx,%eax
	kbd_intr();

	// grab the next character from the input buffer.
	if (cons.rpos != cons.wpos) {
		c = cons.buf[cons.rpos++];
		if (cons.rpos == CONSBUFSIZE)
f01006af:	81 fa 00 02 00 00    	cmp    $0x200,%edx
f01006b5:	75 11                	jne    f01006c8 <cons_getc+0x48>
			cons.rpos = 0;
f01006b7:	c7 05 20 32 20 f0 00 	movl   $0x0,0xf0203220
f01006be:	00 00 00 
f01006c1:	eb 05                	jmp    f01006c8 <cons_getc+0x48>
		return c;
	}
	return 0;
f01006c3:	b8 00 00 00 00       	mov    $0x0,%eax
}
f01006c8:	c9                   	leave  
f01006c9:	c3                   	ret    

f01006ca <cons_init>:
}

// initialize the console devices
void
cons_init(void)
{
f01006ca:	55                   	push   %ebp
f01006cb:	89 e5                	mov    %esp,%ebp
f01006cd:	57                   	push   %edi
f01006ce:	56                   	push   %esi
f01006cf:	53                   	push   %ebx
f01006d0:	83 ec 1c             	sub    $0x1c,%esp
	volatile uint16_t *cp;
	uint16_t was;
	unsigned pos;

	cp = (uint16_t*) (KERNBASE + CGA_BUF);
	was = *cp;
f01006d3:	0f b7 15 00 80 0b f0 	movzwl 0xf00b8000,%edx
	*cp = (uint16_t) 0xA55A;
f01006da:	66 c7 05 00 80 0b f0 	movw   $0xa55a,0xf00b8000
f01006e1:	5a a5 
	if (*cp != 0xA55A) {
f01006e3:	0f b7 05 00 80 0b f0 	movzwl 0xf00b8000,%eax
f01006ea:	66 3d 5a a5          	cmp    $0xa55a,%ax
f01006ee:	74 11                	je     f0100701 <cons_init+0x37>
		cp = (uint16_t*) (KERNBASE + MONO_BUF);
		addr_6845 = MONO_BASE;
f01006f0:	c7 05 30 32 20 f0 b4 	movl   $0x3b4,0xf0203230
f01006f7:	03 00 00 

	cp = (uint16_t*) (KERNBASE + CGA_BUF);
	was = *cp;
	*cp = (uint16_t) 0xA55A;
	if (*cp != 0xA55A) {
		cp = (uint16_t*) (KERNBASE + MONO_BUF);
f01006fa:	bf 00 00 0b f0       	mov    $0xf00b0000,%edi
f01006ff:	eb 16                	jmp    f0100717 <cons_init+0x4d>
		addr_6845 = MONO_BASE;
	} else {
		*cp = was;
f0100701:	66 89 15 00 80 0b f0 	mov    %dx,0xf00b8000
		addr_6845 = CGA_BASE;
f0100708:	c7 05 30 32 20 f0 d4 	movl   $0x3d4,0xf0203230
f010070f:	03 00 00 
{
	volatile uint16_t *cp;
	uint16_t was;
	unsigned pos;

	cp = (uint16_t*) (KERNBASE + CGA_BUF);
f0100712:	bf 00 80 0b f0       	mov    $0xf00b8000,%edi
		*cp = was;
		addr_6845 = CGA_BASE;
	}

	/* Extract cursor location */
	outb(addr_6845, 14);
f0100717:	8b 0d 30 32 20 f0    	mov    0xf0203230,%ecx
f010071d:	b8 0e 00 00 00       	mov    $0xe,%eax
f0100722:	89 ca                	mov    %ecx,%edx
f0100724:	ee                   	out    %al,(%dx)
	pos = inb(addr_6845 + 1) << 8;
f0100725:	8d 59 01             	lea    0x1(%ecx),%ebx

static __inline uint8_t
inb(int port)
{
	uint8_t data;
	__asm __volatile("inb %w1,%0" : "=a" (data) : "d" (port));
f0100728:	89 da                	mov    %ebx,%edx
f010072a:	ec                   	in     (%dx),%al
f010072b:	0f b6 f0             	movzbl %al,%esi
f010072e:	c1 e6 08             	shl    $0x8,%esi
}

static __inline void
outb(int port, uint8_t data)
{
	__asm __volatile("outb %0,%w1" : : "a" (data), "d" (port));
f0100731:	b8 0f 00 00 00       	mov    $0xf,%eax
f0100736:	89 ca                	mov    %ecx,%edx
f0100738:	ee                   	out    %al,(%dx)

static __inline uint8_t
inb(int port)
{
	uint8_t data;
	__asm __volatile("inb %w1,%0" : "=a" (data) : "d" (port));
f0100739:	89 da                	mov    %ebx,%edx
f010073b:	ec                   	in     (%dx),%al
	outb(addr_6845, 15);
	pos |= inb(addr_6845 + 1);

	crt_buf = (uint16_t*) cp;
f010073c:	89 3d 2c 32 20 f0    	mov    %edi,0xf020322c

	/* Extract cursor location */
	outb(addr_6845, 14);
	pos = inb(addr_6845 + 1) << 8;
	outb(addr_6845, 15);
	pos |= inb(addr_6845 + 1);
f0100742:	0f b6 d8             	movzbl %al,%ebx
f0100745:	09 de                	or     %ebx,%esi

	crt_buf = (uint16_t*) cp;
	crt_pos = pos;
f0100747:	66 89 35 28 32 20 f0 	mov    %si,0xf0203228

static void
kbd_init(void)
{
	// Drain the kbd buffer so that Bochs generates interrupts.
	kbd_intr();
f010074e:	e8 1b ff ff ff       	call   f010066e <kbd_intr>
	irq_setmask_8259A(irq_mask_8259A & ~(1<<1));
f0100753:	0f b7 05 a8 13 12 f0 	movzwl 0xf01213a8,%eax
f010075a:	25 fd ff 00 00       	and    $0xfffd,%eax
f010075f:	89 04 24             	mov    %eax,(%esp)
f0100762:	e8 bf 38 00 00       	call   f0104026 <irq_setmask_8259A>
}

static __inline void
outb(int port, uint8_t data)
{
	__asm __volatile("outb %0,%w1" : : "a" (data), "d" (port));
f0100767:	ba fa 03 00 00       	mov    $0x3fa,%edx
f010076c:	b8 00 00 00 00       	mov    $0x0,%eax
f0100771:	ee                   	out    %al,(%dx)
f0100772:	b2 fb                	mov    $0xfb,%dl
f0100774:	b8 80 ff ff ff       	mov    $0xffffff80,%eax
f0100779:	ee                   	out    %al,(%dx)
f010077a:	b2 f8                	mov    $0xf8,%dl
f010077c:	b8 0c 00 00 00       	mov    $0xc,%eax
f0100781:	ee                   	out    %al,(%dx)
f0100782:	b2 f9                	mov    $0xf9,%dl
f0100784:	b8 00 00 00 00       	mov    $0x0,%eax
f0100789:	ee                   	out    %al,(%dx)
f010078a:	b2 fb                	mov    $0xfb,%dl
f010078c:	b8 03 00 00 00       	mov    $0x3,%eax
f0100791:	ee                   	out    %al,(%dx)
f0100792:	b2 fc                	mov    $0xfc,%dl
f0100794:	b8 00 00 00 00       	mov    $0x0,%eax
f0100799:	ee                   	out    %al,(%dx)
f010079a:	b2 f9                	mov    $0xf9,%dl
f010079c:	b8 01 00 00 00       	mov    $0x1,%eax
f01007a1:	ee                   	out    %al,(%dx)

static __inline uint8_t
inb(int port)
{
	uint8_t data;
	__asm __volatile("inb %w1,%0" : "=a" (data) : "d" (port));
f01007a2:	b2 fd                	mov    $0xfd,%dl
f01007a4:	ec                   	in     (%dx),%al
	// Enable rcv interrupts
	outb(COM1+COM_IER, COM_IER_RDI);

	// Clear any preexisting overrun indications and interrupts
	// Serial port doesn't exist if COM_LSR returns 0xFF
	serial_exists = (inb(COM1+COM_LSR) != 0xFF);
f01007a5:	3c ff                	cmp    $0xff,%al
f01007a7:	0f 95 c1             	setne  %cl
f01007aa:	88 0d 34 32 20 f0    	mov    %cl,0xf0203234
f01007b0:	b2 fa                	mov    $0xfa,%dl
f01007b2:	ec                   	in     (%dx),%al
f01007b3:	b2 f8                	mov    $0xf8,%dl
f01007b5:	ec                   	in     (%dx),%al
	(void) inb(COM1+COM_IIR);
	(void) inb(COM1+COM_RX);

	// Enable serial interrupts
	if (serial_exists)
f01007b6:	84 c9                	test   %cl,%cl
f01007b8:	74 1d                	je     f01007d7 <cons_init+0x10d>
		irq_setmask_8259A(irq_mask_8259A & ~(1<<4));
f01007ba:	0f b7 05 a8 13 12 f0 	movzwl 0xf01213a8,%eax
f01007c1:	25 ef ff 00 00       	and    $0xffef,%eax
f01007c6:	89 04 24             	mov    %eax,(%esp)
f01007c9:	e8 58 38 00 00       	call   f0104026 <irq_setmask_8259A>
{
	cga_init();
	kbd_init();
	serial_init();

	if (!serial_exists)
f01007ce:	80 3d 34 32 20 f0 00 	cmpb   $0x0,0xf0203234
f01007d5:	75 0c                	jne    f01007e3 <cons_init+0x119>
		cprintf("Serial port does not exist!\n");
f01007d7:	c7 04 24 8f 6d 10 f0 	movl   $0xf0106d8f,(%esp)
f01007de:	e8 82 39 00 00       	call   f0104165 <cprintf>
}
f01007e3:	83 c4 1c             	add    $0x1c,%esp
f01007e6:	5b                   	pop    %ebx
f01007e7:	5e                   	pop    %esi
f01007e8:	5f                   	pop    %edi
f01007e9:	5d                   	pop    %ebp
f01007ea:	c3                   	ret    

f01007eb <cputchar>:

// `High'-level console I/O.  Used by readline and cprintf.

void
cputchar(int c)
{
f01007eb:	55                   	push   %ebp
f01007ec:	89 e5                	mov    %esp,%ebp
f01007ee:	83 ec 08             	sub    $0x8,%esp
	cons_putc(c);
f01007f1:	8b 45 08             	mov    0x8(%ebp),%eax
f01007f4:	e8 60 fc ff ff       	call   f0100459 <cons_putc>
}
f01007f9:	c9                   	leave  
f01007fa:	c3                   	ret    

f01007fb <getchar>:

int
getchar(void)
{
f01007fb:	55                   	push   %ebp
f01007fc:	89 e5                	mov    %esp,%ebp
f01007fe:	83 ec 08             	sub    $0x8,%esp
	int c;

	while ((c = cons_getc()) == 0)
f0100801:	e8 7a fe ff ff       	call   f0100680 <cons_getc>
f0100806:	85 c0                	test   %eax,%eax
f0100808:	74 f7                	je     f0100801 <getchar+0x6>
		/* do nothing */;
	return c;
}
f010080a:	c9                   	leave  
f010080b:	c3                   	ret    

f010080c <iscons>:

int
iscons(int fdnum)
{
f010080c:	55                   	push   %ebp
f010080d:	89 e5                	mov    %esp,%ebp
	// used by readline
	return 1;
}
f010080f:	b8 01 00 00 00       	mov    $0x1,%eax
f0100814:	5d                   	pop    %ebp
f0100815:	c3                   	ret    
f0100816:	66 90                	xchg   %ax,%ax
f0100818:	66 90                	xchg   %ax,%ax
f010081a:	66 90                	xchg   %ax,%ax
f010081c:	66 90                	xchg   %ax,%ax
f010081e:	66 90                	xchg   %ax,%ax

f0100820 <mon_continue>:
	}
	return 0;
}


int mon_continue(int argc, char **argv, struct Trapframe *tf) {
f0100820:	55                   	push   %ebp
f0100821:	89 e5                	mov    %esp,%ebp
	__exit = 1;
f0100823:	c7 05 38 32 20 f0 01 	movl   $0x1,0xf0203238
f010082a:	00 00 00 
	return 0;
}
f010082d:	b8 00 00 00 00       	mov    $0x0,%eax
f0100832:	5d                   	pop    %ebp
f0100833:	c3                   	ret    

f0100834 <mon_help>:
static int __exit = 0;
/***** Implementations of basic kernel monitor commands *****/

int
mon_help(int argc, char **argv, struct Trapframe *tf)
{
f0100834:	55                   	push   %ebp
f0100835:	89 e5                	mov    %esp,%ebp
f0100837:	56                   	push   %esi
f0100838:	53                   	push   %ebx
f0100839:	83 ec 10             	sub    $0x10,%esp
f010083c:	bb 64 72 10 f0       	mov    $0xf0107264,%ebx
f0100841:	be 94 72 10 f0       	mov    $0xf0107294,%esi
	int i;

	for (i = 0; i < NCOMMANDS; i++)
		cprintf("%s - %s\n", commands[i].name, commands[i].desc);
f0100846:	8b 03                	mov    (%ebx),%eax
f0100848:	89 44 24 08          	mov    %eax,0x8(%esp)
f010084c:	8b 43 fc             	mov    -0x4(%ebx),%eax
f010084f:	89 44 24 04          	mov    %eax,0x4(%esp)
f0100853:	c7 04 24 e0 6f 10 f0 	movl   $0xf0106fe0,(%esp)
f010085a:	e8 06 39 00 00       	call   f0104165 <cprintf>
f010085f:	83 c3 0c             	add    $0xc,%ebx
int
mon_help(int argc, char **argv, struct Trapframe *tf)
{
	int i;

	for (i = 0; i < NCOMMANDS; i++)
f0100862:	39 f3                	cmp    %esi,%ebx
f0100864:	75 e0                	jne    f0100846 <mon_help+0x12>
		cprintf("%s - %s\n", commands[i].name, commands[i].desc);
	return 0;
}
f0100866:	b8 00 00 00 00       	mov    $0x0,%eax
f010086b:	83 c4 10             	add    $0x10,%esp
f010086e:	5b                   	pop    %ebx
f010086f:	5e                   	pop    %esi
f0100870:	5d                   	pop    %ebp
f0100871:	c3                   	ret    

f0100872 <mon_kerninfo>:

int
mon_kerninfo(int argc, char **argv, struct Trapframe *tf)
{
f0100872:	55                   	push   %ebp
f0100873:	89 e5                	mov    %esp,%ebp
f0100875:	83 ec 18             	sub    $0x18,%esp
	extern char _start[], entry[], etext[], edata[], end[];

	cprintf("Special kernel symbols:\n");
f0100878:	c7 04 24 e9 6f 10 f0 	movl   $0xf0106fe9,(%esp)
f010087f:	e8 e1 38 00 00       	call   f0104165 <cprintf>
	cprintf("  _start                  %08x (phys)\n", _start);
f0100884:	c7 44 24 04 0c 00 10 	movl   $0x10000c,0x4(%esp)
f010088b:	00 
f010088c:	c7 04 24 80 70 10 f0 	movl   $0xf0107080,(%esp)
f0100893:	e8 cd 38 00 00       	call   f0104165 <cprintf>
	cprintf("  entry  %08x (virt)  %08x (phys)\n", entry, entry - KERNBASE);
f0100898:	c7 44 24 08 0c 00 10 	movl   $0x10000c,0x8(%esp)
f010089f:	00 
f01008a0:	c7 44 24 04 0c 00 10 	movl   $0xf010000c,0x4(%esp)
f01008a7:	f0 
f01008a8:	c7 04 24 a8 70 10 f0 	movl   $0xf01070a8,(%esp)
f01008af:	e8 b1 38 00 00       	call   f0104165 <cprintf>
	cprintf("  etext  %08x (virt)  %08x (phys)\n", etext, etext - KERNBASE);
f01008b4:	c7 44 24 08 a7 6c 10 	movl   $0x106ca7,0x8(%esp)
f01008bb:	00 
f01008bc:	c7 44 24 04 a7 6c 10 	movl   $0xf0106ca7,0x4(%esp)
f01008c3:	f0 
f01008c4:	c7 04 24 cc 70 10 f0 	movl   $0xf01070cc,(%esp)
f01008cb:	e8 95 38 00 00       	call   f0104165 <cprintf>
	cprintf("  edata  %08x (virt)  %08x (phys)\n", edata, edata - KERNBASE);
f01008d0:	c7 44 24 08 91 2e 20 	movl   $0x202e91,0x8(%esp)
f01008d7:	00 
f01008d8:	c7 44 24 04 91 2e 20 	movl   $0xf0202e91,0x4(%esp)
f01008df:	f0 
f01008e0:	c7 04 24 f0 70 10 f0 	movl   $0xf01070f0,(%esp)
f01008e7:	e8 79 38 00 00       	call   f0104165 <cprintf>
	cprintf("  end    %08x (virt)  %08x (phys)\n", end, end - KERNBASE);
f01008ec:	c7 44 24 08 08 50 24 	movl   $0x245008,0x8(%esp)
f01008f3:	00 
f01008f4:	c7 44 24 04 08 50 24 	movl   $0xf0245008,0x4(%esp)
f01008fb:	f0 
f01008fc:	c7 04 24 14 71 10 f0 	movl   $0xf0107114,(%esp)
f0100903:	e8 5d 38 00 00       	call   f0104165 <cprintf>
	cprintf("Kernel executable memory footprint: %dKB\n",
		ROUNDUP(end - entry, 1024) / 1024);
f0100908:	b8 07 54 24 f0       	mov    $0xf0245407,%eax
f010090d:	2d 0c 00 10 f0       	sub    $0xf010000c,%eax
f0100912:	25 00 fc ff ff       	and    $0xfffffc00,%eax
	cprintf("  _start                  %08x (phys)\n", _start);
	cprintf("  entry  %08x (virt)  %08x (phys)\n", entry, entry - KERNBASE);
	cprintf("  etext  %08x (virt)  %08x (phys)\n", etext, etext - KERNBASE);
	cprintf("  edata  %08x (virt)  %08x (phys)\n", edata, edata - KERNBASE);
	cprintf("  end    %08x (virt)  %08x (phys)\n", end, end - KERNBASE);
	cprintf("Kernel executable memory footprint: %dKB\n",
f0100917:	8d 90 ff 03 00 00    	lea    0x3ff(%eax),%edx
f010091d:	85 c0                	test   %eax,%eax
f010091f:	0f 48 c2             	cmovs  %edx,%eax
f0100922:	c1 f8 0a             	sar    $0xa,%eax
f0100925:	89 44 24 04          	mov    %eax,0x4(%esp)
f0100929:	c7 04 24 38 71 10 f0 	movl   $0xf0107138,(%esp)
f0100930:	e8 30 38 00 00       	call   f0104165 <cprintf>
		ROUNDUP(end - entry, 1024) / 1024);
	return 0;
}
f0100935:	b8 00 00 00 00       	mov    $0x0,%eax
f010093a:	c9                   	leave  
f010093b:	c3                   	ret    

f010093c <mon_backtrace>:

static __inline uint32_t
read_ebp(void)
{
	uint32_t ebp;
	__asm __volatile("movl %%ebp,%0" : "=r" (ebp));
f010093c:	89 e8                	mov    %ebp,%eax

int
mon_backtrace(int argc, char **argv, struct Trapframe *tf)
{
	unsigned ebp = read_ebp();
	while (ebp) {
f010093e:	85 c0                	test   %eax,%eax
f0100940:	0f 84 8c 00 00 00    	je     f01009d2 <mon_backtrace+0x96>
	return 0;
}

int
mon_backtrace(int argc, char **argv, struct Trapframe *tf)
{
f0100946:	55                   	push   %ebp
f0100947:	89 e5                	mov    %esp,%ebp
f0100949:	57                   	push   %edi
f010094a:	56                   	push   %esi
f010094b:	53                   	push   %ebx
f010094c:	83 ec 6c             	sub    $0x6c,%esp
f010094f:	89 c3                	mov    %eax,%ebx
	unsigned ebp = read_ebp();
	while (ebp) {
		struct Eipdebuginfo info;
		unsigned eip = *((unsigned *)ebp + 1);
		debuginfo_eip(eip, &info);
f0100951:	8d 7d d0             	lea    -0x30(%ebp),%edi
mon_backtrace(int argc, char **argv, struct Trapframe *tf)
{
	unsigned ebp = read_ebp();
	while (ebp) {
		struct Eipdebuginfo info;
		unsigned eip = *((unsigned *)ebp + 1);
f0100954:	8b 73 04             	mov    0x4(%ebx),%esi
		debuginfo_eip(eip, &info);
f0100957:	89 7c 24 04          	mov    %edi,0x4(%esp)
f010095b:	89 34 24             	mov    %esi,(%esp)
f010095e:	e8 8e 49 00 00       	call   f01052f1 <debuginfo_eip>
		cprintf("ebp %08x eip %08x args %08x %08x %08x %08x %08x %s:%d: %.*s+%d\n",
f0100963:	89 f0                	mov    %esi,%eax
f0100965:	2b 45 e0             	sub    -0x20(%ebp),%eax
f0100968:	89 44 24 30          	mov    %eax,0x30(%esp)
f010096c:	8b 45 d8             	mov    -0x28(%ebp),%eax
f010096f:	89 44 24 2c          	mov    %eax,0x2c(%esp)
f0100973:	8b 45 dc             	mov    -0x24(%ebp),%eax
f0100976:	89 44 24 28          	mov    %eax,0x28(%esp)
f010097a:	8b 45 d4             	mov    -0x2c(%ebp),%eax
f010097d:	89 44 24 24          	mov    %eax,0x24(%esp)
f0100981:	8b 45 d0             	mov    -0x30(%ebp),%eax
f0100984:	89 44 24 20          	mov    %eax,0x20(%esp)
f0100988:	8b 43 18             	mov    0x18(%ebx),%eax
f010098b:	89 44 24 1c          	mov    %eax,0x1c(%esp)
f010098f:	8b 43 14             	mov    0x14(%ebx),%eax
f0100992:	89 44 24 18          	mov    %eax,0x18(%esp)
f0100996:	8b 43 10             	mov    0x10(%ebx),%eax
f0100999:	89 44 24 14          	mov    %eax,0x14(%esp)
f010099d:	8b 43 0c             	mov    0xc(%ebx),%eax
f01009a0:	89 44 24 10          	mov    %eax,0x10(%esp)
f01009a4:	8b 43 08             	mov    0x8(%ebx),%eax
f01009a7:	89 44 24 0c          	mov    %eax,0xc(%esp)
f01009ab:	89 74 24 08          	mov    %esi,0x8(%esp)
f01009af:	89 5c 24 04          	mov    %ebx,0x4(%esp)
f01009b3:	c7 04 24 64 71 10 f0 	movl   $0xf0107164,(%esp)
f01009ba:	e8 a6 37 00 00       	call   f0104165 <cprintf>
			      info.eip_file,
			      info.eip_line,
			      info.eip_fn_namelen, info.eip_fn_name,
			      (char*)eip - (char*)info.eip_fn_addr);

		ebp = *(unsigned*)ebp;
f01009bf:	8b 1b                	mov    (%ebx),%ebx

int
mon_backtrace(int argc, char **argv, struct Trapframe *tf)
{
	unsigned ebp = read_ebp();
	while (ebp) {
f01009c1:	85 db                	test   %ebx,%ebx
f01009c3:	75 8f                	jne    f0100954 <mon_backtrace+0x18>
			      (char*)eip - (char*)info.eip_fn_addr);

		ebp = *(unsigned*)ebp;
	}
	return 0;
}
f01009c5:	b8 00 00 00 00       	mov    $0x0,%eax
f01009ca:	83 c4 6c             	add    $0x6c,%esp
f01009cd:	5b                   	pop    %ebx
f01009ce:	5e                   	pop    %esi
f01009cf:	5f                   	pop    %edi
f01009d0:	5d                   	pop    %ebp
f01009d1:	c3                   	ret    
f01009d2:	b8 00 00 00 00       	mov    $0x0,%eax
f01009d7:	c3                   	ret    

f01009d8 <monitor>:
	return 0;
}

void
monitor(struct Trapframe *tf)
{
f01009d8:	55                   	push   %ebp
f01009d9:	89 e5                	mov    %esp,%ebp
f01009db:	57                   	push   %edi
f01009dc:	56                   	push   %esi
f01009dd:	53                   	push   %ebx
f01009de:	83 ec 5c             	sub    $0x5c,%esp
	char *buf;

	cprintf("Welcome to the JOS kernel monitor!\n");
f01009e1:	c7 04 24 a4 71 10 f0 	movl   $0xf01071a4,(%esp)
f01009e8:	e8 78 37 00 00       	call   f0104165 <cprintf>
	cprintf("Type 'help' for a list of commands.\n");
f01009ed:	c7 04 24 c8 71 10 f0 	movl   $0xf01071c8,(%esp)
f01009f4:	e8 6c 37 00 00       	call   f0104165 <cprintf>

	if (tf != NULL)
f01009f9:	83 7d 08 00          	cmpl   $0x0,0x8(%ebp)
f01009fd:	74 0b                	je     f0100a0a <monitor+0x32>
		print_trapframe(tf);
f01009ff:	8b 45 08             	mov    0x8(%ebp),%eax
f0100a02:	89 04 24             	mov    %eax,(%esp)
f0100a05:	e8 db 39 00 00       	call   f01043e5 <print_trapframe>

	__exit = 0;
f0100a0a:	c7 05 38 32 20 f0 00 	movl   $0x0,0xf0203238
f0100a11:	00 00 00 
	while (!__exit) {
f0100a14:	e9 0f 01 00 00       	jmp    f0100b28 <monitor+0x150>
		buf = readline("K> ");
f0100a19:	c7 04 24 02 70 10 f0 	movl   $0xf0107002,(%esp)
f0100a20:	e8 fb 51 00 00       	call   f0105c20 <readline>
f0100a25:	89 c3                	mov    %eax,%ebx
		if (buf != NULL)
f0100a27:	85 c0                	test   %eax,%eax
f0100a29:	0f 84 f9 00 00 00    	je     f0100b28 <monitor+0x150>
	char *argv[MAXARGS];
	int i;

	// Parse the command buffer into whitespace-separated arguments
	argc = 0;
	argv[argc] = 0;
f0100a2f:	c7 45 a8 00 00 00 00 	movl   $0x0,-0x58(%ebp)
	int argc;
	char *argv[MAXARGS];
	int i;

	// Parse the command buffer into whitespace-separated arguments
	argc = 0;
f0100a36:	be 00 00 00 00       	mov    $0x0,%esi
f0100a3b:	eb 0a                	jmp    f0100a47 <monitor+0x6f>
	argv[argc] = 0;
	while (1) {
		// gobble whitespace
		while (*buf && strchr(WHITESPACE, *buf))
			*buf++ = 0;
f0100a3d:	c6 03 00             	movb   $0x0,(%ebx)
f0100a40:	89 f7                	mov    %esi,%edi
f0100a42:	8d 5b 01             	lea    0x1(%ebx),%ebx
f0100a45:	89 fe                	mov    %edi,%esi
	// Parse the command buffer into whitespace-separated arguments
	argc = 0;
	argv[argc] = 0;
	while (1) {
		// gobble whitespace
		while (*buf && strchr(WHITESPACE, *buf))
f0100a47:	0f b6 03             	movzbl (%ebx),%eax
f0100a4a:	84 c0                	test   %al,%al
f0100a4c:	74 70                	je     f0100abe <monitor+0xe6>
f0100a4e:	0f be c0             	movsbl %al,%eax
f0100a51:	89 44 24 04          	mov    %eax,0x4(%esp)
f0100a55:	c7 04 24 06 70 10 f0 	movl   $0xf0107006,(%esp)
f0100a5c:	e8 48 54 00 00       	call   f0105ea9 <strchr>
f0100a61:	85 c0                	test   %eax,%eax
f0100a63:	75 d8                	jne    f0100a3d <monitor+0x65>
			*buf++ = 0;
		if (*buf == 0)
f0100a65:	80 3b 00             	cmpb   $0x0,(%ebx)
f0100a68:	74 54                	je     f0100abe <monitor+0xe6>
			break;

		// save and scan past next arg
		if (argc == MAXARGS-1) {
f0100a6a:	83 fe 0f             	cmp    $0xf,%esi
f0100a6d:	8d 76 00             	lea    0x0(%esi),%esi
f0100a70:	75 19                	jne    f0100a8b <monitor+0xb3>
			cprintf("Too many arguments (max %d)\n", MAXARGS);
f0100a72:	c7 44 24 04 10 00 00 	movl   $0x10,0x4(%esp)
f0100a79:	00 
f0100a7a:	c7 04 24 0b 70 10 f0 	movl   $0xf010700b,(%esp)
f0100a81:	e8 df 36 00 00       	call   f0104165 <cprintf>
f0100a86:	e9 9d 00 00 00       	jmp    f0100b28 <monitor+0x150>
			return 0;
		}
		argv[argc++] = buf;
f0100a8b:	8d 7e 01             	lea    0x1(%esi),%edi
f0100a8e:	89 5c b5 a8          	mov    %ebx,-0x58(%ebp,%esi,4)
		while (*buf && !strchr(WHITESPACE, *buf))
f0100a92:	0f b6 03             	movzbl (%ebx),%eax
f0100a95:	84 c0                	test   %al,%al
f0100a97:	75 0c                	jne    f0100aa5 <monitor+0xcd>
f0100a99:	eb aa                	jmp    f0100a45 <monitor+0x6d>
			buf++;
f0100a9b:	83 c3 01             	add    $0x1,%ebx
		if (argc == MAXARGS-1) {
			cprintf("Too many arguments (max %d)\n", MAXARGS);
			return 0;
		}
		argv[argc++] = buf;
		while (*buf && !strchr(WHITESPACE, *buf))
f0100a9e:	0f b6 03             	movzbl (%ebx),%eax
f0100aa1:	84 c0                	test   %al,%al
f0100aa3:	74 a0                	je     f0100a45 <monitor+0x6d>
f0100aa5:	0f be c0             	movsbl %al,%eax
f0100aa8:	89 44 24 04          	mov    %eax,0x4(%esp)
f0100aac:	c7 04 24 06 70 10 f0 	movl   $0xf0107006,(%esp)
f0100ab3:	e8 f1 53 00 00       	call   f0105ea9 <strchr>
f0100ab8:	85 c0                	test   %eax,%eax
f0100aba:	74 df                	je     f0100a9b <monitor+0xc3>
f0100abc:	eb 87                	jmp    f0100a45 <monitor+0x6d>
			buf++;
	}
	argv[argc] = 0;
f0100abe:	c7 44 b5 a8 00 00 00 	movl   $0x0,-0x58(%ebp,%esi,4)
f0100ac5:	00 

	// Lookup and invoke the command
	if (argc == 0)
f0100ac6:	85 f6                	test   %esi,%esi
f0100ac8:	74 5e                	je     f0100b28 <monitor+0x150>
f0100aca:	bb 00 00 00 00       	mov    $0x0,%ebx
f0100acf:	8d 04 5b             	lea    (%ebx,%ebx,2),%eax
		return 0;
	for (i = 0; i < NCOMMANDS; i++) {
		if (strcmp(argv[0], commands[i].name) == 0)
f0100ad2:	8b 04 85 60 72 10 f0 	mov    -0xfef8da0(,%eax,4),%eax
f0100ad9:	89 44 24 04          	mov    %eax,0x4(%esp)
f0100add:	8b 45 a8             	mov    -0x58(%ebp),%eax
f0100ae0:	89 04 24             	mov    %eax,(%esp)
f0100ae3:	e8 3d 53 00 00       	call   f0105e25 <strcmp>
f0100ae8:	85 c0                	test   %eax,%eax
f0100aea:	75 21                	jne    f0100b0d <monitor+0x135>
			return commands[i].func(argc, argv, tf);
f0100aec:	8d 04 5b             	lea    (%ebx,%ebx,2),%eax
f0100aef:	8b 55 08             	mov    0x8(%ebp),%edx
f0100af2:	89 54 24 08          	mov    %edx,0x8(%esp)
f0100af6:	8d 4d a8             	lea    -0x58(%ebp),%ecx
f0100af9:	89 4c 24 04          	mov    %ecx,0x4(%esp)
f0100afd:	89 34 24             	mov    %esi,(%esp)
f0100b00:	ff 14 85 68 72 10 f0 	call   *-0xfef8d98(,%eax,4)

	__exit = 0;
	while (!__exit) {
		buf = readline("K> ");
		if (buf != NULL)
			if (runcmd(buf, tf) < 0)
f0100b07:	85 c0                	test   %eax,%eax
f0100b09:	78 2a                	js     f0100b35 <monitor+0x15d>
f0100b0b:	eb 1b                	jmp    f0100b28 <monitor+0x150>
	argv[argc] = 0;

	// Lookup and invoke the command
	if (argc == 0)
		return 0;
	for (i = 0; i < NCOMMANDS; i++) {
f0100b0d:	83 c3 01             	add    $0x1,%ebx
f0100b10:	83 fb 04             	cmp    $0x4,%ebx
f0100b13:	75 ba                	jne    f0100acf <monitor+0xf7>
		if (strcmp(argv[0], commands[i].name) == 0)
			return commands[i].func(argc, argv, tf);
	}
	cprintf("Unknown command '%s'\n", argv[0]);
f0100b15:	8b 45 a8             	mov    -0x58(%ebp),%eax
f0100b18:	89 44 24 04          	mov    %eax,0x4(%esp)
f0100b1c:	c7 04 24 28 70 10 f0 	movl   $0xf0107028,(%esp)
f0100b23:	e8 3d 36 00 00       	call   f0104165 <cprintf>

	if (tf != NULL)
		print_trapframe(tf);

	__exit = 0;
	while (!__exit) {
f0100b28:	83 3d 38 32 20 f0 00 	cmpl   $0x0,0xf0203238
f0100b2f:	0f 84 e4 fe ff ff    	je     f0100a19 <monitor+0x41>
		buf = readline("K> ");
		if (buf != NULL)
			if (runcmd(buf, tf) < 0)
				break;
	}
}
f0100b35:	83 c4 5c             	add    $0x5c,%esp
f0100b38:	5b                   	pop    %ebx
f0100b39:	5e                   	pop    %esi
f0100b3a:	5f                   	pop    %edi
f0100b3b:	5d                   	pop    %ebp
f0100b3c:	c3                   	ret    
f0100b3d:	66 90                	xchg   %ax,%ax
f0100b3f:	90                   	nop

f0100b40 <check_va2pa>:
static physaddr_t
check_va2pa(pde_t *pgdir, uintptr_t va)
{
	pte_t *p;

	pgdir = &pgdir[PDX(va)];
f0100b40:	89 d1                	mov    %edx,%ecx
f0100b42:	c1 e9 16             	shr    $0x16,%ecx
	if (!(*pgdir & PTE_P))
f0100b45:	8b 04 88             	mov    (%eax,%ecx,4),%eax
f0100b48:	a8 01                	test   $0x1,%al
f0100b4a:	74 5d                	je     f0100ba9 <check_va2pa+0x69>
		return ~0;
	p = (pte_t*) KADDR(PTE_ADDR(*pgdir));
f0100b4c:	25 00 f0 ff ff       	and    $0xfffff000,%eax
#define KADDR(pa) _kaddr(__FILE__, __LINE__, pa)

static inline void*
_kaddr(const char *file, int line, physaddr_t pa)
{
	if (PGNUM(pa) >= npages)
f0100b51:	89 c1                	mov    %eax,%ecx
f0100b53:	c1 e9 0c             	shr    $0xc,%ecx
f0100b56:	3b 0d 88 3e 20 f0    	cmp    0xf0203e88,%ecx
f0100b5c:	72 26                	jb     f0100b84 <check_va2pa+0x44>
// this functionality for us!  We define our own version to help check
// the check_kern_pgdir() function; it shouldn't be used elsewhere.

static physaddr_t
check_va2pa(pde_t *pgdir, uintptr_t va)
{
f0100b5e:	55                   	push   %ebp
f0100b5f:	89 e5                	mov    %esp,%ebp
f0100b61:	83 ec 18             	sub    $0x18,%esp
		_panic(file, line, "KADDR called with invalid pa %08lx", pa);
f0100b64:	89 44 24 0c          	mov    %eax,0xc(%esp)
f0100b68:	c7 44 24 08 e4 6c 10 	movl   $0xf0106ce4,0x8(%esp)
f0100b6f:	f0 
f0100b70:	c7 44 24 04 d2 03 00 	movl   $0x3d2,0x4(%esp)
f0100b77:	00 
f0100b78:	c7 04 24 ad 7b 10 f0 	movl   $0xf0107bad,(%esp)
f0100b7f:	e8 bc f4 ff ff       	call   f0100040 <_panic>

	pgdir = &pgdir[PDX(va)];
	if (!(*pgdir & PTE_P))
		return ~0;
	p = (pte_t*) KADDR(PTE_ADDR(*pgdir));
	if (!(p[PTX(va)] & PTE_P))
f0100b84:	c1 ea 0c             	shr    $0xc,%edx
f0100b87:	81 e2 ff 03 00 00    	and    $0x3ff,%edx
f0100b8d:	8b 84 90 00 00 00 f0 	mov    -0x10000000(%eax,%edx,4),%eax
f0100b94:	89 c2                	mov    %eax,%edx
f0100b96:	83 e2 01             	and    $0x1,%edx
		return ~0;
	return PTE_ADDR(p[PTX(va)]);
f0100b99:	25 00 f0 ff ff       	and    $0xfffff000,%eax
f0100b9e:	85 d2                	test   %edx,%edx
f0100ba0:	ba ff ff ff ff       	mov    $0xffffffff,%edx
f0100ba5:	0f 44 c2             	cmove  %edx,%eax
f0100ba8:	c3                   	ret    
{
	pte_t *p;

	pgdir = &pgdir[PDX(va)];
	if (!(*pgdir & PTE_P))
		return ~0;
f0100ba9:	b8 ff ff ff ff       	mov    $0xffffffff,%eax
	p = (pte_t*) KADDR(PTE_ADDR(*pgdir));
	if (!(p[PTX(va)] & PTE_P))
		return ~0;
	return PTE_ADDR(p[PTX(va)]);
}
f0100bae:	c3                   	ret    

f0100baf <boot_alloc>:
	// Initialize nextfree if this is the first time.
	// 'end' is a magic symbol automatically generated by the linker,
	// which points to the end of the kernel's bss segment:
	// the first virtual address that the linker did *not* assign
	// to any kernel code or global variables.
	if (!nextfree) {
f0100baf:	83 3d 3c 32 20 f0 00 	cmpl   $0x0,0xf020323c
f0100bb6:	75 11                	jne    f0100bc9 <boot_alloc+0x1a>
		extern char end[];
		nextfree = ROUNDUP((char *) end, PGSIZE);
f0100bb8:	ba 07 60 24 f0       	mov    $0xf0246007,%edx
f0100bbd:	81 e2 00 f0 ff ff    	and    $0xfffff000,%edx
f0100bc3:	89 15 3c 32 20 f0    	mov    %edx,0xf020323c
	// Allocate a chunk large enough to hold 'n' bytes, then update
	// nextfree.  Make sure nextfree is kept aligned
	// to a multiple of PGSIZE.
	//
	// LAB 2: Your code here.
	result = nextfree;
f0100bc9:	8b 0d 3c 32 20 f0    	mov    0xf020323c,%ecx
	nextfree += ROUNDUP(n, PGSIZE);
f0100bcf:	8d 90 ff 0f 00 00    	lea    0xfff(%eax),%edx
f0100bd5:	81 e2 00 f0 ff ff    	and    $0xfffff000,%edx
f0100bdb:	01 ca                	add    %ecx,%edx
f0100bdd:	89 15 3c 32 20 f0    	mov    %edx,0xf020323c
#define PADDR(kva) _paddr(__FILE__, __LINE__, kva)

static inline physaddr_t
_paddr(const char *file, int line, void *kva)
{
	if ((uint32_t)kva < KERNBASE)
f0100be3:	81 fa ff ff ff ef    	cmp    $0xefffffff,%edx
f0100be9:	77 26                	ja     f0100c11 <boot_alloc+0x62>
// If we're out of memory, boot_alloc should panic.
// This function may ONLY be used during initialization,
// before the page_free_list list has been set up.
static void *
boot_alloc(uint32_t n)
{
f0100beb:	55                   	push   %ebp
f0100bec:	89 e5                	mov    %esp,%ebp
f0100bee:	83 ec 18             	sub    $0x18,%esp
		_panic(file, line, "PADDR called with invalid kva %08lx", kva);
f0100bf1:	89 54 24 0c          	mov    %edx,0xc(%esp)
f0100bf5:	c7 44 24 08 08 6d 10 	movl   $0xf0106d08,0x8(%esp)
f0100bfc:	f0 
f0100bfd:	c7 44 24 04 6c 00 00 	movl   $0x6c,0x4(%esp)
f0100c04:	00 
f0100c05:	c7 04 24 ad 7b 10 f0 	movl   $0xf0107bad,(%esp)
f0100c0c:	e8 2f f4 ff ff       	call   f0100040 <_panic>
	//
	// LAB 2: Your code here.
	result = nextfree;
	nextfree += ROUNDUP(n, PGSIZE);
	// if out of memory
	if (PADDR(nextfree) > npages * PGSIZE) {
f0100c11:	a1 88 3e 20 f0       	mov    0xf0203e88,%eax
f0100c16:	c1 e0 0c             	shl    $0xc,%eax
	return (physaddr_t)kva - KERNBASE;
f0100c19:	81 c2 00 00 00 10    	add    $0x10000000,%edx
		return 0;
f0100c1f:	39 c2                	cmp    %eax,%edx
f0100c21:	b8 00 00 00 00       	mov    $0x0,%eax
f0100c26:	0f 46 c1             	cmovbe %ecx,%eax
	}
	return result;
}
f0100c29:	c3                   	ret    

f0100c2a <check_page_free_list>:
//
// Check that the pages on the page_free_list are reasonable.
//
static void
check_page_free_list(bool only_low_memory)
{
f0100c2a:	55                   	push   %ebp
f0100c2b:	89 e5                	mov    %esp,%ebp
f0100c2d:	57                   	push   %edi
f0100c2e:	56                   	push   %esi
f0100c2f:	53                   	push   %ebx
f0100c30:	83 ec 4c             	sub    $0x4c,%esp
f0100c33:	89 45 c0             	mov    %eax,-0x40(%ebp)
	struct PageInfo *pp;
	unsigned pdx_limit = only_low_memory ? 1 : NPDENTRIES;
f0100c36:	84 c0                	test   %al,%al
f0100c38:	0f 85 83 03 00 00    	jne    f0100fc1 <check_page_free_list+0x397>
f0100c3e:	e9 92 03 00 00       	jmp    f0100fd5 <check_page_free_list+0x3ab>
	int nfree_basemem = 0, nfree_extmem = 0;
	char *first_free_page;

	if (!page_free_list)
		panic("'page_free_list' is a null pointer!");
f0100c43:	c7 44 24 08 90 72 10 	movl   $0xf0107290,0x8(%esp)
f0100c4a:	f0 
f0100c4b:	c7 44 24 04 00 03 00 	movl   $0x300,0x4(%esp)
f0100c52:	00 
f0100c53:	c7 04 24 ad 7b 10 f0 	movl   $0xf0107bad,(%esp)
f0100c5a:	e8 e1 f3 ff ff       	call   f0100040 <_panic>

	if (only_low_memory) {
		// Move pages with lower addresses first in the free
		// list, since entry_pgdir does not map all pages.
		struct PageInfo *pp1, *pp2;
		struct PageInfo **tp[2] = { &pp1, &pp2 };
f0100c5f:	8d 55 d8             	lea    -0x28(%ebp),%edx
f0100c62:	89 55 e0             	mov    %edx,-0x20(%ebp)
f0100c65:	8d 55 dc             	lea    -0x24(%ebp),%edx
f0100c68:	89 55 e4             	mov    %edx,-0x1c(%ebp)
void	user_mem_assert(struct Env *env, const void *va, size_t len, int perm);

static inline physaddr_t
page2pa(struct PageInfo *pp)
{
	return (pp - pages) << PGSHIFT;
f0100c6b:	89 c2                	mov    %eax,%edx
f0100c6d:	2b 15 90 3e 20 f0    	sub    0xf0203e90,%edx
		for (pp = page_free_list; pp; pp = pp->pp_link) {
			int pagetype = PDX(page2pa(pp)) >= pdx_limit;
f0100c73:	f7 c2 00 e0 7f 00    	test   $0x7fe000,%edx
f0100c79:	0f 95 c2             	setne  %dl
f0100c7c:	0f b6 d2             	movzbl %dl,%edx
			*tp[pagetype] = pp;
f0100c7f:	8b 4c 95 e0          	mov    -0x20(%ebp,%edx,4),%ecx
f0100c83:	89 01                	mov    %eax,(%ecx)
			tp[pagetype] = &pp->pp_link;
f0100c85:	89 44 95 e0          	mov    %eax,-0x20(%ebp,%edx,4)
	if (only_low_memory) {
		// Move pages with lower addresses first in the free
		// list, since entry_pgdir does not map all pages.
		struct PageInfo *pp1, *pp2;
		struct PageInfo **tp[2] = { &pp1, &pp2 };
		for (pp = page_free_list; pp; pp = pp->pp_link) {
f0100c89:	8b 00                	mov    (%eax),%eax
f0100c8b:	85 c0                	test   %eax,%eax
f0100c8d:	75 dc                	jne    f0100c6b <check_page_free_list+0x41>
			int pagetype = PDX(page2pa(pp)) >= pdx_limit;
			*tp[pagetype] = pp;
			tp[pagetype] = &pp->pp_link;
		}
		*tp[1] = 0;
f0100c8f:	8b 45 e4             	mov    -0x1c(%ebp),%eax
f0100c92:	c7 00 00 00 00 00    	movl   $0x0,(%eax)
		*tp[0] = pp2;
f0100c98:	8b 45 e0             	mov    -0x20(%ebp),%eax
f0100c9b:	8b 55 dc             	mov    -0x24(%ebp),%edx
f0100c9e:	89 10                	mov    %edx,(%eax)
		page_free_list = pp1;
f0100ca0:	8b 45 d8             	mov    -0x28(%ebp),%eax
f0100ca3:	a3 44 32 20 f0       	mov    %eax,0xf0203244
	}

	// if there's a page that shouldn't be on the free list,
	// try to make sure it eventually causes trouble.
	for (pp = page_free_list; pp; pp = pp->pp_link)
f0100ca8:	89 c3                	mov    %eax,%ebx
f0100caa:	85 c0                	test   %eax,%eax
f0100cac:	74 6c                	je     f0100d1a <check_page_free_list+0xf0>
//
static void
check_page_free_list(bool only_low_memory)
{
	struct PageInfo *pp;
	unsigned pdx_limit = only_low_memory ? 1 : NPDENTRIES;
f0100cae:	be 01 00 00 00       	mov    $0x1,%esi
f0100cb3:	89 d8                	mov    %ebx,%eax
f0100cb5:	2b 05 90 3e 20 f0    	sub    0xf0203e90,%eax
f0100cbb:	c1 f8 03             	sar    $0x3,%eax
f0100cbe:	c1 e0 0c             	shl    $0xc,%eax
	}

	// if there's a page that shouldn't be on the free list,
	// try to make sure it eventually causes trouble.
	for (pp = page_free_list; pp; pp = pp->pp_link)
		if (PDX(page2pa(pp)) < pdx_limit)
f0100cc1:	89 c2                	mov    %eax,%edx
f0100cc3:	c1 ea 16             	shr    $0x16,%edx
f0100cc6:	39 f2                	cmp    %esi,%edx
f0100cc8:	73 4a                	jae    f0100d14 <check_page_free_list+0xea>
#define KADDR(pa) _kaddr(__FILE__, __LINE__, pa)

static inline void*
_kaddr(const char *file, int line, physaddr_t pa)
{
	if (PGNUM(pa) >= npages)
f0100cca:	89 c2                	mov    %eax,%edx
f0100ccc:	c1 ea 0c             	shr    $0xc,%edx
f0100ccf:	3b 15 88 3e 20 f0    	cmp    0xf0203e88,%edx
f0100cd5:	72 20                	jb     f0100cf7 <check_page_free_list+0xcd>
		_panic(file, line, "KADDR called with invalid pa %08lx", pa);
f0100cd7:	89 44 24 0c          	mov    %eax,0xc(%esp)
f0100cdb:	c7 44 24 08 e4 6c 10 	movl   $0xf0106ce4,0x8(%esp)
f0100ce2:	f0 
f0100ce3:	c7 44 24 04 58 00 00 	movl   $0x58,0x4(%esp)
f0100cea:	00 
f0100ceb:	c7 04 24 b9 7b 10 f0 	movl   $0xf0107bb9,(%esp)
f0100cf2:	e8 49 f3 ff ff       	call   f0100040 <_panic>
			memset(page2kva(pp), 0x97, 128);
f0100cf7:	c7 44 24 08 80 00 00 	movl   $0x80,0x8(%esp)
f0100cfe:	00 
f0100cff:	c7 44 24 04 97 00 00 	movl   $0x97,0x4(%esp)
f0100d06:	00 
	return (void *)(pa + KERNBASE);
f0100d07:	2d 00 00 00 10       	sub    $0x10000000,%eax
f0100d0c:	89 04 24             	mov    %eax,(%esp)
f0100d0f:	e8 f5 51 00 00       	call   f0105f09 <memset>
		page_free_list = pp1;
	}

	// if there's a page that shouldn't be on the free list,
	// try to make sure it eventually causes trouble.
	for (pp = page_free_list; pp; pp = pp->pp_link)
f0100d14:	8b 1b                	mov    (%ebx),%ebx
f0100d16:	85 db                	test   %ebx,%ebx
f0100d18:	75 99                	jne    f0100cb3 <check_page_free_list+0x89>
		if (PDX(page2pa(pp)) < pdx_limit)
			memset(page2kva(pp), 0x97, 128);

	first_free_page = (char *) boot_alloc(0);
f0100d1a:	b8 00 00 00 00       	mov    $0x0,%eax
f0100d1f:	e8 8b fe ff ff       	call   f0100baf <boot_alloc>
f0100d24:	89 45 c8             	mov    %eax,-0x38(%ebp)
	for (pp = page_free_list; pp; pp = pp->pp_link) {
f0100d27:	8b 15 44 32 20 f0    	mov    0xf0203244,%edx
f0100d2d:	85 d2                	test   %edx,%edx
f0100d2f:	0f 84 2b 02 00 00    	je     f0100f60 <check_page_free_list+0x336>
		// check that we didn't corrupt the free list itself
		assert(pp >= pages);
f0100d35:	8b 3d 90 3e 20 f0    	mov    0xf0203e90,%edi
f0100d3b:	39 fa                	cmp    %edi,%edx
f0100d3d:	72 43                	jb     f0100d82 <check_page_free_list+0x158>
		assert(pp < pages + npages);
f0100d3f:	a1 88 3e 20 f0       	mov    0xf0203e88,%eax
f0100d44:	89 45 c4             	mov    %eax,-0x3c(%ebp)
f0100d47:	8d 04 c7             	lea    (%edi,%eax,8),%eax
f0100d4a:	89 45 d4             	mov    %eax,-0x2c(%ebp)
f0100d4d:	39 c2                	cmp    %eax,%edx
f0100d4f:	73 5a                	jae    f0100dab <check_page_free_list+0x181>
		assert(((char *) pp - (char *) pages) % sizeof(*pp) == 0);
f0100d51:	89 7d d0             	mov    %edi,-0x30(%ebp)
f0100d54:	89 d0                	mov    %edx,%eax
f0100d56:	29 f8                	sub    %edi,%eax
f0100d58:	a8 07                	test   $0x7,%al
f0100d5a:	75 7c                	jne    f0100dd8 <check_page_free_list+0x1ae>
void	user_mem_assert(struct Env *env, const void *va, size_t len, int perm);

static inline physaddr_t
page2pa(struct PageInfo *pp)
{
	return (pp - pages) << PGSHIFT;
f0100d5c:	c1 f8 03             	sar    $0x3,%eax
f0100d5f:	c1 e0 0c             	shl    $0xc,%eax

		// check a few pages that shouldn't be on the free list
		assert(page2pa(pp) != 0);
f0100d62:	85 c0                	test   %eax,%eax
f0100d64:	0f 84 9c 00 00 00    	je     f0100e06 <check_page_free_list+0x1dc>
		assert(page2pa(pp) != IOPHYSMEM);
f0100d6a:	3d 00 00 0a 00       	cmp    $0xa0000,%eax
f0100d6f:	0f 85 e0 00 00 00    	jne    f0100e55 <check_page_free_list+0x22b>
f0100d75:	e9 b7 00 00 00       	jmp    f0100e31 <check_page_free_list+0x207>
			memset(page2kva(pp), 0x97, 128);

	first_free_page = (char *) boot_alloc(0);
	for (pp = page_free_list; pp; pp = pp->pp_link) {
		// check that we didn't corrupt the free list itself
		assert(pp >= pages);
f0100d7a:	39 d7                	cmp    %edx,%edi
f0100d7c:	8d 74 26 00          	lea    0x0(%esi,%eiz,1),%esi
f0100d80:	76 24                	jbe    f0100da6 <check_page_free_list+0x17c>
f0100d82:	c7 44 24 0c c7 7b 10 	movl   $0xf0107bc7,0xc(%esp)
f0100d89:	f0 
f0100d8a:	c7 44 24 08 d3 7b 10 	movl   $0xf0107bd3,0x8(%esp)
f0100d91:	f0 
f0100d92:	c7 44 24 04 1a 03 00 	movl   $0x31a,0x4(%esp)
f0100d99:	00 
f0100d9a:	c7 04 24 ad 7b 10 f0 	movl   $0xf0107bad,(%esp)
f0100da1:	e8 9a f2 ff ff       	call   f0100040 <_panic>
		assert(pp < pages + npages);
f0100da6:	3b 55 d4             	cmp    -0x2c(%ebp),%edx
f0100da9:	72 24                	jb     f0100dcf <check_page_free_list+0x1a5>
f0100dab:	c7 44 24 0c e8 7b 10 	movl   $0xf0107be8,0xc(%esp)
f0100db2:	f0 
f0100db3:	c7 44 24 08 d3 7b 10 	movl   $0xf0107bd3,0x8(%esp)
f0100dba:	f0 
f0100dbb:	c7 44 24 04 1b 03 00 	movl   $0x31b,0x4(%esp)
f0100dc2:	00 
f0100dc3:	c7 04 24 ad 7b 10 f0 	movl   $0xf0107bad,(%esp)
f0100dca:	e8 71 f2 ff ff       	call   f0100040 <_panic>
		assert(((char *) pp - (char *) pages) % sizeof(*pp) == 0);
f0100dcf:	89 d0                	mov    %edx,%eax
f0100dd1:	2b 45 d0             	sub    -0x30(%ebp),%eax
f0100dd4:	a8 07                	test   $0x7,%al
f0100dd6:	74 24                	je     f0100dfc <check_page_free_list+0x1d2>
f0100dd8:	c7 44 24 0c b4 72 10 	movl   $0xf01072b4,0xc(%esp)
f0100ddf:	f0 
f0100de0:	c7 44 24 08 d3 7b 10 	movl   $0xf0107bd3,0x8(%esp)
f0100de7:	f0 
f0100de8:	c7 44 24 04 1c 03 00 	movl   $0x31c,0x4(%esp)
f0100def:	00 
f0100df0:	c7 04 24 ad 7b 10 f0 	movl   $0xf0107bad,(%esp)
f0100df7:	e8 44 f2 ff ff       	call   f0100040 <_panic>
f0100dfc:	c1 f8 03             	sar    $0x3,%eax
f0100dff:	c1 e0 0c             	shl    $0xc,%eax

		// check a few pages that shouldn't be on the free list
		assert(page2pa(pp) != 0);
f0100e02:	85 c0                	test   %eax,%eax
f0100e04:	75 24                	jne    f0100e2a <check_page_free_list+0x200>
f0100e06:	c7 44 24 0c fc 7b 10 	movl   $0xf0107bfc,0xc(%esp)
f0100e0d:	f0 
f0100e0e:	c7 44 24 08 d3 7b 10 	movl   $0xf0107bd3,0x8(%esp)
f0100e15:	f0 
f0100e16:	c7 44 24 04 1f 03 00 	movl   $0x31f,0x4(%esp)
f0100e1d:	00 
f0100e1e:	c7 04 24 ad 7b 10 f0 	movl   $0xf0107bad,(%esp)
f0100e25:	e8 16 f2 ff ff       	call   f0100040 <_panic>
		assert(page2pa(pp) != IOPHYSMEM);
f0100e2a:	3d 00 00 0a 00       	cmp    $0xa0000,%eax
f0100e2f:	75 31                	jne    f0100e62 <check_page_free_list+0x238>
f0100e31:	c7 44 24 0c 0d 7c 10 	movl   $0xf0107c0d,0xc(%esp)
f0100e38:	f0 
f0100e39:	c7 44 24 08 d3 7b 10 	movl   $0xf0107bd3,0x8(%esp)
f0100e40:	f0 
f0100e41:	c7 44 24 04 20 03 00 	movl   $0x320,0x4(%esp)
f0100e48:	00 
f0100e49:	c7 04 24 ad 7b 10 f0 	movl   $0xf0107bad,(%esp)
f0100e50:	e8 eb f1 ff ff       	call   f0100040 <_panic>
static void
check_page_free_list(bool only_low_memory)
{
	struct PageInfo *pp;
	unsigned pdx_limit = only_low_memory ? 1 : NPDENTRIES;
	int nfree_basemem = 0, nfree_extmem = 0;
f0100e55:	bb 00 00 00 00       	mov    $0x0,%ebx
f0100e5a:	be 00 00 00 00       	mov    $0x0,%esi
f0100e5f:	89 5d cc             	mov    %ebx,-0x34(%ebp)
		assert(((char *) pp - (char *) pages) % sizeof(*pp) == 0);

		// check a few pages that shouldn't be on the free list
		assert(page2pa(pp) != 0);
		assert(page2pa(pp) != IOPHYSMEM);
		assert(page2pa(pp) != EXTPHYSMEM - PGSIZE);
f0100e62:	3d 00 f0 0f 00       	cmp    $0xff000,%eax
f0100e67:	75 24                	jne    f0100e8d <check_page_free_list+0x263>
f0100e69:	c7 44 24 0c e8 72 10 	movl   $0xf01072e8,0xc(%esp)
f0100e70:	f0 
f0100e71:	c7 44 24 08 d3 7b 10 	movl   $0xf0107bd3,0x8(%esp)
f0100e78:	f0 
f0100e79:	c7 44 24 04 21 03 00 	movl   $0x321,0x4(%esp)
f0100e80:	00 
f0100e81:	c7 04 24 ad 7b 10 f0 	movl   $0xf0107bad,(%esp)
f0100e88:	e8 b3 f1 ff ff       	call   f0100040 <_panic>
		assert(page2pa(pp) != EXTPHYSMEM);
f0100e8d:	3d 00 00 10 00       	cmp    $0x100000,%eax
f0100e92:	75 24                	jne    f0100eb8 <check_page_free_list+0x28e>
f0100e94:	c7 44 24 0c 26 7c 10 	movl   $0xf0107c26,0xc(%esp)
f0100e9b:	f0 
f0100e9c:	c7 44 24 08 d3 7b 10 	movl   $0xf0107bd3,0x8(%esp)
f0100ea3:	f0 
f0100ea4:	c7 44 24 04 22 03 00 	movl   $0x322,0x4(%esp)
f0100eab:	00 
f0100eac:	c7 04 24 ad 7b 10 f0 	movl   $0xf0107bad,(%esp)
f0100eb3:	e8 88 f1 ff ff       	call   f0100040 <_panic>
f0100eb8:	89 c1                	mov    %eax,%ecx
		assert(page2pa(pp) < EXTPHYSMEM || (char *) page2kva(pp) >= first_free_page);
f0100eba:	3d ff ff 0f 00       	cmp    $0xfffff,%eax
f0100ebf:	0f 86 20 01 00 00    	jbe    f0100fe5 <check_page_free_list+0x3bb>
#define KADDR(pa) _kaddr(__FILE__, __LINE__, pa)

static inline void*
_kaddr(const char *file, int line, physaddr_t pa)
{
	if (PGNUM(pa) >= npages)
f0100ec5:	89 c3                	mov    %eax,%ebx
f0100ec7:	c1 eb 0c             	shr    $0xc,%ebx
f0100eca:	39 5d c4             	cmp    %ebx,-0x3c(%ebp)
f0100ecd:	77 20                	ja     f0100eef <check_page_free_list+0x2c5>
		_panic(file, line, "KADDR called with invalid pa %08lx", pa);
f0100ecf:	89 44 24 0c          	mov    %eax,0xc(%esp)
f0100ed3:	c7 44 24 08 e4 6c 10 	movl   $0xf0106ce4,0x8(%esp)
f0100eda:	f0 
f0100edb:	c7 44 24 04 58 00 00 	movl   $0x58,0x4(%esp)
f0100ee2:	00 
f0100ee3:	c7 04 24 b9 7b 10 f0 	movl   $0xf0107bb9,(%esp)
f0100eea:	e8 51 f1 ff ff       	call   f0100040 <_panic>
	return (void *)(pa + KERNBASE);
f0100eef:	81 e9 00 00 00 10    	sub    $0x10000000,%ecx
f0100ef5:	39 4d c8             	cmp    %ecx,-0x38(%ebp)
f0100ef8:	0f 86 f7 00 00 00    	jbe    f0100ff5 <check_page_free_list+0x3cb>
f0100efe:	c7 44 24 0c 0c 73 10 	movl   $0xf010730c,0xc(%esp)
f0100f05:	f0 
f0100f06:	c7 44 24 08 d3 7b 10 	movl   $0xf0107bd3,0x8(%esp)
f0100f0d:	f0 
f0100f0e:	c7 44 24 04 23 03 00 	movl   $0x323,0x4(%esp)
f0100f15:	00 
f0100f16:	c7 04 24 ad 7b 10 f0 	movl   $0xf0107bad,(%esp)
f0100f1d:	e8 1e f1 ff ff       	call   f0100040 <_panic>
		// (new test for lab 4)
		assert(page2pa(pp) != MPENTRY_PADDR);
f0100f22:	c7 44 24 0c 40 7c 10 	movl   $0xf0107c40,0xc(%esp)
f0100f29:	f0 
f0100f2a:	c7 44 24 08 d3 7b 10 	movl   $0xf0107bd3,0x8(%esp)
f0100f31:	f0 
f0100f32:	c7 44 24 04 25 03 00 	movl   $0x325,0x4(%esp)
f0100f39:	00 
f0100f3a:	c7 04 24 ad 7b 10 f0 	movl   $0xf0107bad,(%esp)
f0100f41:	e8 fa f0 ff ff       	call   f0100040 <_panic>

		if (page2pa(pp) < EXTPHYSMEM) {
			++nfree_basemem;
f0100f46:	83 c6 01             	add    $0x1,%esi
f0100f49:	eb 04                	jmp    f0100f4f <check_page_free_list+0x325>
		} else {
			++nfree_extmem;
f0100f4b:	83 45 cc 01          	addl   $0x1,-0x34(%ebp)
	for (pp = page_free_list; pp; pp = pp->pp_link)
		if (PDX(page2pa(pp)) < pdx_limit)
			memset(page2kva(pp), 0x97, 128);

	first_free_page = (char *) boot_alloc(0);
	for (pp = page_free_list; pp; pp = pp->pp_link) {
f0100f4f:	8b 12                	mov    (%edx),%edx
f0100f51:	85 d2                	test   %edx,%edx
f0100f53:	0f 85 21 fe ff ff    	jne    f0100d7a <check_page_free_list+0x150>
f0100f59:	8b 5d cc             	mov    -0x34(%ebp),%ebx
		} else {
			++nfree_extmem;
		}
	}

	assert(nfree_basemem > 0);
f0100f5c:	85 f6                	test   %esi,%esi
f0100f5e:	7f 24                	jg     f0100f84 <check_page_free_list+0x35a>
f0100f60:	c7 44 24 0c 5d 7c 10 	movl   $0xf0107c5d,0xc(%esp)
f0100f67:	f0 
f0100f68:	c7 44 24 08 d3 7b 10 	movl   $0xf0107bd3,0x8(%esp)
f0100f6f:	f0 
f0100f70:	c7 44 24 04 2e 03 00 	movl   $0x32e,0x4(%esp)
f0100f77:	00 
f0100f78:	c7 04 24 ad 7b 10 f0 	movl   $0xf0107bad,(%esp)
f0100f7f:	e8 bc f0 ff ff       	call   f0100040 <_panic>
	assert(nfree_extmem > 0);
f0100f84:	85 db                	test   %ebx,%ebx
f0100f86:	7f 24                	jg     f0100fac <check_page_free_list+0x382>
f0100f88:	c7 44 24 0c 6f 7c 10 	movl   $0xf0107c6f,0xc(%esp)
f0100f8f:	f0 
f0100f90:	c7 44 24 08 d3 7b 10 	movl   $0xf0107bd3,0x8(%esp)
f0100f97:	f0 
f0100f98:	c7 44 24 04 2f 03 00 	movl   $0x32f,0x4(%esp)
f0100f9f:	00 
f0100fa0:	c7 04 24 ad 7b 10 f0 	movl   $0xf0107bad,(%esp)
f0100fa7:	e8 94 f0 ff ff       	call   f0100040 <_panic>
	cprintf("check_page_free_list(%d) ok\n", only_low_memory);
f0100fac:	8b 45 c0             	mov    -0x40(%ebp),%eax
f0100faf:	89 44 24 04          	mov    %eax,0x4(%esp)
f0100fb3:	c7 04 24 80 7c 10 f0 	movl   $0xf0107c80,(%esp)
f0100fba:	e8 a6 31 00 00       	call   f0104165 <cprintf>
f0100fbf:	eb 54                	jmp    f0101015 <check_page_free_list+0x3eb>
	struct PageInfo *pp;
	unsigned pdx_limit = only_low_memory ? 1 : NPDENTRIES;
	int nfree_basemem = 0, nfree_extmem = 0;
	char *first_free_page;

	if (!page_free_list)
f0100fc1:	a1 44 32 20 f0       	mov    0xf0203244,%eax
f0100fc6:	85 c0                	test   %eax,%eax
f0100fc8:	0f 85 91 fc ff ff    	jne    f0100c5f <check_page_free_list+0x35>
f0100fce:	66 90                	xchg   %ax,%ax
f0100fd0:	e9 6e fc ff ff       	jmp    f0100c43 <check_page_free_list+0x19>
f0100fd5:	83 3d 44 32 20 f0 00 	cmpl   $0x0,0xf0203244
f0100fdc:	75 27                	jne    f0101005 <check_page_free_list+0x3db>
f0100fde:	66 90                	xchg   %ax,%ax
f0100fe0:	e9 5e fc ff ff       	jmp    f0100c43 <check_page_free_list+0x19>
		assert(page2pa(pp) != IOPHYSMEM);
		assert(page2pa(pp) != EXTPHYSMEM - PGSIZE);
		assert(page2pa(pp) != EXTPHYSMEM);
		assert(page2pa(pp) < EXTPHYSMEM || (char *) page2kva(pp) >= first_free_page);
		// (new test for lab 4)
		assert(page2pa(pp) != MPENTRY_PADDR);
f0100fe5:	3d 00 70 00 00       	cmp    $0x7000,%eax
f0100fea:	0f 85 56 ff ff ff    	jne    f0100f46 <check_page_free_list+0x31c>
f0100ff0:	e9 2d ff ff ff       	jmp    f0100f22 <check_page_free_list+0x2f8>
f0100ff5:	3d 00 70 00 00       	cmp    $0x7000,%eax
f0100ffa:	0f 85 4b ff ff ff    	jne    f0100f4b <check_page_free_list+0x321>
f0101000:	e9 1d ff ff ff       	jmp    f0100f22 <check_page_free_list+0x2f8>
		page_free_list = pp1;
	}

	// if there's a page that shouldn't be on the free list,
	// try to make sure it eventually causes trouble.
	for (pp = page_free_list; pp; pp = pp->pp_link)
f0101005:	8b 1d 44 32 20 f0    	mov    0xf0203244,%ebx
//
static void
check_page_free_list(bool only_low_memory)
{
	struct PageInfo *pp;
	unsigned pdx_limit = only_low_memory ? 1 : NPDENTRIES;
f010100b:	be 00 04 00 00       	mov    $0x400,%esi
f0101010:	e9 9e fc ff ff       	jmp    f0100cb3 <check_page_free_list+0x89>
	}

	assert(nfree_basemem > 0);
	assert(nfree_extmem > 0);
	cprintf("check_page_free_list(%d) ok\n", only_low_memory);
}
f0101015:	83 c4 4c             	add    $0x4c,%esp
f0101018:	5b                   	pop    %ebx
f0101019:	5e                   	pop    %esi
f010101a:	5f                   	pop    %edi
f010101b:	5d                   	pop    %ebp
f010101c:	c3                   	ret    

f010101d <page_init>:
// allocator functions below to allocate and deallocate physical
// memory via the page_free_list.
//
void
page_init(void)
{
f010101d:	55                   	push   %ebp
f010101e:	89 e5                	mov    %esp,%ebp
f0101020:	57                   	push   %edi
f0101021:	56                   	push   %esi
f0101022:	53                   	push   %ebx
f0101023:	83 ec 2c             	sub    $0x2c,%esp
	// Change the code to reflect this.
	// NB: DO NOT actually touch the physical memory corresponding to
	// free pages!
	size_t i;
	// initially mark all are used
	for (i = 0; i < npages; ++i) {
f0101026:	8b 15 88 3e 20 f0    	mov    0xf0203e88,%edx
f010102c:	85 d2                	test   %edx,%edx
f010102e:	74 27                	je     f0101057 <page_init+0x3a>
f0101030:	b8 00 00 00 00       	mov    $0x0,%eax
		pages[i].pp_ref = 1;
f0101035:	8b 15 90 3e 20 f0    	mov    0xf0203e90,%edx
f010103b:	8d 14 c2             	lea    (%edx,%eax,8),%edx
f010103e:	66 c7 42 04 01 00    	movw   $0x1,0x4(%edx)
		pages[i].pp_link = 0;
f0101044:	c7 02 00 00 00 00    	movl   $0x0,(%edx)
	// Change the code to reflect this.
	// NB: DO NOT actually touch the physical memory corresponding to
	// free pages!
	size_t i;
	// initially mark all are used
	for (i = 0; i < npages; ++i) {
f010104a:	83 c0 01             	add    $0x1,%eax
f010104d:	8b 15 88 3e 20 f0    	mov    0xf0203e88,%edx
f0101053:	39 c2                	cmp    %eax,%edx
f0101055:	77 de                	ja     f0101035 <page_init+0x18>
		pages[i].pp_ref = 1;
		pages[i].pp_link = 0;
	}

	cprintf("npages = %d, npages_basemem = %d\n", npages, npages_basemem);
f0101057:	a1 48 32 20 f0       	mov    0xf0203248,%eax
f010105c:	89 44 24 08          	mov    %eax,0x8(%esp)
f0101060:	89 54 24 04          	mov    %edx,0x4(%esp)
f0101064:	c7 04 24 54 73 10 f0 	movl   $0xf0107354,(%esp)
f010106b:	e8 f5 30 00 00       	call   f0104165 <cprintf>
	// 2)
	// !!! physical page 0 is in used !!!
	// base memory is 640k => npages_basemen * PGSIZE = 640k
	// [PGSIZE, npages_basemen * PGSIZE) are free
	extern unsigned char mpentry_start[], mpentry_end[];
	uint32_t mpcode_sz = ROUNDUP(mpentry_end - mpentry_start, PGSIZE);
f0101070:	b8 b5 71 10 f0       	mov    $0xf01071b5,%eax
f0101075:	2d 3c 61 10 f0       	sub    $0xf010613c,%eax
	size_t mp_code_beg = MPENTRY_PADDR / PGSIZE;
	size_t mp_code_end = mp_code_beg + mpcode_sz / PGSIZE;
f010107a:	c1 e8 0c             	shr    $0xc,%eax
f010107d:	83 c0 07             	add    $0x7,%eax
f0101080:	89 45 e4             	mov    %eax,-0x1c(%ebp)
	cprintf("mp_code_beg = %d, mp_code_end = %d\n", mp_code_beg, mp_code_end);
f0101083:	89 44 24 08          	mov    %eax,0x8(%esp)
f0101087:	c7 44 24 04 07 00 00 	movl   $0x7,0x4(%esp)
f010108e:	00 
f010108f:	c7 04 24 78 73 10 f0 	movl   $0xf0107378,(%esp)
f0101096:	e8 ca 30 00 00       	call   f0104165 <cprintf>
	page_free_list = 0;
f010109b:	c7 05 44 32 20 f0 00 	movl   $0x0,0xf0203244
f01010a2:	00 00 00 
	struct PageInfo *prev = 0;
	for (i = 1; i < npages_basemem; ++i) {
f01010a5:	83 3d 48 32 20 f0 01 	cmpl   $0x1,0xf0203248
f01010ac:	0f 86 8d 00 00 00    	jbe    f010113f <page_init+0x122>
f01010b2:	be 00 00 00 00       	mov    $0x0,%esi
	uint32_t mpcode_sz = ROUNDUP(mpentry_end - mpentry_start, PGSIZE);
	size_t mp_code_beg = MPENTRY_PADDR / PGSIZE;
	size_t mp_code_end = mp_code_beg + mpcode_sz / PGSIZE;
	cprintf("mp_code_beg = %d, mp_code_end = %d\n", mp_code_beg, mp_code_end);
	page_free_list = 0;
	struct PageInfo *prev = 0;
f01010b7:	bf 00 00 00 00       	mov    $0x0,%edi
	for (i = 1; i < npages_basemem; ++i) {
f01010bc:	bb 01 00 00 00       	mov    $0x1,%ebx
		if (i >= mp_code_beg && i < mp_code_end) {
f01010c1:	3b 5d e4             	cmp    -0x1c(%ebp),%ebx
f01010c4:	73 17                	jae    f01010dd <page_init+0xc0>
f01010c6:	83 fb 06             	cmp    $0x6,%ebx
f01010c9:	76 12                	jbe    f01010dd <page_init+0xc0>
			cprintf("Skipp %d\n", i);
f01010cb:	89 5c 24 04          	mov    %ebx,0x4(%esp)
f01010cf:	c7 04 24 9d 7c 10 f0 	movl   $0xf0107c9d,(%esp)
f01010d6:	e8 8a 30 00 00       	call   f0104165 <cprintf>
			continue;	
f01010db:	eb 52                	jmp    f010112f <page_init+0x112>
f01010dd:	8d 04 dd 00 00 00 00 	lea    0x0(,%ebx,8),%eax
		}

		pages[i].pp_ref = 0;
f01010e4:	8b 15 90 3e 20 f0    	mov    0xf0203e90,%edx
f01010ea:	66 c7 44 02 04 00 00 	movw   $0x0,0x4(%edx,%eax,1)
		pages[i].pp_link = 0;
f01010f1:	c7 04 da 00 00 00 00 	movl   $0x0,(%edx,%ebx,8)
		if (!page_free_list) {
f01010f8:	83 3d 44 32 20 f0 00 	cmpl   $0x0,0xf0203244
f01010ff:	75 10                	jne    f0101111 <page_init+0xf4>
			page_free_list = &pages[i];
f0101101:	89 c2                	mov    %eax,%edx
f0101103:	03 15 90 3e 20 f0    	add    0xf0203e90,%edx
f0101109:	89 15 44 32 20 f0    	mov    %edx,0xf0203244
f010110f:	eb 16                	jmp    f0101127 <page_init+0x10a>
		} else {
			prev->pp_link = &pages[i];
f0101111:	89 c2                	mov    %eax,%edx
f0101113:	03 15 90 3e 20 f0    	add    0xf0203e90,%edx
f0101119:	89 17                	mov    %edx,(%edi)
			pages[i-1].pp_link = &pages[i];
f010111b:	8b 15 90 3e 20 f0    	mov    0xf0203e90,%edx
f0101121:	8d 0c 02             	lea    (%edx,%eax,1),%ecx
f0101124:	89 0c 32             	mov    %ecx,(%edx,%esi,1)
		}
		prev = &pages[i];
f0101127:	03 05 90 3e 20 f0    	add    0xf0203e90,%eax
f010112d:	89 c7                	mov    %eax,%edi
	size_t mp_code_beg = MPENTRY_PADDR / PGSIZE;
	size_t mp_code_end = mp_code_beg + mpcode_sz / PGSIZE;
	cprintf("mp_code_beg = %d, mp_code_end = %d\n", mp_code_beg, mp_code_end);
	page_free_list = 0;
	struct PageInfo *prev = 0;
	for (i = 1; i < npages_basemem; ++i) {
f010112f:	83 c3 01             	add    $0x1,%ebx
f0101132:	83 c6 08             	add    $0x8,%esi
f0101135:	39 1d 48 32 20 f0    	cmp    %ebx,0xf0203248
f010113b:	77 84                	ja     f01010c1 <page_init+0xa4>
f010113d:	eb 05                	jmp    f0101144 <page_init+0x127>
f010113f:	bb 01 00 00 00       	mov    $0x1,%ebx
		}
		prev = &pages[i];
	}

	// 3) mark other free pages
	struct PageInfo *tail = &pages[i-1];
f0101144:	a1 90 3e 20 f0       	mov    0xf0203e90,%eax
f0101149:	8d 5c d8 f8          	lea    -0x8(%eax,%ebx,8),%ebx
	// boot_alloc(0) return the start address of the free block
	cprintf("Oops = %d\n", ROUNDUP(PADDR(boot_alloc(0)), PGSIZE) / PGSIZE);
f010114d:	b8 00 00 00 00       	mov    $0x0,%eax
f0101152:	e8 58 fa ff ff       	call   f0100baf <boot_alloc>
#define PADDR(kva) _paddr(__FILE__, __LINE__, kva)

static inline physaddr_t
_paddr(const char *file, int line, void *kva)
{
	if ((uint32_t)kva < KERNBASE)
f0101157:	3d ff ff ff ef       	cmp    $0xefffffff,%eax
f010115c:	77 20                	ja     f010117e <page_init+0x161>
		_panic(file, line, "PADDR called with invalid kva %08lx", kva);
f010115e:	89 44 24 0c          	mov    %eax,0xc(%esp)
f0101162:	c7 44 24 08 08 6d 10 	movl   $0xf0106d08,0x8(%esp)
f0101169:	f0 
f010116a:	c7 44 24 04 72 01 00 	movl   $0x172,0x4(%esp)
f0101171:	00 
f0101172:	c7 04 24 ad 7b 10 f0 	movl   $0xf0107bad,(%esp)
f0101179:	e8 c2 ee ff ff       	call   f0100040 <_panic>
f010117e:	05 ff 0f 00 10       	add    $0x10000fff,%eax
f0101183:	c1 e8 0c             	shr    $0xc,%eax
f0101186:	89 44 24 04          	mov    %eax,0x4(%esp)
f010118a:	c7 04 24 a7 7c 10 f0 	movl   $0xf0107ca7,(%esp)
f0101191:	e8 cf 2f 00 00       	call   f0104165 <cprintf>
	for (i = ROUNDUP(PADDR(boot_alloc(0)), PGSIZE) / PGSIZE; i < npages; ++i) {
f0101196:	b8 00 00 00 00       	mov    $0x0,%eax
f010119b:	e8 0f fa ff ff       	call   f0100baf <boot_alloc>
#define PADDR(kva) _paddr(__FILE__, __LINE__, kva)

static inline physaddr_t
_paddr(const char *file, int line, void *kva)
{
	if ((uint32_t)kva < KERNBASE)
f01011a0:	3d ff ff ff ef       	cmp    $0xefffffff,%eax
f01011a5:	77 20                	ja     f01011c7 <page_init+0x1aa>
		_panic(file, line, "PADDR called with invalid kva %08lx", kva);
f01011a7:	89 44 24 0c          	mov    %eax,0xc(%esp)
f01011ab:	c7 44 24 08 08 6d 10 	movl   $0xf0106d08,0x8(%esp)
f01011b2:	f0 
f01011b3:	c7 44 24 04 73 01 00 	movl   $0x173,0x4(%esp)
f01011ba:	00 
f01011bb:	c7 04 24 ad 7b 10 f0 	movl   $0xf0107bad,(%esp)
f01011c2:	e8 79 ee ff ff       	call   f0100040 <_panic>
f01011c7:	05 ff 0f 00 10       	add    $0x10000fff,%eax
f01011cc:	c1 e8 0c             	shr    $0xc,%eax
f01011cf:	3b 05 88 3e 20 f0    	cmp    0xf0203e88,%eax
f01011d5:	73 3b                	jae    f0101212 <page_init+0x1f5>
f01011d7:	8d 14 c5 00 00 00 00 	lea    0x0(,%eax,8),%edx
		pages[i].pp_ref = 0;
f01011de:	89 d1                	mov    %edx,%ecx
f01011e0:	03 0d 90 3e 20 f0    	add    0xf0203e90,%ecx
f01011e6:	66 c7 41 04 00 00    	movw   $0x0,0x4(%ecx)
		pages[i].pp_link = 0;
f01011ec:	c7 01 00 00 00 00    	movl   $0x0,(%ecx)
		tail->pp_link = &pages[i];
f01011f2:	89 d1                	mov    %edx,%ecx
f01011f4:	03 0d 90 3e 20 f0    	add    0xf0203e90,%ecx
f01011fa:	89 0b                	mov    %ecx,(%ebx)
		tail = &pages[i];
f01011fc:	89 d3                	mov    %edx,%ebx
f01011fe:	03 1d 90 3e 20 f0    	add    0xf0203e90,%ebx

	// 3) mark other free pages
	struct PageInfo *tail = &pages[i-1];
	// boot_alloc(0) return the start address of the free block
	cprintf("Oops = %d\n", ROUNDUP(PADDR(boot_alloc(0)), PGSIZE) / PGSIZE);
	for (i = ROUNDUP(PADDR(boot_alloc(0)), PGSIZE) / PGSIZE; i < npages; ++i) {
f0101204:	83 c0 01             	add    $0x1,%eax
f0101207:	83 c2 08             	add    $0x8,%edx
f010120a:	39 05 88 3e 20 f0    	cmp    %eax,0xf0203e88
f0101210:	77 cc                	ja     f01011de <page_init+0x1c1>
		pages[i].pp_ref = 0;
		pages[i].pp_link = 0;
		tail->pp_link = &pages[i];
		tail = &pages[i];
	}
	cprintf("EXTPHYSMEM = %x\n", EXTPHYSMEM);
f0101212:	c7 44 24 04 00 00 10 	movl   $0x100000,0x4(%esp)
f0101219:	00 
f010121a:	c7 04 24 b2 7c 10 f0 	movl   $0xf0107cb2,(%esp)
f0101221:	e8 3f 2f 00 00       	call   f0104165 <cprintf>
	// cprintf("Debug info of pages....\n");
	// cprintf("&pages[0] = %x\n", &pages[0]);
	// cprintf("&pages[npages-1] = %x\n", &pages[npages-1]);
}
f0101226:	83 c4 2c             	add    $0x2c,%esp
f0101229:	5b                   	pop    %ebx
f010122a:	5e                   	pop    %esi
f010122b:	5f                   	pop    %edi
f010122c:	5d                   	pop    %ebp
f010122d:	c3                   	ret    

f010122e <page_alloc>:
// Returns NULL if out of free memory.
//
// Hint: use page2kva and memset
struct PageInfo *
page_alloc(int alloc_flags)
{
f010122e:	55                   	push   %ebp
f010122f:	89 e5                	mov    %esp,%ebp
f0101231:	53                   	push   %ebx
f0101232:	83 ec 14             	sub    $0x14,%esp
	if (!page_free_list) {
f0101235:	8b 1d 44 32 20 f0    	mov    0xf0203244,%ebx
f010123b:	85 db                	test   %ebx,%ebx
f010123d:	74 69                	je     f01012a8 <page_alloc+0x7a>
		return NULL;
	}

	struct PageInfo *ret = page_free_list;
	page_free_list = ret->pp_link;
f010123f:	8b 03                	mov    (%ebx),%eax
f0101241:	a3 44 32 20 f0       	mov    %eax,0xf0203244

	if (alloc_flags && ALLOC_ZERO) {
		memset(page2kva(ret), 0, PGSIZE);
	}
	return ret;
f0101246:	89 d8                	mov    %ebx,%eax
	}

	struct PageInfo *ret = page_free_list;
	page_free_list = ret->pp_link;

	if (alloc_flags && ALLOC_ZERO) {
f0101248:	83 7d 08 00          	cmpl   $0x0,0x8(%ebp)
f010124c:	74 5f                	je     f01012ad <page_alloc+0x7f>
void	user_mem_assert(struct Env *env, const void *va, size_t len, int perm);

static inline physaddr_t
page2pa(struct PageInfo *pp)
{
	return (pp - pages) << PGSHIFT;
f010124e:	2b 05 90 3e 20 f0    	sub    0xf0203e90,%eax
f0101254:	c1 f8 03             	sar    $0x3,%eax
f0101257:	c1 e0 0c             	shl    $0xc,%eax
#define KADDR(pa) _kaddr(__FILE__, __LINE__, pa)

static inline void*
_kaddr(const char *file, int line, physaddr_t pa)
{
	if (PGNUM(pa) >= npages)
f010125a:	89 c2                	mov    %eax,%edx
f010125c:	c1 ea 0c             	shr    $0xc,%edx
f010125f:	3b 15 88 3e 20 f0    	cmp    0xf0203e88,%edx
f0101265:	72 20                	jb     f0101287 <page_alloc+0x59>
		_panic(file, line, "KADDR called with invalid pa %08lx", pa);
f0101267:	89 44 24 0c          	mov    %eax,0xc(%esp)
f010126b:	c7 44 24 08 e4 6c 10 	movl   $0xf0106ce4,0x8(%esp)
f0101272:	f0 
f0101273:	c7 44 24 04 58 00 00 	movl   $0x58,0x4(%esp)
f010127a:	00 
f010127b:	c7 04 24 b9 7b 10 f0 	movl   $0xf0107bb9,(%esp)
f0101282:	e8 b9 ed ff ff       	call   f0100040 <_panic>
		memset(page2kva(ret), 0, PGSIZE);
f0101287:	c7 44 24 08 00 10 00 	movl   $0x1000,0x8(%esp)
f010128e:	00 
f010128f:	c7 44 24 04 00 00 00 	movl   $0x0,0x4(%esp)
f0101296:	00 
	return (void *)(pa + KERNBASE);
f0101297:	2d 00 00 00 10       	sub    $0x10000000,%eax
f010129c:	89 04 24             	mov    %eax,(%esp)
f010129f:	e8 65 4c 00 00       	call   f0105f09 <memset>
	}
	return ret;
f01012a4:	89 d8                	mov    %ebx,%eax
f01012a6:	eb 05                	jmp    f01012ad <page_alloc+0x7f>
// Hint: use page2kva and memset
struct PageInfo *
page_alloc(int alloc_flags)
{
	if (!page_free_list) {
		return NULL;
f01012a8:	b8 00 00 00 00       	mov    $0x0,%eax

	if (alloc_flags && ALLOC_ZERO) {
		memset(page2kva(ret), 0, PGSIZE);
	}
	return ret;
}
f01012ad:	83 c4 14             	add    $0x14,%esp
f01012b0:	5b                   	pop    %ebx
f01012b1:	5d                   	pop    %ebp
f01012b2:	c3                   	ret    

f01012b3 <page_free>:
// Return a page to the free list.
// (This function should only be called when pp->pp_ref reaches 0.)
//
void
page_free(struct PageInfo *pp)
{
f01012b3:	55                   	push   %ebp
f01012b4:	89 e5                	mov    %esp,%ebp
f01012b6:	8b 45 08             	mov    0x8(%ebp),%eax
	if (pp && !pp->pp_ref) {
f01012b9:	85 c0                	test   %eax,%eax
f01012bb:	74 14                	je     f01012d1 <page_free+0x1e>
f01012bd:	66 83 78 04 00       	cmpw   $0x0,0x4(%eax)
f01012c2:	75 0d                	jne    f01012d1 <page_free+0x1e>
		pp->pp_link = page_free_list;
f01012c4:	8b 15 44 32 20 f0    	mov    0xf0203244,%edx
f01012ca:	89 10                	mov    %edx,(%eax)
		page_free_list = pp;
f01012cc:	a3 44 32 20 f0       	mov    %eax,0xf0203244
	}
}
f01012d1:	5d                   	pop    %ebp
f01012d2:	c3                   	ret    

f01012d3 <page_decref>:
// Decrement the reference count on a page,
// freeing it if there are no more refs.
//
void
page_decref(struct PageInfo* pp)
{
f01012d3:	55                   	push   %ebp
f01012d4:	89 e5                	mov    %esp,%ebp
f01012d6:	83 ec 04             	sub    $0x4,%esp
f01012d9:	8b 45 08             	mov    0x8(%ebp),%eax
	if (--pp->pp_ref == 0)
f01012dc:	0f b7 48 04          	movzwl 0x4(%eax),%ecx
f01012e0:	8d 51 ff             	lea    -0x1(%ecx),%edx
f01012e3:	66 89 50 04          	mov    %dx,0x4(%eax)
f01012e7:	66 85 d2             	test   %dx,%dx
f01012ea:	75 08                	jne    f01012f4 <page_decref+0x21>
		page_free(pp);
f01012ec:	89 04 24             	mov    %eax,(%esp)
f01012ef:	e8 bf ff ff ff       	call   f01012b3 <page_free>
}
f01012f4:	c9                   	leave  
f01012f5:	c3                   	ret    

f01012f6 <pgdir_walk>:
// Hint 3: look at inc/mmu.h for useful macros that mainipulate page
// table and page directory entries.
//
pte_t *
pgdir_walk(pde_t *pgdir, const void *va, int create)
{
f01012f6:	55                   	push   %ebp
f01012f7:	89 e5                	mov    %esp,%ebp
f01012f9:	57                   	push   %edi
f01012fa:	56                   	push   %esi
f01012fb:	53                   	push   %ebx
f01012fc:	83 ec 1c             	sub    $0x1c,%esp
	pde_t *pde;
	pte_t *pgtab;

	// pde stores a pointer to the page directory entry
	// so *pde is the content of the entry
	pde = &pgdir[PDX(va)];
f01012ff:	8b 5d 0c             	mov    0xc(%ebp),%ebx
f0101302:	c1 eb 16             	shr    $0x16,%ebx
f0101305:	c1 e3 02             	shl    $0x2,%ebx
f0101308:	03 5d 08             	add    0x8(%ebp),%ebx
	if (*pde & PTE_P) {
f010130b:	8b 3b                	mov    (%ebx),%edi
f010130d:	f7 c7 01 00 00 00    	test   $0x1,%edi
f0101313:	74 3e                	je     f0101353 <pgdir_walk+0x5d>
		// PTE_ADDR(*pde) extract the upper 20 bits in the page dir entry,
		// it is a physical address of the page table.
		// Since kernel manipulate virtual address, we have to change the
		// physical address to the virtual address KADDR(PTE_ADDR(*pde))
		pgtab = (pte_t*)KADDR(PTE_ADDR(*pde));
f0101315:	81 e7 00 f0 ff ff    	and    $0xfffff000,%edi
#define KADDR(pa) _kaddr(__FILE__, __LINE__, pa)

static inline void*
_kaddr(const char *file, int line, physaddr_t pa)
{
	if (PGNUM(pa) >= npages)
f010131b:	89 f8                	mov    %edi,%eax
f010131d:	c1 e8 0c             	shr    $0xc,%eax
f0101320:	3b 05 88 3e 20 f0    	cmp    0xf0203e88,%eax
f0101326:	72 20                	jb     f0101348 <pgdir_walk+0x52>
		_panic(file, line, "KADDR called with invalid pa %08lx", pa);
f0101328:	89 7c 24 0c          	mov    %edi,0xc(%esp)
f010132c:	c7 44 24 08 e4 6c 10 	movl   $0xf0106ce4,0x8(%esp)
f0101333:	f0 
f0101334:	c7 44 24 04 d4 01 00 	movl   $0x1d4,0x4(%esp)
f010133b:	00 
f010133c:	c7 04 24 ad 7b 10 f0 	movl   $0xf0107bad,(%esp)
f0101343:	e8 f8 ec ff ff       	call   f0100040 <_panic>
	return (void *)(pa + KERNBASE);
f0101348:	81 ef 00 00 00 10    	sub    $0x10000000,%edi
f010134e:	e9 8f 00 00 00       	jmp    f01013e2 <pgdir_walk+0xec>
	} else {
		// if create = false or page_alloc false, return NULL
		struct PageInfo *page;
		if (!create || !(page = page_alloc(PGSIZE))) {
f0101353:	83 7d 10 00          	cmpl   $0x0,0x10(%ebp)
f0101357:	0f 84 94 00 00 00    	je     f01013f1 <pgdir_walk+0xfb>
f010135d:	c7 04 24 00 10 00 00 	movl   $0x1000,(%esp)
f0101364:	e8 c5 fe ff ff       	call   f010122e <page_alloc>
f0101369:	89 c6                	mov    %eax,%esi
f010136b:	85 c0                	test   %eax,%eax
f010136d:	0f 84 85 00 00 00    	je     f01013f8 <pgdir_walk+0x102>
			return 0;
		}
		page->pp_ref++;
f0101373:	66 83 40 04 01       	addw   $0x1,0x4(%eax)
void	user_mem_assert(struct Env *env, const void *va, size_t len, int perm);

static inline physaddr_t
page2pa(struct PageInfo *pp)
{
	return (pp - pages) << PGSHIFT;
f0101378:	89 c7                	mov    %eax,%edi
f010137a:	2b 3d 90 3e 20 f0    	sub    0xf0203e90,%edi
f0101380:	c1 ff 03             	sar    $0x3,%edi
f0101383:	c1 e7 0c             	shl    $0xc,%edi
#define KADDR(pa) _kaddr(__FILE__, __LINE__, pa)

static inline void*
_kaddr(const char *file, int line, physaddr_t pa)
{
	if (PGNUM(pa) >= npages)
f0101386:	89 f8                	mov    %edi,%eax
f0101388:	c1 e8 0c             	shr    $0xc,%eax
f010138b:	3b 05 88 3e 20 f0    	cmp    0xf0203e88,%eax
f0101391:	72 20                	jb     f01013b3 <pgdir_walk+0xbd>
		_panic(file, line, "KADDR called with invalid pa %08lx", pa);
f0101393:	89 7c 24 0c          	mov    %edi,0xc(%esp)
f0101397:	c7 44 24 08 e4 6c 10 	movl   $0xf0106ce4,0x8(%esp)
f010139e:	f0 
f010139f:	c7 44 24 04 58 00 00 	movl   $0x58,0x4(%esp)
f01013a6:	00 
f01013a7:	c7 04 24 b9 7b 10 f0 	movl   $0xf0107bb9,(%esp)
f01013ae:	e8 8d ec ff ff       	call   f0100040 <_panic>
	return (void *)(pa + KERNBASE);
f01013b3:	81 ef 00 00 00 10    	sub    $0x10000000,%edi

		pgtab = (pte_t*)page2kva(page); // get the actual page virtual address
		memset(pgtab, 0, PGSIZE);
f01013b9:	c7 44 24 08 00 10 00 	movl   $0x1000,0x8(%esp)
f01013c0:	00 
f01013c1:	c7 44 24 04 00 00 00 	movl   $0x0,0x4(%esp)
f01013c8:	00 
f01013c9:	89 3c 24             	mov    %edi,(%esp)
f01013cc:	e8 38 4b 00 00       	call   f0105f09 <memset>
void	user_mem_assert(struct Env *env, const void *va, size_t len, int perm);

static inline physaddr_t
page2pa(struct PageInfo *pp)
{
	return (pp - pages) << PGSHIFT;
f01013d1:	2b 35 90 3e 20 f0    	sub    0xf0203e90,%esi
f01013d7:	c1 fe 03             	sar    $0x3,%esi
f01013da:	c1 e6 0c             	shl    $0xc,%esi
		// the page dir entry contains a 20 bit physical address of a page table
		// it points to as well as the permission bits
		// The permissions here are more permissive,
		// it can be further restricted by the permission in the page table
		// entries, if necessary
		*pde = page2pa(page) | PTE_P | PTE_W | PTE_U;
f01013dd:	83 ce 07             	or     $0x7,%esi
f01013e0:	89 33                	mov    %esi,(%ebx)
	}
	return &pgtab[PTX(va)]; // return the virtual address of page table entry
f01013e2:	8b 45 0c             	mov    0xc(%ebp),%eax
f01013e5:	c1 e8 0a             	shr    $0xa,%eax
f01013e8:	25 fc 0f 00 00       	and    $0xffc,%eax
f01013ed:	01 f8                	add    %edi,%eax
f01013ef:	eb 0c                	jmp    f01013fd <pgdir_walk+0x107>
		pgtab = (pte_t*)KADDR(PTE_ADDR(*pde));
	} else {
		// if create = false or page_alloc false, return NULL
		struct PageInfo *page;
		if (!create || !(page = page_alloc(PGSIZE))) {
			return 0;
f01013f1:	b8 00 00 00 00       	mov    $0x0,%eax
f01013f6:	eb 05                	jmp    f01013fd <pgdir_walk+0x107>
f01013f8:	b8 00 00 00 00       	mov    $0x0,%eax
		// it can be further restricted by the permission in the page table
		// entries, if necessary
		*pde = page2pa(page) | PTE_P | PTE_W | PTE_U;
	}
	return &pgtab[PTX(va)]; // return the virtual address of page table entry
}
f01013fd:	83 c4 1c             	add    $0x1c,%esp
f0101400:	5b                   	pop    %ebx
f0101401:	5e                   	pop    %esi
f0101402:	5f                   	pop    %edi
f0101403:	5d                   	pop    %ebp
f0101404:	c3                   	ret    

f0101405 <boot_map_region>:
// mapped pages.
//
// Hint: the TA solution uses pgdir_walk
static void
boot_map_region(pde_t *pgdir, uintptr_t va, size_t size, physaddr_t pa, int perm)
{
f0101405:	55                   	push   %ebp
f0101406:	89 e5                	mov    %esp,%ebp
f0101408:	57                   	push   %edi
f0101409:	56                   	push   %esi
f010140a:	53                   	push   %ebx
f010140b:	83 ec 2c             	sub    $0x2c,%esp
f010140e:	89 45 e4             	mov    %eax,-0x1c(%ebp)
	pte_t *pte;
	uintptr_t va_beg = ROUNDDOWN(va, PGSIZE);
f0101411:	81 e2 00 f0 ff ff    	and    $0xfffff000,%edx
	uintptr_t pa_beg = ROUNDDOWN(pa, PGSIZE);
f0101417:	8b 45 08             	mov    0x8(%ebp),%eax
f010141a:	25 00 f0 ff ff       	and    $0xfffff000,%eax
	size = ROUNDUP(size, PGSIZE);
f010141f:	8d b1 ff 0f 00 00    	lea    0xfff(%ecx),%esi
	while (size) {
f0101425:	81 e6 00 f0 ff ff    	and    $0xfffff000,%esi
f010142b:	0f 84 81 00 00 00    	je     f01014b2 <boot_map_region+0xad>
// Hint: the TA solution uses pgdir_walk
static void
boot_map_region(pde_t *pgdir, uintptr_t va, size_t size, physaddr_t pa, int perm)
{
	pte_t *pte;
	uintptr_t va_beg = ROUNDDOWN(va, PGSIZE);
f0101431:	89 d3                	mov    %edx,%ebx
f0101433:	29 d0                	sub    %edx,%eax
f0101435:	89 45 e0             	mov    %eax,-0x20(%ebp)
			panic("cannot get page table entry in boot_map_region");
		}
		if (*pte & PTE_P) {
			panic("remap in boot_map_region");
		}
		*pte = pa_beg | perm | PTE_P;
f0101438:	8b 45 0c             	mov    0xc(%ebp),%eax
f010143b:	83 c8 01             	or     $0x1,%eax
f010143e:	89 45 dc             	mov    %eax,-0x24(%ebp)
f0101441:	8b 45 e0             	mov    -0x20(%ebp),%eax
f0101444:	8d 3c 18             	lea    (%eax,%ebx,1),%edi
	pte_t *pte;
	uintptr_t va_beg = ROUNDDOWN(va, PGSIZE);
	uintptr_t pa_beg = ROUNDDOWN(pa, PGSIZE);
	size = ROUNDUP(size, PGSIZE);
	while (size) {
		if (!(pte = pgdir_walk(pgdir, (const void*)va_beg, 1))) {
f0101447:	c7 44 24 08 01 00 00 	movl   $0x1,0x8(%esp)
f010144e:	00 
f010144f:	89 5c 24 04          	mov    %ebx,0x4(%esp)
f0101453:	8b 45 e4             	mov    -0x1c(%ebp),%eax
f0101456:	89 04 24             	mov    %eax,(%esp)
f0101459:	e8 98 fe ff ff       	call   f01012f6 <pgdir_walk>
f010145e:	85 c0                	test   %eax,%eax
f0101460:	75 1c                	jne    f010147e <boot_map_region+0x79>
			panic("cannot get page table entry in boot_map_region");
f0101462:	c7 44 24 08 9c 73 10 	movl   $0xf010739c,0x8(%esp)
f0101469:	f0 
f010146a:	c7 44 24 04 ff 01 00 	movl   $0x1ff,0x4(%esp)
f0101471:	00 
f0101472:	c7 04 24 ad 7b 10 f0 	movl   $0xf0107bad,(%esp)
f0101479:	e8 c2 eb ff ff       	call   f0100040 <_panic>
		}
		if (*pte & PTE_P) {
f010147e:	f6 00 01             	testb  $0x1,(%eax)
f0101481:	74 1c                	je     f010149f <boot_map_region+0x9a>
			panic("remap in boot_map_region");
f0101483:	c7 44 24 08 c3 7c 10 	movl   $0xf0107cc3,0x8(%esp)
f010148a:	f0 
f010148b:	c7 44 24 04 02 02 00 	movl   $0x202,0x4(%esp)
f0101492:	00 
f0101493:	c7 04 24 ad 7b 10 f0 	movl   $0xf0107bad,(%esp)
f010149a:	e8 a1 eb ff ff       	call   f0100040 <_panic>
		}
		*pte = pa_beg | perm | PTE_P;
f010149f:	0b 7d dc             	or     -0x24(%ebp),%edi
f01014a2:	89 38                	mov    %edi,(%eax)
		va_beg += PGSIZE;
f01014a4:	81 c3 00 10 00 00    	add    $0x1000,%ebx
{
	pte_t *pte;
	uintptr_t va_beg = ROUNDDOWN(va, PGSIZE);
	uintptr_t pa_beg = ROUNDDOWN(pa, PGSIZE);
	size = ROUNDUP(size, PGSIZE);
	while (size) {
f01014aa:	81 ee 00 10 00 00    	sub    $0x1000,%esi
f01014b0:	75 8f                	jne    f0101441 <boot_map_region+0x3c>
		*pte = pa_beg | perm | PTE_P;
		va_beg += PGSIZE;
		pa_beg += PGSIZE;
		size -= PGSIZE;
	}
}
f01014b2:	83 c4 2c             	add    $0x2c,%esp
f01014b5:	5b                   	pop    %ebx
f01014b6:	5e                   	pop    %esi
f01014b7:	5f                   	pop    %edi
f01014b8:	5d                   	pop    %ebp
f01014b9:	c3                   	ret    

f01014ba <page_lookup>:
//
// Hint: the TA solution uses pgdir_walk and pa2page.
//
struct PageInfo *
page_lookup(pde_t *pgdir, void *va, pte_t **pte_store)
{
f01014ba:	55                   	push   %ebp
f01014bb:	89 e5                	mov    %esp,%ebp
f01014bd:	53                   	push   %ebx
f01014be:	83 ec 14             	sub    $0x14,%esp
f01014c1:	8b 5d 10             	mov    0x10(%ebp),%ebx
	pte_t *pte;
	struct PageInfo* ret = NULL;
	pte = pgdir_walk(pgdir, va, 0);
f01014c4:	c7 44 24 08 00 00 00 	movl   $0x0,0x8(%esp)
f01014cb:	00 
f01014cc:	8b 45 0c             	mov    0xc(%ebp),%eax
f01014cf:	89 44 24 04          	mov    %eax,0x4(%esp)
f01014d3:	8b 45 08             	mov    0x8(%ebp),%eax
f01014d6:	89 04 24             	mov    %eax,(%esp)
f01014d9:	e8 18 fe ff ff       	call   f01012f6 <pgdir_walk>
f01014de:	89 c2                	mov    %eax,%edx
	if (pte && (*pte & PTE_P)) {
f01014e0:	85 c0                	test   %eax,%eax
f01014e2:	74 1a                	je     f01014fe <page_lookup+0x44>
f01014e4:	8b 00                	mov    (%eax),%eax
f01014e6:	a8 01                	test   $0x1,%al
f01014e8:	74 1b                	je     f0101505 <page_lookup+0x4b>
		ret = pages + (PTE_ADDR(*pte) >> PTXSHIFT);
f01014ea:	c1 e8 0c             	shr    $0xc,%eax
f01014ed:	8b 0d 90 3e 20 f0    	mov    0xf0203e90,%ecx
f01014f3:	8d 04 c1             	lea    (%ecx,%eax,8),%eax
		if (pte_store) {
f01014f6:	85 db                	test   %ebx,%ebx
f01014f8:	74 10                	je     f010150a <page_lookup+0x50>
			*pte_store = pte;
f01014fa:	89 13                	mov    %edx,(%ebx)
f01014fc:	eb 0c                	jmp    f010150a <page_lookup+0x50>
//
struct PageInfo *
page_lookup(pde_t *pgdir, void *va, pte_t **pte_store)
{
	pte_t *pte;
	struct PageInfo* ret = NULL;
f01014fe:	b8 00 00 00 00       	mov    $0x0,%eax
f0101503:	eb 05                	jmp    f010150a <page_lookup+0x50>
f0101505:	b8 00 00 00 00       	mov    $0x0,%eax
		if (pte_store) {
			*pte_store = pte;
		}
	}
	return ret;
}
f010150a:	83 c4 14             	add    $0x14,%esp
f010150d:	5b                   	pop    %ebx
f010150e:	5d                   	pop    %ebp
f010150f:	c3                   	ret    

f0101510 <tlb_invalidate>:
// Invalidate a TLB entry, but only if the page tables being
// edited are the ones currently in use by the processor.
//
void
tlb_invalidate(pde_t *pgdir, void *va)
{
f0101510:	55                   	push   %ebp
f0101511:	89 e5                	mov    %esp,%ebp
f0101513:	83 ec 08             	sub    $0x8,%esp
	// Flush the entry only if we're modifying the current address space.
	if (!curenv || curenv->env_pgdir == pgdir)
f0101516:	e8 88 50 00 00       	call   f01065a3 <cpunum>
f010151b:	6b c0 74             	imul   $0x74,%eax,%eax
f010151e:	83 b8 28 40 20 f0 00 	cmpl   $0x0,-0xfdfbfd8(%eax)
f0101525:	74 16                	je     f010153d <tlb_invalidate+0x2d>
f0101527:	e8 77 50 00 00       	call   f01065a3 <cpunum>
f010152c:	6b c0 74             	imul   $0x74,%eax,%eax
f010152f:	8b 80 28 40 20 f0    	mov    -0xfdfbfd8(%eax),%eax
f0101535:	8b 55 08             	mov    0x8(%ebp),%edx
f0101538:	39 50 60             	cmp    %edx,0x60(%eax)
f010153b:	75 06                	jne    f0101543 <tlb_invalidate+0x33>
}

static __inline void
invlpg(void *addr)
{
	__asm __volatile("invlpg (%0)" : : "r" (addr) : "memory");
f010153d:	8b 45 0c             	mov    0xc(%ebp),%eax
f0101540:	0f 01 38             	invlpg (%eax)
		invlpg(va);
}
f0101543:	c9                   	leave  
f0101544:	c3                   	ret    

f0101545 <page_remove>:
// Hint: The TA solution is implemented using page_lookup,
// 	tlb_invalidate, and page_decref.
//
void
page_remove(pde_t *pgdir, void *va)
{
f0101545:	55                   	push   %ebp
f0101546:	89 e5                	mov    %esp,%ebp
f0101548:	56                   	push   %esi
f0101549:	53                   	push   %ebx
f010154a:	83 ec 20             	sub    $0x20,%esp
f010154d:	8b 5d 08             	mov    0x8(%ebp),%ebx
f0101550:	8b 75 0c             	mov    0xc(%ebp),%esi
	pte_t *pte;
	struct PageInfo *page = 0;
	if (!(page = page_lookup(pgdir, va, &pte))) {
f0101553:	8d 45 f4             	lea    -0xc(%ebp),%eax
f0101556:	89 44 24 08          	mov    %eax,0x8(%esp)
f010155a:	89 74 24 04          	mov    %esi,0x4(%esp)
f010155e:	89 1c 24             	mov    %ebx,(%esp)
f0101561:	e8 54 ff ff ff       	call   f01014ba <page_lookup>
f0101566:	85 c0                	test   %eax,%eax
f0101568:	74 1d                	je     f0101587 <page_remove+0x42>
		return;
	}
	page_decref(page);
f010156a:	89 04 24             	mov    %eax,(%esp)
f010156d:	e8 61 fd ff ff       	call   f01012d3 <page_decref>
	*pte = 0;
f0101572:	8b 45 f4             	mov    -0xc(%ebp),%eax
f0101575:	c7 00 00 00 00 00    	movl   $0x0,(%eax)
	tlb_invalidate(pgdir, va);
f010157b:	89 74 24 04          	mov    %esi,0x4(%esp)
f010157f:	89 1c 24             	mov    %ebx,(%esp)
f0101582:	e8 89 ff ff ff       	call   f0101510 <tlb_invalidate>
}
f0101587:	83 c4 20             	add    $0x20,%esp
f010158a:	5b                   	pop    %ebx
f010158b:	5e                   	pop    %esi
f010158c:	5d                   	pop    %ebp
f010158d:	c3                   	ret    

f010158e <page_insert>:
// Hint: The TA solution is implemented using pgdir_walk, page_remove,
// and page2pa.
//
int
page_insert(pde_t *pgdir, struct PageInfo *pp, void *va, int perm)
{
f010158e:	55                   	push   %ebp
f010158f:	89 e5                	mov    %esp,%ebp
f0101591:	57                   	push   %edi
f0101592:	56                   	push   %esi
f0101593:	53                   	push   %ebx
f0101594:	83 ec 1c             	sub    $0x1c,%esp
f0101597:	8b 75 0c             	mov    0xc(%ebp),%esi
f010159a:	8b 7d 10             	mov    0x10(%ebp),%edi
	pte_t *pte;
	if (!(pte = pgdir_walk(pgdir, va, 1))) {
f010159d:	c7 44 24 08 01 00 00 	movl   $0x1,0x8(%esp)
f01015a4:	00 
f01015a5:	89 7c 24 04          	mov    %edi,0x4(%esp)
f01015a9:	8b 45 08             	mov    0x8(%ebp),%eax
f01015ac:	89 04 24             	mov    %eax,(%esp)
f01015af:	e8 42 fd ff ff       	call   f01012f6 <pgdir_walk>
f01015b4:	89 c3                	mov    %eax,%ebx
f01015b6:	85 c0                	test   %eax,%eax
f01015b8:	0f 84 85 00 00 00    	je     f0101643 <page_insert+0xb5>
		return -E_NO_MEM;
	}

	if (*pte & PTE_P) {
f01015be:	8b 00                	mov    (%eax),%eax
f01015c0:	a8 01                	test   $0x1,%al
f01015c2:	74 5b                	je     f010161f <page_insert+0x91>
		// when va remap to the same physical page
		if (PTE_ADDR(*pte) == page2pa(pp)) {
f01015c4:	25 00 f0 ff ff       	and    $0xfffff000,%eax
f01015c9:	89 f2                	mov    %esi,%edx
f01015cb:	2b 15 90 3e 20 f0    	sub    0xf0203e90,%edx
f01015d1:	c1 fa 03             	sar    $0x3,%edx
f01015d4:	c1 e2 0c             	shl    $0xc,%edx
f01015d7:	39 d0                	cmp    %edx,%eax
f01015d9:	75 11                	jne    f01015ec <page_insert+0x5e>
			*pte = page2pa(pp) | perm | PTE_P;
f01015db:	8b 55 14             	mov    0x14(%ebp),%edx
f01015de:	83 ca 01             	or     $0x1,%edx
f01015e1:	09 d0                	or     %edx,%eax
f01015e3:	89 03                	mov    %eax,(%ebx)
		} else {
			page_remove(pgdir, va);
			*pte = page2pa(pp) | perm | PTE_P;
			pp->pp_ref++;
		}
		return 0;
f01015e5:	b8 00 00 00 00       	mov    $0x0,%eax
f01015ea:	eb 5c                	jmp    f0101648 <page_insert+0xba>
	if (*pte & PTE_P) {
		// when va remap to the same physical page
		if (PTE_ADDR(*pte) == page2pa(pp)) {
			*pte = page2pa(pp) | perm | PTE_P;
		} else {
			page_remove(pgdir, va);
f01015ec:	89 7c 24 04          	mov    %edi,0x4(%esp)
f01015f0:	8b 45 08             	mov    0x8(%ebp),%eax
f01015f3:	89 04 24             	mov    %eax,(%esp)
f01015f6:	e8 4a ff ff ff       	call   f0101545 <page_remove>
			*pte = page2pa(pp) | perm | PTE_P;
f01015fb:	8b 55 14             	mov    0x14(%ebp),%edx
f01015fe:	83 ca 01             	or     $0x1,%edx
f0101601:	89 f0                	mov    %esi,%eax
f0101603:	2b 05 90 3e 20 f0    	sub    0xf0203e90,%eax
f0101609:	c1 f8 03             	sar    $0x3,%eax
f010160c:	c1 e0 0c             	shl    $0xc,%eax
f010160f:	09 d0                	or     %edx,%eax
f0101611:	89 03                	mov    %eax,(%ebx)
			pp->pp_ref++;
f0101613:	66 83 46 04 01       	addw   $0x1,0x4(%esi)
		}
		return 0;
f0101618:	b8 00 00 00 00       	mov    $0x0,%eax
f010161d:	eb 29                	jmp    f0101648 <page_insert+0xba>
	} else {
		*pte = page2pa(pp) | perm | PTE_P;
f010161f:	8b 55 14             	mov    0x14(%ebp),%edx
f0101622:	83 ca 01             	or     $0x1,%edx
f0101625:	89 f0                	mov    %esi,%eax
f0101627:	2b 05 90 3e 20 f0    	sub    0xf0203e90,%eax
f010162d:	c1 f8 03             	sar    $0x3,%eax
f0101630:	c1 e0 0c             	shl    $0xc,%eax
f0101633:	09 d0                	or     %edx,%eax
f0101635:	89 03                	mov    %eax,(%ebx)
		pp->pp_ref++;
f0101637:	66 83 46 04 01       	addw   $0x1,0x4(%esi)
	}
	return 0;
f010163c:	b8 00 00 00 00       	mov    $0x0,%eax
f0101641:	eb 05                	jmp    f0101648 <page_insert+0xba>
int
page_insert(pde_t *pgdir, struct PageInfo *pp, void *va, int perm)
{
	pte_t *pte;
	if (!(pte = pgdir_walk(pgdir, va, 1))) {
		return -E_NO_MEM;
f0101643:	b8 fc ff ff ff       	mov    $0xfffffffc,%eax
	} else {
		*pte = page2pa(pp) | perm | PTE_P;
		pp->pp_ref++;
	}
	return 0;
}
f0101648:	83 c4 1c             	add    $0x1c,%esp
f010164b:	5b                   	pop    %ebx
f010164c:	5e                   	pop    %esi
f010164d:	5f                   	pop    %edi
f010164e:	5d                   	pop    %ebp
f010164f:	c3                   	ret    

f0101650 <mmio_map_region>:
// location.  Return the base of the reserved region.  size does *not*
// have to be multiple of PGSIZE.
//
void *
mmio_map_region(physaddr_t pa, size_t size)
{
f0101650:	55                   	push   %ebp
f0101651:	89 e5                	mov    %esp,%ebp
f0101653:	56                   	push   %esi
f0101654:	53                   	push   %ebx
f0101655:	83 ec 10             	sub    $0x10,%esp
	// okay to simply panic if this happens).
	//
	// Hint: The staff solution uses boot_map_region.
	//
	// Your code here:
  void* ret = (void*)base;
f0101658:	8b 1d 00 13 12 f0    	mov    0xf0121300,%ebx
  size = ROUNDUP(size, PGSIZE);
f010165e:	8b 45 0c             	mov    0xc(%ebp),%eax
f0101661:	8d b0 ff 0f 00 00    	lea    0xfff(%eax),%esi
f0101667:	81 e6 00 f0 ff ff    	and    $0xfffff000,%esi
  boot_map_region(kern_pgdir, base, size, pa, PTE_PCD | PTE_PWT | PTE_W | PTE_P);
f010166d:	c7 44 24 04 1b 00 00 	movl   $0x1b,0x4(%esp)
f0101674:	00 
f0101675:	8b 45 08             	mov    0x8(%ebp),%eax
f0101678:	89 04 24             	mov    %eax,(%esp)
f010167b:	89 f1                	mov    %esi,%ecx
f010167d:	89 da                	mov    %ebx,%edx
f010167f:	a1 8c 3e 20 f0       	mov    0xf0203e8c,%eax
f0101684:	e8 7c fd ff ff       	call   f0101405 <boot_map_region>
  base += size;
f0101689:	01 35 00 13 12 f0    	add    %esi,0xf0121300
  return ret;
}
f010168f:	89 d8                	mov    %ebx,%eax
f0101691:	83 c4 10             	add    $0x10,%esp
f0101694:	5b                   	pop    %ebx
f0101695:	5e                   	pop    %esi
f0101696:	5d                   	pop    %ebp
f0101697:	c3                   	ret    

f0101698 <mem_init>:
//
// From UTOP to ULIM, the user is allowed to read but not write.
// Above ULIM the user cannot read or write.
void
mem_init(void)
{
f0101698:	55                   	push   %ebp
f0101699:	89 e5                	mov    %esp,%ebp
f010169b:	57                   	push   %edi
f010169c:	56                   	push   %esi
f010169d:	53                   	push   %ebx
f010169e:	83 ec 4c             	sub    $0x4c,%esp
// --------------------------------------------------------------

static int
nvram_read(int r)
{
	return mc146818_read(r) | (mc146818_read(r + 1) << 8);
f01016a1:	c7 04 24 15 00 00 00 	movl   $0x15,(%esp)
f01016a8:	e8 4f 29 00 00       	call   f0103ffc <mc146818_read>
f01016ad:	89 c3                	mov    %eax,%ebx
f01016af:	c7 04 24 16 00 00 00 	movl   $0x16,(%esp)
f01016b6:	e8 41 29 00 00       	call   f0103ffc <mc146818_read>
f01016bb:	c1 e0 08             	shl    $0x8,%eax
f01016be:	09 c3                	or     %eax,%ebx
{
	size_t npages_extmem;

	// Use CMOS calls to measure available base & extended memory.
	// (CMOS calls return results in kilobytes.)
	npages_basemem = (nvram_read(NVRAM_BASELO) * 1024) / PGSIZE;
f01016c0:	89 d8                	mov    %ebx,%eax
f01016c2:	c1 e0 0a             	shl    $0xa,%eax
f01016c5:	8d 90 ff 0f 00 00    	lea    0xfff(%eax),%edx
f01016cb:	85 c0                	test   %eax,%eax
f01016cd:	0f 48 c2             	cmovs  %edx,%eax
f01016d0:	c1 f8 0c             	sar    $0xc,%eax
f01016d3:	a3 48 32 20 f0       	mov    %eax,0xf0203248
// --------------------------------------------------------------

static int
nvram_read(int r)
{
	return mc146818_read(r) | (mc146818_read(r + 1) << 8);
f01016d8:	c7 04 24 17 00 00 00 	movl   $0x17,(%esp)
f01016df:	e8 18 29 00 00       	call   f0103ffc <mc146818_read>
f01016e4:	89 c3                	mov    %eax,%ebx
f01016e6:	c7 04 24 18 00 00 00 	movl   $0x18,(%esp)
f01016ed:	e8 0a 29 00 00       	call   f0103ffc <mc146818_read>
f01016f2:	c1 e0 08             	shl    $0x8,%eax
f01016f5:	09 c3                	or     %eax,%ebx
	size_t npages_extmem;

	// Use CMOS calls to measure available base & extended memory.
	// (CMOS calls return results in kilobytes.)
	npages_basemem = (nvram_read(NVRAM_BASELO) * 1024) / PGSIZE;
	npages_extmem = (nvram_read(NVRAM_EXTLO) * 1024) / PGSIZE;
f01016f7:	89 d8                	mov    %ebx,%eax
f01016f9:	c1 e0 0a             	shl    $0xa,%eax
f01016fc:	8d 90 ff 0f 00 00    	lea    0xfff(%eax),%edx
f0101702:	85 c0                	test   %eax,%eax
f0101704:	0f 48 c2             	cmovs  %edx,%eax
f0101707:	c1 f8 0c             	sar    $0xc,%eax

	// Calculate the number of physical pages available in both base
	// and extended memory.
	if (npages_extmem)
f010170a:	85 c0                	test   %eax,%eax
f010170c:	74 0e                	je     f010171c <mem_init+0x84>
		npages = (EXTPHYSMEM / PGSIZE) + npages_extmem;
f010170e:	8d 90 00 01 00 00    	lea    0x100(%eax),%edx
f0101714:	89 15 88 3e 20 f0    	mov    %edx,0xf0203e88
f010171a:	eb 0c                	jmp    f0101728 <mem_init+0x90>
	else
		npages = npages_basemem;
f010171c:	8b 15 48 32 20 f0    	mov    0xf0203248,%edx
f0101722:	89 15 88 3e 20 f0    	mov    %edx,0xf0203e88

	cprintf("Physical memory: %uK available, base = %uK, extended = %uK\n",
		npages * PGSIZE / 1024,
		npages_basemem * PGSIZE / 1024,
		npages_extmem * PGSIZE / 1024);
f0101728:	c1 e0 0c             	shl    $0xc,%eax
	if (npages_extmem)
		npages = (EXTPHYSMEM / PGSIZE) + npages_extmem;
	else
		npages = npages_basemem;

	cprintf("Physical memory: %uK available, base = %uK, extended = %uK\n",
f010172b:	c1 e8 0a             	shr    $0xa,%eax
f010172e:	89 44 24 0c          	mov    %eax,0xc(%esp)
		npages * PGSIZE / 1024,
		npages_basemem * PGSIZE / 1024,
f0101732:	a1 48 32 20 f0       	mov    0xf0203248,%eax
f0101737:	c1 e0 0c             	shl    $0xc,%eax
	if (npages_extmem)
		npages = (EXTPHYSMEM / PGSIZE) + npages_extmem;
	else
		npages = npages_basemem;

	cprintf("Physical memory: %uK available, base = %uK, extended = %uK\n",
f010173a:	c1 e8 0a             	shr    $0xa,%eax
f010173d:	89 44 24 08          	mov    %eax,0x8(%esp)
		npages * PGSIZE / 1024,
f0101741:	a1 88 3e 20 f0       	mov    0xf0203e88,%eax
f0101746:	c1 e0 0c             	shl    $0xc,%eax
	if (npages_extmem)
		npages = (EXTPHYSMEM / PGSIZE) + npages_extmem;
	else
		npages = npages_basemem;

	cprintf("Physical memory: %uK available, base = %uK, extended = %uK\n",
f0101749:	c1 e8 0a             	shr    $0xa,%eax
f010174c:	89 44 24 04          	mov    %eax,0x4(%esp)
f0101750:	c7 04 24 cc 73 10 f0 	movl   $0xf01073cc,(%esp)
f0101757:	e8 09 2a 00 00       	call   f0104165 <cprintf>
		npages * PGSIZE / 1024,
		npages_basemem * PGSIZE / 1024,
		npages_extmem * PGSIZE / 1024);
	cprintf("Total Pages: %d\n", npages);
f010175c:	a1 88 3e 20 f0       	mov    0xf0203e88,%eax
f0101761:	89 44 24 04          	mov    %eax,0x4(%esp)
f0101765:	c7 04 24 dc 7c 10 f0 	movl   $0xf0107cdc,(%esp)
f010176c:	e8 f4 29 00 00       	call   f0104165 <cprintf>

	// Remove this line when you're ready to test this function.

	//////////////////////////////////////////////////////////////////////
	// create initial page directory.
	kern_pgdir = (pde_t *) boot_alloc(PGSIZE);
f0101771:	b8 00 10 00 00       	mov    $0x1000,%eax
f0101776:	e8 34 f4 ff ff       	call   f0100baf <boot_alloc>
f010177b:	a3 8c 3e 20 f0       	mov    %eax,0xf0203e8c
	memset(kern_pgdir, 0, PGSIZE);
f0101780:	c7 44 24 08 00 10 00 	movl   $0x1000,0x8(%esp)
f0101787:	00 
f0101788:	c7 44 24 04 00 00 00 	movl   $0x0,0x4(%esp)
f010178f:	00 
f0101790:	89 04 24             	mov    %eax,(%esp)
f0101793:	e8 71 47 00 00       	call   f0105f09 <memset>

	// So this mapping enables user code read the content of the page tables.

	// [UVPT, UVPT + 4MB)page table kern_pgdir
	// page table directory  page table
	kern_pgdir[PDX(UVPT)] = PADDR(kern_pgdir) | PTE_U | PTE_P;
f0101798:	a1 8c 3e 20 f0       	mov    0xf0203e8c,%eax
#define PADDR(kva) _paddr(__FILE__, __LINE__, kva)

static inline physaddr_t
_paddr(const char *file, int line, void *kva)
{
	if ((uint32_t)kva < KERNBASE)
f010179d:	3d ff ff ff ef       	cmp    $0xefffffff,%eax
f01017a2:	77 20                	ja     f01017c4 <mem_init+0x12c>
		_panic(file, line, "PADDR called with invalid kva %08lx", kva);
f01017a4:	89 44 24 0c          	mov    %eax,0xc(%esp)
f01017a8:	c7 44 24 08 08 6d 10 	movl   $0xf0106d08,0x8(%esp)
f01017af:	f0 
f01017b0:	c7 44 24 04 a6 00 00 	movl   $0xa6,0x4(%esp)
f01017b7:	00 
f01017b8:	c7 04 24 ad 7b 10 f0 	movl   $0xf0107bad,(%esp)
f01017bf:	e8 7c e8 ff ff       	call   f0100040 <_panic>
	return (physaddr_t)kva - KERNBASE;
f01017c4:	8d 90 00 00 00 10    	lea    0x10000000(%eax),%edx
f01017ca:	83 ca 05             	or     $0x5,%edx
f01017cd:	89 90 f4 0e 00 00    	mov    %edx,0xef4(%eax)
	// Allocate an array of npages 'struct PageInfo's and store it in 'pages'.
	// The kernel uses this array to keep track of physical pages: for
	// each physical page, there is a corresponding struct PageInfo in this
	// array.  'npages' is the number of physical pages in memory.
	// Your code goes here:
	pages = boot_alloc(sizeof(struct PageInfo) * npages);
f01017d3:	a1 88 3e 20 f0       	mov    0xf0203e88,%eax
f01017d8:	c1 e0 03             	shl    $0x3,%eax
f01017db:	e8 cf f3 ff ff       	call   f0100baf <boot_alloc>
f01017e0:	a3 90 3e 20 f0       	mov    %eax,0xf0203e90

	//////////////////////////////////////////////////////////////////////
	// Make 'envs' point to an array of size 'NENV' of 'struct Env'.
	// LAB 3: Your code here.
	envs = boot_alloc(sizeof(struct Env) * NENV);
f01017e5:	b8 00 f0 01 00       	mov    $0x1f000,%eax
f01017ea:	e8 c0 f3 ff ff       	call   f0100baf <boot_alloc>
f01017ef:	a3 4c 32 20 f0       	mov    %eax,0xf020324c
	// Now that we've allocated the initial kernel data structures, we set
	// up the list of free physical pages. Once we've done so, all further
	// memory management will go through the page_* functions. In
	// particular, we can now map memory using boot_map_region
	// or page_insert
	page_init();
f01017f4:	e8 24 f8 ff ff       	call   f010101d <page_init>

	check_page_free_list(1);
f01017f9:	b8 01 00 00 00       	mov    $0x1,%eax
f01017fe:	e8 27 f4 ff ff       	call   f0100c2a <check_page_free_list>
	int nfree;
	struct PageInfo *fl;
	char *c;
	int i;

	if (!pages)
f0101803:	83 3d 90 3e 20 f0 00 	cmpl   $0x0,0xf0203e90
f010180a:	75 1c                	jne    f0101828 <mem_init+0x190>
		panic("'pages' is a null pointer!");
f010180c:	c7 44 24 08 ed 7c 10 	movl   $0xf0107ced,0x8(%esp)
f0101813:	f0 
f0101814:	c7 44 24 04 41 03 00 	movl   $0x341,0x4(%esp)
f010181b:	00 
f010181c:	c7 04 24 ad 7b 10 f0 	movl   $0xf0107bad,(%esp)
f0101823:	e8 18 e8 ff ff       	call   f0100040 <_panic>

	// check number of free pages
	for (pp = page_free_list, nfree = 0; pp; pp = pp->pp_link)
f0101828:	a1 44 32 20 f0       	mov    0xf0203244,%eax
f010182d:	85 c0                	test   %eax,%eax
f010182f:	74 10                	je     f0101841 <mem_init+0x1a9>
f0101831:	bb 00 00 00 00       	mov    $0x0,%ebx
		++nfree;
f0101836:	83 c3 01             	add    $0x1,%ebx

	if (!pages)
		panic("'pages' is a null pointer!");

	// check number of free pages
	for (pp = page_free_list, nfree = 0; pp; pp = pp->pp_link)
f0101839:	8b 00                	mov    (%eax),%eax
f010183b:	85 c0                	test   %eax,%eax
f010183d:	75 f7                	jne    f0101836 <mem_init+0x19e>
f010183f:	eb 05                	jmp    f0101846 <mem_init+0x1ae>
f0101841:	bb 00 00 00 00       	mov    $0x0,%ebx
		++nfree;

	// should be able to allocate three pages
	pp0 = pp1 = pp2 = 0;
	assert((pp0 = page_alloc(0)));
f0101846:	c7 04 24 00 00 00 00 	movl   $0x0,(%esp)
f010184d:	e8 dc f9 ff ff       	call   f010122e <page_alloc>
f0101852:	89 c7                	mov    %eax,%edi
f0101854:	85 c0                	test   %eax,%eax
f0101856:	75 24                	jne    f010187c <mem_init+0x1e4>
f0101858:	c7 44 24 0c 08 7d 10 	movl   $0xf0107d08,0xc(%esp)
f010185f:	f0 
f0101860:	c7 44 24 08 d3 7b 10 	movl   $0xf0107bd3,0x8(%esp)
f0101867:	f0 
f0101868:	c7 44 24 04 49 03 00 	movl   $0x349,0x4(%esp)
f010186f:	00 
f0101870:	c7 04 24 ad 7b 10 f0 	movl   $0xf0107bad,(%esp)
f0101877:	e8 c4 e7 ff ff       	call   f0100040 <_panic>
	assert((pp1 = page_alloc(0)));
f010187c:	c7 04 24 00 00 00 00 	movl   $0x0,(%esp)
f0101883:	e8 a6 f9 ff ff       	call   f010122e <page_alloc>
f0101888:	89 c6                	mov    %eax,%esi
f010188a:	85 c0                	test   %eax,%eax
f010188c:	75 24                	jne    f01018b2 <mem_init+0x21a>
f010188e:	c7 44 24 0c 1e 7d 10 	movl   $0xf0107d1e,0xc(%esp)
f0101895:	f0 
f0101896:	c7 44 24 08 d3 7b 10 	movl   $0xf0107bd3,0x8(%esp)
f010189d:	f0 
f010189e:	c7 44 24 04 4a 03 00 	movl   $0x34a,0x4(%esp)
f01018a5:	00 
f01018a6:	c7 04 24 ad 7b 10 f0 	movl   $0xf0107bad,(%esp)
f01018ad:	e8 8e e7 ff ff       	call   f0100040 <_panic>
	assert((pp2 = page_alloc(0)));
f01018b2:	c7 04 24 00 00 00 00 	movl   $0x0,(%esp)
f01018b9:	e8 70 f9 ff ff       	call   f010122e <page_alloc>
f01018be:	89 45 d4             	mov    %eax,-0x2c(%ebp)
f01018c1:	85 c0                	test   %eax,%eax
f01018c3:	75 24                	jne    f01018e9 <mem_init+0x251>
f01018c5:	c7 44 24 0c 34 7d 10 	movl   $0xf0107d34,0xc(%esp)
f01018cc:	f0 
f01018cd:	c7 44 24 08 d3 7b 10 	movl   $0xf0107bd3,0x8(%esp)
f01018d4:	f0 
f01018d5:	c7 44 24 04 4b 03 00 	movl   $0x34b,0x4(%esp)
f01018dc:	00 
f01018dd:	c7 04 24 ad 7b 10 f0 	movl   $0xf0107bad,(%esp)
f01018e4:	e8 57 e7 ff ff       	call   f0100040 <_panic>

	assert(pp0);
	assert(pp1 && pp1 != pp0);
f01018e9:	39 f7                	cmp    %esi,%edi
f01018eb:	75 24                	jne    f0101911 <mem_init+0x279>
f01018ed:	c7 44 24 0c 4a 7d 10 	movl   $0xf0107d4a,0xc(%esp)
f01018f4:	f0 
f01018f5:	c7 44 24 08 d3 7b 10 	movl   $0xf0107bd3,0x8(%esp)
f01018fc:	f0 
f01018fd:	c7 44 24 04 4e 03 00 	movl   $0x34e,0x4(%esp)
f0101904:	00 
f0101905:	c7 04 24 ad 7b 10 f0 	movl   $0xf0107bad,(%esp)
f010190c:	e8 2f e7 ff ff       	call   f0100040 <_panic>
	assert(pp2 && pp2 != pp1 && pp2 != pp0);
f0101911:	8b 45 d4             	mov    -0x2c(%ebp),%eax
f0101914:	39 c6                	cmp    %eax,%esi
f0101916:	74 04                	je     f010191c <mem_init+0x284>
f0101918:	39 c7                	cmp    %eax,%edi
f010191a:	75 24                	jne    f0101940 <mem_init+0x2a8>
f010191c:	c7 44 24 0c 08 74 10 	movl   $0xf0107408,0xc(%esp)
f0101923:	f0 
f0101924:	c7 44 24 08 d3 7b 10 	movl   $0xf0107bd3,0x8(%esp)
f010192b:	f0 
f010192c:	c7 44 24 04 4f 03 00 	movl   $0x34f,0x4(%esp)
f0101933:	00 
f0101934:	c7 04 24 ad 7b 10 f0 	movl   $0xf0107bad,(%esp)
f010193b:	e8 00 e7 ff ff       	call   f0100040 <_panic>
void	user_mem_assert(struct Env *env, const void *va, size_t len, int perm);

static inline physaddr_t
page2pa(struct PageInfo *pp)
{
	return (pp - pages) << PGSHIFT;
f0101940:	8b 15 90 3e 20 f0    	mov    0xf0203e90,%edx
	assert(page2pa(pp0) < npages*PGSIZE);
f0101946:	a1 88 3e 20 f0       	mov    0xf0203e88,%eax
f010194b:	c1 e0 0c             	shl    $0xc,%eax
f010194e:	89 f9                	mov    %edi,%ecx
f0101950:	29 d1                	sub    %edx,%ecx
f0101952:	c1 f9 03             	sar    $0x3,%ecx
f0101955:	c1 e1 0c             	shl    $0xc,%ecx
f0101958:	39 c1                	cmp    %eax,%ecx
f010195a:	72 24                	jb     f0101980 <mem_init+0x2e8>
f010195c:	c7 44 24 0c 5c 7d 10 	movl   $0xf0107d5c,0xc(%esp)
f0101963:	f0 
f0101964:	c7 44 24 08 d3 7b 10 	movl   $0xf0107bd3,0x8(%esp)
f010196b:	f0 
f010196c:	c7 44 24 04 50 03 00 	movl   $0x350,0x4(%esp)
f0101973:	00 
f0101974:	c7 04 24 ad 7b 10 f0 	movl   $0xf0107bad,(%esp)
f010197b:	e8 c0 e6 ff ff       	call   f0100040 <_panic>
f0101980:	89 f1                	mov    %esi,%ecx
f0101982:	29 d1                	sub    %edx,%ecx
f0101984:	c1 f9 03             	sar    $0x3,%ecx
f0101987:	c1 e1 0c             	shl    $0xc,%ecx
	assert(page2pa(pp1) < npages*PGSIZE);
f010198a:	39 c8                	cmp    %ecx,%eax
f010198c:	77 24                	ja     f01019b2 <mem_init+0x31a>
f010198e:	c7 44 24 0c 79 7d 10 	movl   $0xf0107d79,0xc(%esp)
f0101995:	f0 
f0101996:	c7 44 24 08 d3 7b 10 	movl   $0xf0107bd3,0x8(%esp)
f010199d:	f0 
f010199e:	c7 44 24 04 51 03 00 	movl   $0x351,0x4(%esp)
f01019a5:	00 
f01019a6:	c7 04 24 ad 7b 10 f0 	movl   $0xf0107bad,(%esp)
f01019ad:	e8 8e e6 ff ff       	call   f0100040 <_panic>
f01019b2:	8b 4d d4             	mov    -0x2c(%ebp),%ecx
f01019b5:	29 d1                	sub    %edx,%ecx
f01019b7:	89 ca                	mov    %ecx,%edx
f01019b9:	c1 fa 03             	sar    $0x3,%edx
f01019bc:	c1 e2 0c             	shl    $0xc,%edx
	assert(page2pa(pp2) < npages*PGSIZE);
f01019bf:	39 d0                	cmp    %edx,%eax
f01019c1:	77 24                	ja     f01019e7 <mem_init+0x34f>
f01019c3:	c7 44 24 0c 96 7d 10 	movl   $0xf0107d96,0xc(%esp)
f01019ca:	f0 
f01019cb:	c7 44 24 08 d3 7b 10 	movl   $0xf0107bd3,0x8(%esp)
f01019d2:	f0 
f01019d3:	c7 44 24 04 52 03 00 	movl   $0x352,0x4(%esp)
f01019da:	00 
f01019db:	c7 04 24 ad 7b 10 f0 	movl   $0xf0107bad,(%esp)
f01019e2:	e8 59 e6 ff ff       	call   f0100040 <_panic>

	// temporarily steal the rest of the free pages
	fl = page_free_list;
f01019e7:	a1 44 32 20 f0       	mov    0xf0203244,%eax
f01019ec:	89 45 d0             	mov    %eax,-0x30(%ebp)
	page_free_list = 0;
f01019ef:	c7 05 44 32 20 f0 00 	movl   $0x0,0xf0203244
f01019f6:	00 00 00 

	// should be no free memory
	assert(!page_alloc(0));
f01019f9:	c7 04 24 00 00 00 00 	movl   $0x0,(%esp)
f0101a00:	e8 29 f8 ff ff       	call   f010122e <page_alloc>
f0101a05:	85 c0                	test   %eax,%eax
f0101a07:	74 24                	je     f0101a2d <mem_init+0x395>
f0101a09:	c7 44 24 0c b3 7d 10 	movl   $0xf0107db3,0xc(%esp)
f0101a10:	f0 
f0101a11:	c7 44 24 08 d3 7b 10 	movl   $0xf0107bd3,0x8(%esp)
f0101a18:	f0 
f0101a19:	c7 44 24 04 59 03 00 	movl   $0x359,0x4(%esp)
f0101a20:	00 
f0101a21:	c7 04 24 ad 7b 10 f0 	movl   $0xf0107bad,(%esp)
f0101a28:	e8 13 e6 ff ff       	call   f0100040 <_panic>

	// free and re-allocate?
	page_free(pp0);
f0101a2d:	89 3c 24             	mov    %edi,(%esp)
f0101a30:	e8 7e f8 ff ff       	call   f01012b3 <page_free>
	page_free(pp1);
f0101a35:	89 34 24             	mov    %esi,(%esp)
f0101a38:	e8 76 f8 ff ff       	call   f01012b3 <page_free>
	page_free(pp2);
f0101a3d:	8b 45 d4             	mov    -0x2c(%ebp),%eax
f0101a40:	89 04 24             	mov    %eax,(%esp)
f0101a43:	e8 6b f8 ff ff       	call   f01012b3 <page_free>
	pp0 = pp1 = pp2 = 0;
	assert((pp0 = page_alloc(0)));
f0101a48:	c7 04 24 00 00 00 00 	movl   $0x0,(%esp)
f0101a4f:	e8 da f7 ff ff       	call   f010122e <page_alloc>
f0101a54:	89 c6                	mov    %eax,%esi
f0101a56:	85 c0                	test   %eax,%eax
f0101a58:	75 24                	jne    f0101a7e <mem_init+0x3e6>
f0101a5a:	c7 44 24 0c 08 7d 10 	movl   $0xf0107d08,0xc(%esp)
f0101a61:	f0 
f0101a62:	c7 44 24 08 d3 7b 10 	movl   $0xf0107bd3,0x8(%esp)
f0101a69:	f0 
f0101a6a:	c7 44 24 04 60 03 00 	movl   $0x360,0x4(%esp)
f0101a71:	00 
f0101a72:	c7 04 24 ad 7b 10 f0 	movl   $0xf0107bad,(%esp)
f0101a79:	e8 c2 e5 ff ff       	call   f0100040 <_panic>
	assert((pp1 = page_alloc(0)));
f0101a7e:	c7 04 24 00 00 00 00 	movl   $0x0,(%esp)
f0101a85:	e8 a4 f7 ff ff       	call   f010122e <page_alloc>
f0101a8a:	89 c7                	mov    %eax,%edi
f0101a8c:	85 c0                	test   %eax,%eax
f0101a8e:	75 24                	jne    f0101ab4 <mem_init+0x41c>
f0101a90:	c7 44 24 0c 1e 7d 10 	movl   $0xf0107d1e,0xc(%esp)
f0101a97:	f0 
f0101a98:	c7 44 24 08 d3 7b 10 	movl   $0xf0107bd3,0x8(%esp)
f0101a9f:	f0 
f0101aa0:	c7 44 24 04 61 03 00 	movl   $0x361,0x4(%esp)
f0101aa7:	00 
f0101aa8:	c7 04 24 ad 7b 10 f0 	movl   $0xf0107bad,(%esp)
f0101aaf:	e8 8c e5 ff ff       	call   f0100040 <_panic>
	assert((pp2 = page_alloc(0)));
f0101ab4:	c7 04 24 00 00 00 00 	movl   $0x0,(%esp)
f0101abb:	e8 6e f7 ff ff       	call   f010122e <page_alloc>
f0101ac0:	89 45 d4             	mov    %eax,-0x2c(%ebp)
f0101ac3:	85 c0                	test   %eax,%eax
f0101ac5:	75 24                	jne    f0101aeb <mem_init+0x453>
f0101ac7:	c7 44 24 0c 34 7d 10 	movl   $0xf0107d34,0xc(%esp)
f0101ace:	f0 
f0101acf:	c7 44 24 08 d3 7b 10 	movl   $0xf0107bd3,0x8(%esp)
f0101ad6:	f0 
f0101ad7:	c7 44 24 04 62 03 00 	movl   $0x362,0x4(%esp)
f0101ade:	00 
f0101adf:	c7 04 24 ad 7b 10 f0 	movl   $0xf0107bad,(%esp)
f0101ae6:	e8 55 e5 ff ff       	call   f0100040 <_panic>
	assert(pp0);
	assert(pp1 && pp1 != pp0);
f0101aeb:	39 fe                	cmp    %edi,%esi
f0101aed:	75 24                	jne    f0101b13 <mem_init+0x47b>
f0101aef:	c7 44 24 0c 4a 7d 10 	movl   $0xf0107d4a,0xc(%esp)
f0101af6:	f0 
f0101af7:	c7 44 24 08 d3 7b 10 	movl   $0xf0107bd3,0x8(%esp)
f0101afe:	f0 
f0101aff:	c7 44 24 04 64 03 00 	movl   $0x364,0x4(%esp)
f0101b06:	00 
f0101b07:	c7 04 24 ad 7b 10 f0 	movl   $0xf0107bad,(%esp)
f0101b0e:	e8 2d e5 ff ff       	call   f0100040 <_panic>
	assert(pp2 && pp2 != pp1 && pp2 != pp0);
f0101b13:	8b 45 d4             	mov    -0x2c(%ebp),%eax
f0101b16:	39 c7                	cmp    %eax,%edi
f0101b18:	74 04                	je     f0101b1e <mem_init+0x486>
f0101b1a:	39 c6                	cmp    %eax,%esi
f0101b1c:	75 24                	jne    f0101b42 <mem_init+0x4aa>
f0101b1e:	c7 44 24 0c 08 74 10 	movl   $0xf0107408,0xc(%esp)
f0101b25:	f0 
f0101b26:	c7 44 24 08 d3 7b 10 	movl   $0xf0107bd3,0x8(%esp)
f0101b2d:	f0 
f0101b2e:	c7 44 24 04 65 03 00 	movl   $0x365,0x4(%esp)
f0101b35:	00 
f0101b36:	c7 04 24 ad 7b 10 f0 	movl   $0xf0107bad,(%esp)
f0101b3d:	e8 fe e4 ff ff       	call   f0100040 <_panic>
	assert(!page_alloc(0));
f0101b42:	c7 04 24 00 00 00 00 	movl   $0x0,(%esp)
f0101b49:	e8 e0 f6 ff ff       	call   f010122e <page_alloc>
f0101b4e:	85 c0                	test   %eax,%eax
f0101b50:	74 24                	je     f0101b76 <mem_init+0x4de>
f0101b52:	c7 44 24 0c b3 7d 10 	movl   $0xf0107db3,0xc(%esp)
f0101b59:	f0 
f0101b5a:	c7 44 24 08 d3 7b 10 	movl   $0xf0107bd3,0x8(%esp)
f0101b61:	f0 
f0101b62:	c7 44 24 04 66 03 00 	movl   $0x366,0x4(%esp)
f0101b69:	00 
f0101b6a:	c7 04 24 ad 7b 10 f0 	movl   $0xf0107bad,(%esp)
f0101b71:	e8 ca e4 ff ff       	call   f0100040 <_panic>
f0101b76:	89 f0                	mov    %esi,%eax
f0101b78:	2b 05 90 3e 20 f0    	sub    0xf0203e90,%eax
f0101b7e:	c1 f8 03             	sar    $0x3,%eax
f0101b81:	c1 e0 0c             	shl    $0xc,%eax
#define KADDR(pa) _kaddr(__FILE__, __LINE__, pa)

static inline void*
_kaddr(const char *file, int line, physaddr_t pa)
{
	if (PGNUM(pa) >= npages)
f0101b84:	89 c2                	mov    %eax,%edx
f0101b86:	c1 ea 0c             	shr    $0xc,%edx
f0101b89:	3b 15 88 3e 20 f0    	cmp    0xf0203e88,%edx
f0101b8f:	72 20                	jb     f0101bb1 <mem_init+0x519>
		_panic(file, line, "KADDR called with invalid pa %08lx", pa);
f0101b91:	89 44 24 0c          	mov    %eax,0xc(%esp)
f0101b95:	c7 44 24 08 e4 6c 10 	movl   $0xf0106ce4,0x8(%esp)
f0101b9c:	f0 
f0101b9d:	c7 44 24 04 58 00 00 	movl   $0x58,0x4(%esp)
f0101ba4:	00 
f0101ba5:	c7 04 24 b9 7b 10 f0 	movl   $0xf0107bb9,(%esp)
f0101bac:	e8 8f e4 ff ff       	call   f0100040 <_panic>

	// test flags
	memset(page2kva(pp0), 1, PGSIZE);
f0101bb1:	c7 44 24 08 00 10 00 	movl   $0x1000,0x8(%esp)
f0101bb8:	00 
f0101bb9:	c7 44 24 04 01 00 00 	movl   $0x1,0x4(%esp)
f0101bc0:	00 
	return (void *)(pa + KERNBASE);
f0101bc1:	2d 00 00 00 10       	sub    $0x10000000,%eax
f0101bc6:	89 04 24             	mov    %eax,(%esp)
f0101bc9:	e8 3b 43 00 00       	call   f0105f09 <memset>
	page_free(pp0);
f0101bce:	89 34 24             	mov    %esi,(%esp)
f0101bd1:	e8 dd f6 ff ff       	call   f01012b3 <page_free>
	assert((pp = page_alloc(ALLOC_ZERO)));
f0101bd6:	c7 04 24 01 00 00 00 	movl   $0x1,(%esp)
f0101bdd:	e8 4c f6 ff ff       	call   f010122e <page_alloc>
f0101be2:	85 c0                	test   %eax,%eax
f0101be4:	75 24                	jne    f0101c0a <mem_init+0x572>
f0101be6:	c7 44 24 0c c2 7d 10 	movl   $0xf0107dc2,0xc(%esp)
f0101bed:	f0 
f0101bee:	c7 44 24 08 d3 7b 10 	movl   $0xf0107bd3,0x8(%esp)
f0101bf5:	f0 
f0101bf6:	c7 44 24 04 6b 03 00 	movl   $0x36b,0x4(%esp)
f0101bfd:	00 
f0101bfe:	c7 04 24 ad 7b 10 f0 	movl   $0xf0107bad,(%esp)
f0101c05:	e8 36 e4 ff ff       	call   f0100040 <_panic>
	assert(pp && pp0 == pp);
f0101c0a:	39 c6                	cmp    %eax,%esi
f0101c0c:	74 24                	je     f0101c32 <mem_init+0x59a>
f0101c0e:	c7 44 24 0c e0 7d 10 	movl   $0xf0107de0,0xc(%esp)
f0101c15:	f0 
f0101c16:	c7 44 24 08 d3 7b 10 	movl   $0xf0107bd3,0x8(%esp)
f0101c1d:	f0 
f0101c1e:	c7 44 24 04 6c 03 00 	movl   $0x36c,0x4(%esp)
f0101c25:	00 
f0101c26:	c7 04 24 ad 7b 10 f0 	movl   $0xf0107bad,(%esp)
f0101c2d:	e8 0e e4 ff ff       	call   f0100040 <_panic>
void	user_mem_assert(struct Env *env, const void *va, size_t len, int perm);

static inline physaddr_t
page2pa(struct PageInfo *pp)
{
	return (pp - pages) << PGSHIFT;
f0101c32:	89 f2                	mov    %esi,%edx
f0101c34:	2b 15 90 3e 20 f0    	sub    0xf0203e90,%edx
f0101c3a:	c1 fa 03             	sar    $0x3,%edx
f0101c3d:	c1 e2 0c             	shl    $0xc,%edx
#define KADDR(pa) _kaddr(__FILE__, __LINE__, pa)

static inline void*
_kaddr(const char *file, int line, physaddr_t pa)
{
	if (PGNUM(pa) >= npages)
f0101c40:	89 d0                	mov    %edx,%eax
f0101c42:	c1 e8 0c             	shr    $0xc,%eax
f0101c45:	3b 05 88 3e 20 f0    	cmp    0xf0203e88,%eax
f0101c4b:	72 20                	jb     f0101c6d <mem_init+0x5d5>
		_panic(file, line, "KADDR called with invalid pa %08lx", pa);
f0101c4d:	89 54 24 0c          	mov    %edx,0xc(%esp)
f0101c51:	c7 44 24 08 e4 6c 10 	movl   $0xf0106ce4,0x8(%esp)
f0101c58:	f0 
f0101c59:	c7 44 24 04 58 00 00 	movl   $0x58,0x4(%esp)
f0101c60:	00 
f0101c61:	c7 04 24 b9 7b 10 f0 	movl   $0xf0107bb9,(%esp)
f0101c68:	e8 d3 e3 ff ff       	call   f0100040 <_panic>
	c = page2kva(pp);
	for (i = 0; i < PGSIZE; i++)
		assert(c[i] == 0);
f0101c6d:	80 ba 00 00 00 f0 00 	cmpb   $0x0,-0x10000000(%edx)
f0101c74:	75 11                	jne    f0101c87 <mem_init+0x5ef>
f0101c76:	8d 82 01 00 00 f0    	lea    -0xfffffff(%edx),%eax
f0101c7c:	81 ea 00 f0 ff 0f    	sub    $0xffff000,%edx
f0101c82:	80 38 00             	cmpb   $0x0,(%eax)
f0101c85:	74 24                	je     f0101cab <mem_init+0x613>
f0101c87:	c7 44 24 0c f0 7d 10 	movl   $0xf0107df0,0xc(%esp)
f0101c8e:	f0 
f0101c8f:	c7 44 24 08 d3 7b 10 	movl   $0xf0107bd3,0x8(%esp)
f0101c96:	f0 
f0101c97:	c7 44 24 04 6f 03 00 	movl   $0x36f,0x4(%esp)
f0101c9e:	00 
f0101c9f:	c7 04 24 ad 7b 10 f0 	movl   $0xf0107bad,(%esp)
f0101ca6:	e8 95 e3 ff ff       	call   f0100040 <_panic>
f0101cab:	83 c0 01             	add    $0x1,%eax
	memset(page2kva(pp0), 1, PGSIZE);
	page_free(pp0);
	assert((pp = page_alloc(ALLOC_ZERO)));
	assert(pp && pp0 == pp);
	c = page2kva(pp);
	for (i = 0; i < PGSIZE; i++)
f0101cae:	39 d0                	cmp    %edx,%eax
f0101cb0:	75 d0                	jne    f0101c82 <mem_init+0x5ea>
		assert(c[i] == 0);

	// give free list back
	page_free_list = fl;
f0101cb2:	8b 45 d0             	mov    -0x30(%ebp),%eax
f0101cb5:	a3 44 32 20 f0       	mov    %eax,0xf0203244

	// free the pages we took
	page_free(pp0);
f0101cba:	89 34 24             	mov    %esi,(%esp)
f0101cbd:	e8 f1 f5 ff ff       	call   f01012b3 <page_free>
	page_free(pp1);
f0101cc2:	89 3c 24             	mov    %edi,(%esp)
f0101cc5:	e8 e9 f5 ff ff       	call   f01012b3 <page_free>
	page_free(pp2);
f0101cca:	8b 45 d4             	mov    -0x2c(%ebp),%eax
f0101ccd:	89 04 24             	mov    %eax,(%esp)
f0101cd0:	e8 de f5 ff ff       	call   f01012b3 <page_free>

	// number of free pages should be the same
	for (pp = page_free_list; pp; pp = pp->pp_link)
f0101cd5:	a1 44 32 20 f0       	mov    0xf0203244,%eax
f0101cda:	85 c0                	test   %eax,%eax
f0101cdc:	74 09                	je     f0101ce7 <mem_init+0x64f>
		--nfree;
f0101cde:	83 eb 01             	sub    $0x1,%ebx
	page_free(pp0);
	page_free(pp1);
	page_free(pp2);

	// number of free pages should be the same
	for (pp = page_free_list; pp; pp = pp->pp_link)
f0101ce1:	8b 00                	mov    (%eax),%eax
f0101ce3:	85 c0                	test   %eax,%eax
f0101ce5:	75 f7                	jne    f0101cde <mem_init+0x646>
		--nfree;
	assert(nfree == 0);
f0101ce7:	85 db                	test   %ebx,%ebx
f0101ce9:	74 24                	je     f0101d0f <mem_init+0x677>
f0101ceb:	c7 44 24 0c fa 7d 10 	movl   $0xf0107dfa,0xc(%esp)
f0101cf2:	f0 
f0101cf3:	c7 44 24 08 d3 7b 10 	movl   $0xf0107bd3,0x8(%esp)
f0101cfa:	f0 
f0101cfb:	c7 44 24 04 7c 03 00 	movl   $0x37c,0x4(%esp)
f0101d02:	00 
f0101d03:	c7 04 24 ad 7b 10 f0 	movl   $0xf0107bad,(%esp)
f0101d0a:	e8 31 e3 ff ff       	call   f0100040 <_panic>

	cprintf("check_page_alloc() succeeded!\n");
f0101d0f:	c7 04 24 28 74 10 f0 	movl   $0xf0107428,(%esp)
f0101d16:	e8 4a 24 00 00       	call   f0104165 <cprintf>
	int i;
	extern pde_t entry_pgdir[];

	// should be able to allocate three pages
	pp0 = pp1 = pp2 = 0;
	assert((pp0 = page_alloc(0)));
f0101d1b:	c7 04 24 00 00 00 00 	movl   $0x0,(%esp)
f0101d22:	e8 07 f5 ff ff       	call   f010122e <page_alloc>
f0101d27:	89 c6                	mov    %eax,%esi
f0101d29:	85 c0                	test   %eax,%eax
f0101d2b:	75 24                	jne    f0101d51 <mem_init+0x6b9>
f0101d2d:	c7 44 24 0c 08 7d 10 	movl   $0xf0107d08,0xc(%esp)
f0101d34:	f0 
f0101d35:	c7 44 24 08 d3 7b 10 	movl   $0xf0107bd3,0x8(%esp)
f0101d3c:	f0 
f0101d3d:	c7 44 24 04 e7 03 00 	movl   $0x3e7,0x4(%esp)
f0101d44:	00 
f0101d45:	c7 04 24 ad 7b 10 f0 	movl   $0xf0107bad,(%esp)
f0101d4c:	e8 ef e2 ff ff       	call   f0100040 <_panic>
	assert((pp1 = page_alloc(0)));
f0101d51:	c7 04 24 00 00 00 00 	movl   $0x0,(%esp)
f0101d58:	e8 d1 f4 ff ff       	call   f010122e <page_alloc>
f0101d5d:	89 45 d4             	mov    %eax,-0x2c(%ebp)
f0101d60:	85 c0                	test   %eax,%eax
f0101d62:	75 24                	jne    f0101d88 <mem_init+0x6f0>
f0101d64:	c7 44 24 0c 1e 7d 10 	movl   $0xf0107d1e,0xc(%esp)
f0101d6b:	f0 
f0101d6c:	c7 44 24 08 d3 7b 10 	movl   $0xf0107bd3,0x8(%esp)
f0101d73:	f0 
f0101d74:	c7 44 24 04 e8 03 00 	movl   $0x3e8,0x4(%esp)
f0101d7b:	00 
f0101d7c:	c7 04 24 ad 7b 10 f0 	movl   $0xf0107bad,(%esp)
f0101d83:	e8 b8 e2 ff ff       	call   f0100040 <_panic>
	assert((pp2 = page_alloc(0)));
f0101d88:	c7 04 24 00 00 00 00 	movl   $0x0,(%esp)
f0101d8f:	e8 9a f4 ff ff       	call   f010122e <page_alloc>
f0101d94:	89 c3                	mov    %eax,%ebx
f0101d96:	85 c0                	test   %eax,%eax
f0101d98:	75 24                	jne    f0101dbe <mem_init+0x726>
f0101d9a:	c7 44 24 0c 34 7d 10 	movl   $0xf0107d34,0xc(%esp)
f0101da1:	f0 
f0101da2:	c7 44 24 08 d3 7b 10 	movl   $0xf0107bd3,0x8(%esp)
f0101da9:	f0 
f0101daa:	c7 44 24 04 e9 03 00 	movl   $0x3e9,0x4(%esp)
f0101db1:	00 
f0101db2:	c7 04 24 ad 7b 10 f0 	movl   $0xf0107bad,(%esp)
f0101db9:	e8 82 e2 ff ff       	call   f0100040 <_panic>

	assert(pp0);
	assert(pp1 && pp1 != pp0);
f0101dbe:	3b 75 d4             	cmp    -0x2c(%ebp),%esi
f0101dc1:	75 24                	jne    f0101de7 <mem_init+0x74f>
f0101dc3:	c7 44 24 0c 4a 7d 10 	movl   $0xf0107d4a,0xc(%esp)
f0101dca:	f0 
f0101dcb:	c7 44 24 08 d3 7b 10 	movl   $0xf0107bd3,0x8(%esp)
f0101dd2:	f0 
f0101dd3:	c7 44 24 04 ec 03 00 	movl   $0x3ec,0x4(%esp)
f0101dda:	00 
f0101ddb:	c7 04 24 ad 7b 10 f0 	movl   $0xf0107bad,(%esp)
f0101de2:	e8 59 e2 ff ff       	call   f0100040 <_panic>
	assert(pp2 && pp2 != pp1 && pp2 != pp0);
f0101de7:	39 45 d4             	cmp    %eax,-0x2c(%ebp)
f0101dea:	74 04                	je     f0101df0 <mem_init+0x758>
f0101dec:	39 c6                	cmp    %eax,%esi
f0101dee:	75 24                	jne    f0101e14 <mem_init+0x77c>
f0101df0:	c7 44 24 0c 08 74 10 	movl   $0xf0107408,0xc(%esp)
f0101df7:	f0 
f0101df8:	c7 44 24 08 d3 7b 10 	movl   $0xf0107bd3,0x8(%esp)
f0101dff:	f0 
f0101e00:	c7 44 24 04 ed 03 00 	movl   $0x3ed,0x4(%esp)
f0101e07:	00 
f0101e08:	c7 04 24 ad 7b 10 f0 	movl   $0xf0107bad,(%esp)
f0101e0f:	e8 2c e2 ff ff       	call   f0100040 <_panic>

	// temporarily steal the rest of the free pages
	fl = page_free_list;
f0101e14:	a1 44 32 20 f0       	mov    0xf0203244,%eax
f0101e19:	89 45 d0             	mov    %eax,-0x30(%ebp)
	page_free_list = 0;
f0101e1c:	c7 05 44 32 20 f0 00 	movl   $0x0,0xf0203244
f0101e23:	00 00 00 

	// should be no free memory
	assert(!page_alloc(0));
f0101e26:	c7 04 24 00 00 00 00 	movl   $0x0,(%esp)
f0101e2d:	e8 fc f3 ff ff       	call   f010122e <page_alloc>
f0101e32:	85 c0                	test   %eax,%eax
f0101e34:	74 24                	je     f0101e5a <mem_init+0x7c2>
f0101e36:	c7 44 24 0c b3 7d 10 	movl   $0xf0107db3,0xc(%esp)
f0101e3d:	f0 
f0101e3e:	c7 44 24 08 d3 7b 10 	movl   $0xf0107bd3,0x8(%esp)
f0101e45:	f0 
f0101e46:	c7 44 24 04 f4 03 00 	movl   $0x3f4,0x4(%esp)
f0101e4d:	00 
f0101e4e:	c7 04 24 ad 7b 10 f0 	movl   $0xf0107bad,(%esp)
f0101e55:	e8 e6 e1 ff ff       	call   f0100040 <_panic>

	// there is no page allocated at address 0
	assert(page_lookup(kern_pgdir, (void *) 0x0, &ptep) == NULL);
f0101e5a:	8d 45 e4             	lea    -0x1c(%ebp),%eax
f0101e5d:	89 44 24 08          	mov    %eax,0x8(%esp)
f0101e61:	c7 44 24 04 00 00 00 	movl   $0x0,0x4(%esp)
f0101e68:	00 
f0101e69:	a1 8c 3e 20 f0       	mov    0xf0203e8c,%eax
f0101e6e:	89 04 24             	mov    %eax,(%esp)
f0101e71:	e8 44 f6 ff ff       	call   f01014ba <page_lookup>
f0101e76:	85 c0                	test   %eax,%eax
f0101e78:	74 24                	je     f0101e9e <mem_init+0x806>
f0101e7a:	c7 44 24 0c 48 74 10 	movl   $0xf0107448,0xc(%esp)
f0101e81:	f0 
f0101e82:	c7 44 24 08 d3 7b 10 	movl   $0xf0107bd3,0x8(%esp)
f0101e89:	f0 
f0101e8a:	c7 44 24 04 f7 03 00 	movl   $0x3f7,0x4(%esp)
f0101e91:	00 
f0101e92:	c7 04 24 ad 7b 10 f0 	movl   $0xf0107bad,(%esp)
f0101e99:	e8 a2 e1 ff ff       	call   f0100040 <_panic>

	// there is no free memory, so we can't allocate a page table
	assert(page_insert(kern_pgdir, pp1, 0x0, PTE_W) < 0);
f0101e9e:	c7 44 24 0c 02 00 00 	movl   $0x2,0xc(%esp)
f0101ea5:	00 
f0101ea6:	c7 44 24 08 00 00 00 	movl   $0x0,0x8(%esp)
f0101ead:	00 
f0101eae:	8b 45 d4             	mov    -0x2c(%ebp),%eax
f0101eb1:	89 44 24 04          	mov    %eax,0x4(%esp)
f0101eb5:	a1 8c 3e 20 f0       	mov    0xf0203e8c,%eax
f0101eba:	89 04 24             	mov    %eax,(%esp)
f0101ebd:	e8 cc f6 ff ff       	call   f010158e <page_insert>
f0101ec2:	85 c0                	test   %eax,%eax
f0101ec4:	78 24                	js     f0101eea <mem_init+0x852>
f0101ec6:	c7 44 24 0c 80 74 10 	movl   $0xf0107480,0xc(%esp)
f0101ecd:	f0 
f0101ece:	c7 44 24 08 d3 7b 10 	movl   $0xf0107bd3,0x8(%esp)
f0101ed5:	f0 
f0101ed6:	c7 44 24 04 fa 03 00 	movl   $0x3fa,0x4(%esp)
f0101edd:	00 
f0101ede:	c7 04 24 ad 7b 10 f0 	movl   $0xf0107bad,(%esp)
f0101ee5:	e8 56 e1 ff ff       	call   f0100040 <_panic>

	// free pp0 and try again: pp0 should be used for page table
	page_free(pp0);
f0101eea:	89 34 24             	mov    %esi,(%esp)
f0101eed:	e8 c1 f3 ff ff       	call   f01012b3 <page_free>
	assert(page_insert(kern_pgdir, pp1, 0x0, PTE_W) == 0);
f0101ef2:	c7 44 24 0c 02 00 00 	movl   $0x2,0xc(%esp)
f0101ef9:	00 
f0101efa:	c7 44 24 08 00 00 00 	movl   $0x0,0x8(%esp)
f0101f01:	00 
f0101f02:	8b 45 d4             	mov    -0x2c(%ebp),%eax
f0101f05:	89 44 24 04          	mov    %eax,0x4(%esp)
f0101f09:	a1 8c 3e 20 f0       	mov    0xf0203e8c,%eax
f0101f0e:	89 04 24             	mov    %eax,(%esp)
f0101f11:	e8 78 f6 ff ff       	call   f010158e <page_insert>
f0101f16:	85 c0                	test   %eax,%eax
f0101f18:	74 24                	je     f0101f3e <mem_init+0x8a6>
f0101f1a:	c7 44 24 0c b0 74 10 	movl   $0xf01074b0,0xc(%esp)
f0101f21:	f0 
f0101f22:	c7 44 24 08 d3 7b 10 	movl   $0xf0107bd3,0x8(%esp)
f0101f29:	f0 
f0101f2a:	c7 44 24 04 fe 03 00 	movl   $0x3fe,0x4(%esp)
f0101f31:	00 
f0101f32:	c7 04 24 ad 7b 10 f0 	movl   $0xf0107bad,(%esp)
f0101f39:	e8 02 e1 ff ff       	call   f0100040 <_panic>
	assert(PTE_ADDR(kern_pgdir[0]) == page2pa(pp0));
f0101f3e:	8b 3d 8c 3e 20 f0    	mov    0xf0203e8c,%edi
void	user_mem_assert(struct Env *env, const void *va, size_t len, int perm);

static inline physaddr_t
page2pa(struct PageInfo *pp)
{
	return (pp - pages) << PGSHIFT;
f0101f44:	a1 90 3e 20 f0       	mov    0xf0203e90,%eax
f0101f49:	89 45 cc             	mov    %eax,-0x34(%ebp)
f0101f4c:	8b 17                	mov    (%edi),%edx
f0101f4e:	81 e2 00 f0 ff ff    	and    $0xfffff000,%edx
f0101f54:	89 f1                	mov    %esi,%ecx
f0101f56:	29 c1                	sub    %eax,%ecx
f0101f58:	89 c8                	mov    %ecx,%eax
f0101f5a:	c1 f8 03             	sar    $0x3,%eax
f0101f5d:	c1 e0 0c             	shl    $0xc,%eax
f0101f60:	39 c2                	cmp    %eax,%edx
f0101f62:	74 24                	je     f0101f88 <mem_init+0x8f0>
f0101f64:	c7 44 24 0c e0 74 10 	movl   $0xf01074e0,0xc(%esp)
f0101f6b:	f0 
f0101f6c:	c7 44 24 08 d3 7b 10 	movl   $0xf0107bd3,0x8(%esp)
f0101f73:	f0 
f0101f74:	c7 44 24 04 ff 03 00 	movl   $0x3ff,0x4(%esp)
f0101f7b:	00 
f0101f7c:	c7 04 24 ad 7b 10 f0 	movl   $0xf0107bad,(%esp)
f0101f83:	e8 b8 e0 ff ff       	call   f0100040 <_panic>
	assert(check_va2pa(kern_pgdir, 0x0) == page2pa(pp1));
f0101f88:	ba 00 00 00 00       	mov    $0x0,%edx
f0101f8d:	89 f8                	mov    %edi,%eax
f0101f8f:	e8 ac eb ff ff       	call   f0100b40 <check_va2pa>
f0101f94:	8b 55 d4             	mov    -0x2c(%ebp),%edx
f0101f97:	2b 55 cc             	sub    -0x34(%ebp),%edx
f0101f9a:	c1 fa 03             	sar    $0x3,%edx
f0101f9d:	c1 e2 0c             	shl    $0xc,%edx
f0101fa0:	39 d0                	cmp    %edx,%eax
f0101fa2:	74 24                	je     f0101fc8 <mem_init+0x930>
f0101fa4:	c7 44 24 0c 08 75 10 	movl   $0xf0107508,0xc(%esp)
f0101fab:	f0 
f0101fac:	c7 44 24 08 d3 7b 10 	movl   $0xf0107bd3,0x8(%esp)
f0101fb3:	f0 
f0101fb4:	c7 44 24 04 00 04 00 	movl   $0x400,0x4(%esp)
f0101fbb:	00 
f0101fbc:	c7 04 24 ad 7b 10 f0 	movl   $0xf0107bad,(%esp)
f0101fc3:	e8 78 e0 ff ff       	call   f0100040 <_panic>
	assert(pp1->pp_ref == 1);
f0101fc8:	8b 45 d4             	mov    -0x2c(%ebp),%eax
f0101fcb:	66 83 78 04 01       	cmpw   $0x1,0x4(%eax)
f0101fd0:	74 24                	je     f0101ff6 <mem_init+0x95e>
f0101fd2:	c7 44 24 0c 05 7e 10 	movl   $0xf0107e05,0xc(%esp)
f0101fd9:	f0 
f0101fda:	c7 44 24 08 d3 7b 10 	movl   $0xf0107bd3,0x8(%esp)
f0101fe1:	f0 
f0101fe2:	c7 44 24 04 01 04 00 	movl   $0x401,0x4(%esp)
f0101fe9:	00 
f0101fea:	c7 04 24 ad 7b 10 f0 	movl   $0xf0107bad,(%esp)
f0101ff1:	e8 4a e0 ff ff       	call   f0100040 <_panic>
	assert(pp0->pp_ref == 1);
f0101ff6:	66 83 7e 04 01       	cmpw   $0x1,0x4(%esi)
f0101ffb:	74 24                	je     f0102021 <mem_init+0x989>
f0101ffd:	c7 44 24 0c 16 7e 10 	movl   $0xf0107e16,0xc(%esp)
f0102004:	f0 
f0102005:	c7 44 24 08 d3 7b 10 	movl   $0xf0107bd3,0x8(%esp)
f010200c:	f0 
f010200d:	c7 44 24 04 02 04 00 	movl   $0x402,0x4(%esp)
f0102014:	00 
f0102015:	c7 04 24 ad 7b 10 f0 	movl   $0xf0107bad,(%esp)
f010201c:	e8 1f e0 ff ff       	call   f0100040 <_panic>

	// should be able to map pp2 at PGSIZE because pp0 is already allocated for page table
	assert(page_insert(kern_pgdir, pp2, (void*) PGSIZE, PTE_W) == 0);
f0102021:	c7 44 24 0c 02 00 00 	movl   $0x2,0xc(%esp)
f0102028:	00 
f0102029:	c7 44 24 08 00 10 00 	movl   $0x1000,0x8(%esp)
f0102030:	00 
f0102031:	89 5c 24 04          	mov    %ebx,0x4(%esp)
f0102035:	89 3c 24             	mov    %edi,(%esp)
f0102038:	e8 51 f5 ff ff       	call   f010158e <page_insert>
f010203d:	85 c0                	test   %eax,%eax
f010203f:	74 24                	je     f0102065 <mem_init+0x9cd>
f0102041:	c7 44 24 0c 38 75 10 	movl   $0xf0107538,0xc(%esp)
f0102048:	f0 
f0102049:	c7 44 24 08 d3 7b 10 	movl   $0xf0107bd3,0x8(%esp)
f0102050:	f0 
f0102051:	c7 44 24 04 05 04 00 	movl   $0x405,0x4(%esp)
f0102058:	00 
f0102059:	c7 04 24 ad 7b 10 f0 	movl   $0xf0107bad,(%esp)
f0102060:	e8 db df ff ff       	call   f0100040 <_panic>
	assert(check_va2pa(kern_pgdir, PGSIZE) == page2pa(pp2));
f0102065:	ba 00 10 00 00       	mov    $0x1000,%edx
f010206a:	a1 8c 3e 20 f0       	mov    0xf0203e8c,%eax
f010206f:	e8 cc ea ff ff       	call   f0100b40 <check_va2pa>
f0102074:	89 da                	mov    %ebx,%edx
f0102076:	2b 15 90 3e 20 f0    	sub    0xf0203e90,%edx
f010207c:	c1 fa 03             	sar    $0x3,%edx
f010207f:	c1 e2 0c             	shl    $0xc,%edx
f0102082:	39 d0                	cmp    %edx,%eax
f0102084:	74 24                	je     f01020aa <mem_init+0xa12>
f0102086:	c7 44 24 0c 74 75 10 	movl   $0xf0107574,0xc(%esp)
f010208d:	f0 
f010208e:	c7 44 24 08 d3 7b 10 	movl   $0xf0107bd3,0x8(%esp)
f0102095:	f0 
f0102096:	c7 44 24 04 06 04 00 	movl   $0x406,0x4(%esp)
f010209d:	00 
f010209e:	c7 04 24 ad 7b 10 f0 	movl   $0xf0107bad,(%esp)
f01020a5:	e8 96 df ff ff       	call   f0100040 <_panic>
	assert(pp2->pp_ref == 1);
f01020aa:	66 83 7b 04 01       	cmpw   $0x1,0x4(%ebx)
f01020af:	74 24                	je     f01020d5 <mem_init+0xa3d>
f01020b1:	c7 44 24 0c 27 7e 10 	movl   $0xf0107e27,0xc(%esp)
f01020b8:	f0 
f01020b9:	c7 44 24 08 d3 7b 10 	movl   $0xf0107bd3,0x8(%esp)
f01020c0:	f0 
f01020c1:	c7 44 24 04 07 04 00 	movl   $0x407,0x4(%esp)
f01020c8:	00 
f01020c9:	c7 04 24 ad 7b 10 f0 	movl   $0xf0107bad,(%esp)
f01020d0:	e8 6b df ff ff       	call   f0100040 <_panic>

	// should be no free memory
	assert(!page_alloc(0));
f01020d5:	c7 04 24 00 00 00 00 	movl   $0x0,(%esp)
f01020dc:	e8 4d f1 ff ff       	call   f010122e <page_alloc>
f01020e1:	85 c0                	test   %eax,%eax
f01020e3:	74 24                	je     f0102109 <mem_init+0xa71>
f01020e5:	c7 44 24 0c b3 7d 10 	movl   $0xf0107db3,0xc(%esp)
f01020ec:	f0 
f01020ed:	c7 44 24 08 d3 7b 10 	movl   $0xf0107bd3,0x8(%esp)
f01020f4:	f0 
f01020f5:	c7 44 24 04 0a 04 00 	movl   $0x40a,0x4(%esp)
f01020fc:	00 
f01020fd:	c7 04 24 ad 7b 10 f0 	movl   $0xf0107bad,(%esp)
f0102104:	e8 37 df ff ff       	call   f0100040 <_panic>

	// should be able to map pp2 at PGSIZE because it's already there
	assert(page_insert(kern_pgdir, pp2, (void*) PGSIZE, PTE_W) == 0);
f0102109:	c7 44 24 0c 02 00 00 	movl   $0x2,0xc(%esp)
f0102110:	00 
f0102111:	c7 44 24 08 00 10 00 	movl   $0x1000,0x8(%esp)
f0102118:	00 
f0102119:	89 5c 24 04          	mov    %ebx,0x4(%esp)
f010211d:	a1 8c 3e 20 f0       	mov    0xf0203e8c,%eax
f0102122:	89 04 24             	mov    %eax,(%esp)
f0102125:	e8 64 f4 ff ff       	call   f010158e <page_insert>
f010212a:	85 c0                	test   %eax,%eax
f010212c:	74 24                	je     f0102152 <mem_init+0xaba>
f010212e:	c7 44 24 0c 38 75 10 	movl   $0xf0107538,0xc(%esp)
f0102135:	f0 
f0102136:	c7 44 24 08 d3 7b 10 	movl   $0xf0107bd3,0x8(%esp)
f010213d:	f0 
f010213e:	c7 44 24 04 0d 04 00 	movl   $0x40d,0x4(%esp)
f0102145:	00 
f0102146:	c7 04 24 ad 7b 10 f0 	movl   $0xf0107bad,(%esp)
f010214d:	e8 ee de ff ff       	call   f0100040 <_panic>
	assert(check_va2pa(kern_pgdir, PGSIZE) == page2pa(pp2));
f0102152:	ba 00 10 00 00       	mov    $0x1000,%edx
f0102157:	a1 8c 3e 20 f0       	mov    0xf0203e8c,%eax
f010215c:	e8 df e9 ff ff       	call   f0100b40 <check_va2pa>
f0102161:	89 da                	mov    %ebx,%edx
f0102163:	2b 15 90 3e 20 f0    	sub    0xf0203e90,%edx
f0102169:	c1 fa 03             	sar    $0x3,%edx
f010216c:	c1 e2 0c             	shl    $0xc,%edx
f010216f:	39 d0                	cmp    %edx,%eax
f0102171:	74 24                	je     f0102197 <mem_init+0xaff>
f0102173:	c7 44 24 0c 74 75 10 	movl   $0xf0107574,0xc(%esp)
f010217a:	f0 
f010217b:	c7 44 24 08 d3 7b 10 	movl   $0xf0107bd3,0x8(%esp)
f0102182:	f0 
f0102183:	c7 44 24 04 0e 04 00 	movl   $0x40e,0x4(%esp)
f010218a:	00 
f010218b:	c7 04 24 ad 7b 10 f0 	movl   $0xf0107bad,(%esp)
f0102192:	e8 a9 de ff ff       	call   f0100040 <_panic>
	assert(pp2->pp_ref == 1);
f0102197:	66 83 7b 04 01       	cmpw   $0x1,0x4(%ebx)
f010219c:	74 24                	je     f01021c2 <mem_init+0xb2a>
f010219e:	c7 44 24 0c 27 7e 10 	movl   $0xf0107e27,0xc(%esp)
f01021a5:	f0 
f01021a6:	c7 44 24 08 d3 7b 10 	movl   $0xf0107bd3,0x8(%esp)
f01021ad:	f0 
f01021ae:	c7 44 24 04 0f 04 00 	movl   $0x40f,0x4(%esp)
f01021b5:	00 
f01021b6:	c7 04 24 ad 7b 10 f0 	movl   $0xf0107bad,(%esp)
f01021bd:	e8 7e de ff ff       	call   f0100040 <_panic>

	// pp2 should NOT be on the free list
	// could happen in ref counts are handled sloppily in page_insert
	assert(!page_alloc(0));
f01021c2:	c7 04 24 00 00 00 00 	movl   $0x0,(%esp)
f01021c9:	e8 60 f0 ff ff       	call   f010122e <page_alloc>
f01021ce:	85 c0                	test   %eax,%eax
f01021d0:	74 24                	je     f01021f6 <mem_init+0xb5e>
f01021d2:	c7 44 24 0c b3 7d 10 	movl   $0xf0107db3,0xc(%esp)
f01021d9:	f0 
f01021da:	c7 44 24 08 d3 7b 10 	movl   $0xf0107bd3,0x8(%esp)
f01021e1:	f0 
f01021e2:	c7 44 24 04 13 04 00 	movl   $0x413,0x4(%esp)
f01021e9:	00 
f01021ea:	c7 04 24 ad 7b 10 f0 	movl   $0xf0107bad,(%esp)
f01021f1:	e8 4a de ff ff       	call   f0100040 <_panic>

	// check that pgdir_walk returns a pointer to the pte
	ptep = (pte_t *) KADDR(PTE_ADDR(kern_pgdir[PDX(PGSIZE)]));
f01021f6:	8b 15 8c 3e 20 f0    	mov    0xf0203e8c,%edx
f01021fc:	8b 02                	mov    (%edx),%eax
f01021fe:	25 00 f0 ff ff       	and    $0xfffff000,%eax
#define KADDR(pa) _kaddr(__FILE__, __LINE__, pa)

static inline void*
_kaddr(const char *file, int line, physaddr_t pa)
{
	if (PGNUM(pa) >= npages)
f0102203:	89 c1                	mov    %eax,%ecx
f0102205:	c1 e9 0c             	shr    $0xc,%ecx
f0102208:	3b 0d 88 3e 20 f0    	cmp    0xf0203e88,%ecx
f010220e:	72 20                	jb     f0102230 <mem_init+0xb98>
		_panic(file, line, "KADDR called with invalid pa %08lx", pa);
f0102210:	89 44 24 0c          	mov    %eax,0xc(%esp)
f0102214:	c7 44 24 08 e4 6c 10 	movl   $0xf0106ce4,0x8(%esp)
f010221b:	f0 
f010221c:	c7 44 24 04 16 04 00 	movl   $0x416,0x4(%esp)
f0102223:	00 
f0102224:	c7 04 24 ad 7b 10 f0 	movl   $0xf0107bad,(%esp)
f010222b:	e8 10 de ff ff       	call   f0100040 <_panic>
	return (void *)(pa + KERNBASE);
f0102230:	2d 00 00 00 10       	sub    $0x10000000,%eax
f0102235:	89 45 e4             	mov    %eax,-0x1c(%ebp)
	assert(pgdir_walk(kern_pgdir, (void*)PGSIZE, 0) == ptep+PTX(PGSIZE));
f0102238:	c7 44 24 08 00 00 00 	movl   $0x0,0x8(%esp)
f010223f:	00 
f0102240:	c7 44 24 04 00 10 00 	movl   $0x1000,0x4(%esp)
f0102247:	00 
f0102248:	89 14 24             	mov    %edx,(%esp)
f010224b:	e8 a6 f0 ff ff       	call   f01012f6 <pgdir_walk>
f0102250:	8b 4d e4             	mov    -0x1c(%ebp),%ecx
f0102253:	8d 51 04             	lea    0x4(%ecx),%edx
f0102256:	39 d0                	cmp    %edx,%eax
f0102258:	74 24                	je     f010227e <mem_init+0xbe6>
f010225a:	c7 44 24 0c a4 75 10 	movl   $0xf01075a4,0xc(%esp)
f0102261:	f0 
f0102262:	c7 44 24 08 d3 7b 10 	movl   $0xf0107bd3,0x8(%esp)
f0102269:	f0 
f010226a:	c7 44 24 04 17 04 00 	movl   $0x417,0x4(%esp)
f0102271:	00 
f0102272:	c7 04 24 ad 7b 10 f0 	movl   $0xf0107bad,(%esp)
f0102279:	e8 c2 dd ff ff       	call   f0100040 <_panic>

	// should be able to change permissions too.
	assert(page_insert(kern_pgdir, pp2, (void*) PGSIZE, PTE_W|PTE_U) == 0);
f010227e:	c7 44 24 0c 06 00 00 	movl   $0x6,0xc(%esp)
f0102285:	00 
f0102286:	c7 44 24 08 00 10 00 	movl   $0x1000,0x8(%esp)
f010228d:	00 
f010228e:	89 5c 24 04          	mov    %ebx,0x4(%esp)
f0102292:	a1 8c 3e 20 f0       	mov    0xf0203e8c,%eax
f0102297:	89 04 24             	mov    %eax,(%esp)
f010229a:	e8 ef f2 ff ff       	call   f010158e <page_insert>
f010229f:	85 c0                	test   %eax,%eax
f01022a1:	74 24                	je     f01022c7 <mem_init+0xc2f>
f01022a3:	c7 44 24 0c e4 75 10 	movl   $0xf01075e4,0xc(%esp)
f01022aa:	f0 
f01022ab:	c7 44 24 08 d3 7b 10 	movl   $0xf0107bd3,0x8(%esp)
f01022b2:	f0 
f01022b3:	c7 44 24 04 1a 04 00 	movl   $0x41a,0x4(%esp)
f01022ba:	00 
f01022bb:	c7 04 24 ad 7b 10 f0 	movl   $0xf0107bad,(%esp)
f01022c2:	e8 79 dd ff ff       	call   f0100040 <_panic>
	assert(check_va2pa(kern_pgdir, PGSIZE) == page2pa(pp2));
f01022c7:	8b 3d 8c 3e 20 f0    	mov    0xf0203e8c,%edi
f01022cd:	ba 00 10 00 00       	mov    $0x1000,%edx
f01022d2:	89 f8                	mov    %edi,%eax
f01022d4:	e8 67 e8 ff ff       	call   f0100b40 <check_va2pa>
void	user_mem_assert(struct Env *env, const void *va, size_t len, int perm);

static inline physaddr_t
page2pa(struct PageInfo *pp)
{
	return (pp - pages) << PGSHIFT;
f01022d9:	89 da                	mov    %ebx,%edx
f01022db:	2b 15 90 3e 20 f0    	sub    0xf0203e90,%edx
f01022e1:	c1 fa 03             	sar    $0x3,%edx
f01022e4:	c1 e2 0c             	shl    $0xc,%edx
f01022e7:	39 d0                	cmp    %edx,%eax
f01022e9:	74 24                	je     f010230f <mem_init+0xc77>
f01022eb:	c7 44 24 0c 74 75 10 	movl   $0xf0107574,0xc(%esp)
f01022f2:	f0 
f01022f3:	c7 44 24 08 d3 7b 10 	movl   $0xf0107bd3,0x8(%esp)
f01022fa:	f0 
f01022fb:	c7 44 24 04 1b 04 00 	movl   $0x41b,0x4(%esp)
f0102302:	00 
f0102303:	c7 04 24 ad 7b 10 f0 	movl   $0xf0107bad,(%esp)
f010230a:	e8 31 dd ff ff       	call   f0100040 <_panic>
	assert(pp2->pp_ref == 1);
f010230f:	66 83 7b 04 01       	cmpw   $0x1,0x4(%ebx)
f0102314:	74 24                	je     f010233a <mem_init+0xca2>
f0102316:	c7 44 24 0c 27 7e 10 	movl   $0xf0107e27,0xc(%esp)
f010231d:	f0 
f010231e:	c7 44 24 08 d3 7b 10 	movl   $0xf0107bd3,0x8(%esp)
f0102325:	f0 
f0102326:	c7 44 24 04 1c 04 00 	movl   $0x41c,0x4(%esp)
f010232d:	00 
f010232e:	c7 04 24 ad 7b 10 f0 	movl   $0xf0107bad,(%esp)
f0102335:	e8 06 dd ff ff       	call   f0100040 <_panic>
	assert(*pgdir_walk(kern_pgdir, (void*) PGSIZE, 0) & PTE_U);
f010233a:	c7 44 24 08 00 00 00 	movl   $0x0,0x8(%esp)
f0102341:	00 
f0102342:	c7 44 24 04 00 10 00 	movl   $0x1000,0x4(%esp)
f0102349:	00 
f010234a:	89 3c 24             	mov    %edi,(%esp)
f010234d:	e8 a4 ef ff ff       	call   f01012f6 <pgdir_walk>
f0102352:	f6 00 04             	testb  $0x4,(%eax)
f0102355:	75 24                	jne    f010237b <mem_init+0xce3>
f0102357:	c7 44 24 0c 24 76 10 	movl   $0xf0107624,0xc(%esp)
f010235e:	f0 
f010235f:	c7 44 24 08 d3 7b 10 	movl   $0xf0107bd3,0x8(%esp)
f0102366:	f0 
f0102367:	c7 44 24 04 1d 04 00 	movl   $0x41d,0x4(%esp)
f010236e:	00 
f010236f:	c7 04 24 ad 7b 10 f0 	movl   $0xf0107bad,(%esp)
f0102376:	e8 c5 dc ff ff       	call   f0100040 <_panic>
	assert(kern_pgdir[0] & PTE_U);
f010237b:	a1 8c 3e 20 f0       	mov    0xf0203e8c,%eax
f0102380:	f6 00 04             	testb  $0x4,(%eax)
f0102383:	75 24                	jne    f01023a9 <mem_init+0xd11>
f0102385:	c7 44 24 0c 38 7e 10 	movl   $0xf0107e38,0xc(%esp)
f010238c:	f0 
f010238d:	c7 44 24 08 d3 7b 10 	movl   $0xf0107bd3,0x8(%esp)
f0102394:	f0 
f0102395:	c7 44 24 04 1e 04 00 	movl   $0x41e,0x4(%esp)
f010239c:	00 
f010239d:	c7 04 24 ad 7b 10 f0 	movl   $0xf0107bad,(%esp)
f01023a4:	e8 97 dc ff ff       	call   f0100040 <_panic>

	// should be able to remap with fewer permissions
	assert(page_insert(kern_pgdir, pp2, (void*) PGSIZE, PTE_W) == 0);
f01023a9:	c7 44 24 0c 02 00 00 	movl   $0x2,0xc(%esp)
f01023b0:	00 
f01023b1:	c7 44 24 08 00 10 00 	movl   $0x1000,0x8(%esp)
f01023b8:	00 
f01023b9:	89 5c 24 04          	mov    %ebx,0x4(%esp)
f01023bd:	89 04 24             	mov    %eax,(%esp)
f01023c0:	e8 c9 f1 ff ff       	call   f010158e <page_insert>
f01023c5:	85 c0                	test   %eax,%eax
f01023c7:	74 24                	je     f01023ed <mem_init+0xd55>
f01023c9:	c7 44 24 0c 38 75 10 	movl   $0xf0107538,0xc(%esp)
f01023d0:	f0 
f01023d1:	c7 44 24 08 d3 7b 10 	movl   $0xf0107bd3,0x8(%esp)
f01023d8:	f0 
f01023d9:	c7 44 24 04 21 04 00 	movl   $0x421,0x4(%esp)
f01023e0:	00 
f01023e1:	c7 04 24 ad 7b 10 f0 	movl   $0xf0107bad,(%esp)
f01023e8:	e8 53 dc ff ff       	call   f0100040 <_panic>
	assert(*pgdir_walk(kern_pgdir, (void*) PGSIZE, 0) & PTE_W);
f01023ed:	c7 44 24 08 00 00 00 	movl   $0x0,0x8(%esp)
f01023f4:	00 
f01023f5:	c7 44 24 04 00 10 00 	movl   $0x1000,0x4(%esp)
f01023fc:	00 
f01023fd:	a1 8c 3e 20 f0       	mov    0xf0203e8c,%eax
f0102402:	89 04 24             	mov    %eax,(%esp)
f0102405:	e8 ec ee ff ff       	call   f01012f6 <pgdir_walk>
f010240a:	f6 00 02             	testb  $0x2,(%eax)
f010240d:	75 24                	jne    f0102433 <mem_init+0xd9b>
f010240f:	c7 44 24 0c 58 76 10 	movl   $0xf0107658,0xc(%esp)
f0102416:	f0 
f0102417:	c7 44 24 08 d3 7b 10 	movl   $0xf0107bd3,0x8(%esp)
f010241e:	f0 
f010241f:	c7 44 24 04 22 04 00 	movl   $0x422,0x4(%esp)
f0102426:	00 
f0102427:	c7 04 24 ad 7b 10 f0 	movl   $0xf0107bad,(%esp)
f010242e:	e8 0d dc ff ff       	call   f0100040 <_panic>
	assert(!(*pgdir_walk(kern_pgdir, (void*) PGSIZE, 0) & PTE_U));
f0102433:	c7 44 24 08 00 00 00 	movl   $0x0,0x8(%esp)
f010243a:	00 
f010243b:	c7 44 24 04 00 10 00 	movl   $0x1000,0x4(%esp)
f0102442:	00 
f0102443:	a1 8c 3e 20 f0       	mov    0xf0203e8c,%eax
f0102448:	89 04 24             	mov    %eax,(%esp)
f010244b:	e8 a6 ee ff ff       	call   f01012f6 <pgdir_walk>
f0102450:	f6 00 04             	testb  $0x4,(%eax)
f0102453:	74 24                	je     f0102479 <mem_init+0xde1>
f0102455:	c7 44 24 0c 8c 76 10 	movl   $0xf010768c,0xc(%esp)
f010245c:	f0 
f010245d:	c7 44 24 08 d3 7b 10 	movl   $0xf0107bd3,0x8(%esp)
f0102464:	f0 
f0102465:	c7 44 24 04 23 04 00 	movl   $0x423,0x4(%esp)
f010246c:	00 
f010246d:	c7 04 24 ad 7b 10 f0 	movl   $0xf0107bad,(%esp)
f0102474:	e8 c7 db ff ff       	call   f0100040 <_panic>

	// should not be able to map at PTSIZE because need free page for page table
	assert(page_insert(kern_pgdir, pp0, (void*) PTSIZE, PTE_W) < 0);
f0102479:	c7 44 24 0c 02 00 00 	movl   $0x2,0xc(%esp)
f0102480:	00 
f0102481:	c7 44 24 08 00 00 40 	movl   $0x400000,0x8(%esp)
f0102488:	00 
f0102489:	89 74 24 04          	mov    %esi,0x4(%esp)
f010248d:	a1 8c 3e 20 f0       	mov    0xf0203e8c,%eax
f0102492:	89 04 24             	mov    %eax,(%esp)
f0102495:	e8 f4 f0 ff ff       	call   f010158e <page_insert>
f010249a:	85 c0                	test   %eax,%eax
f010249c:	78 24                	js     f01024c2 <mem_init+0xe2a>
f010249e:	c7 44 24 0c c4 76 10 	movl   $0xf01076c4,0xc(%esp)
f01024a5:	f0 
f01024a6:	c7 44 24 08 d3 7b 10 	movl   $0xf0107bd3,0x8(%esp)
f01024ad:	f0 
f01024ae:	c7 44 24 04 26 04 00 	movl   $0x426,0x4(%esp)
f01024b5:	00 
f01024b6:	c7 04 24 ad 7b 10 f0 	movl   $0xf0107bad,(%esp)
f01024bd:	e8 7e db ff ff       	call   f0100040 <_panic>

	// insert pp1 at PGSIZE (replacing pp2)
	assert(page_insert(kern_pgdir, pp1, (void*) PGSIZE, PTE_W) == 0);
f01024c2:	c7 44 24 0c 02 00 00 	movl   $0x2,0xc(%esp)
f01024c9:	00 
f01024ca:	c7 44 24 08 00 10 00 	movl   $0x1000,0x8(%esp)
f01024d1:	00 
f01024d2:	8b 45 d4             	mov    -0x2c(%ebp),%eax
f01024d5:	89 44 24 04          	mov    %eax,0x4(%esp)
f01024d9:	a1 8c 3e 20 f0       	mov    0xf0203e8c,%eax
f01024de:	89 04 24             	mov    %eax,(%esp)
f01024e1:	e8 a8 f0 ff ff       	call   f010158e <page_insert>
f01024e6:	85 c0                	test   %eax,%eax
f01024e8:	74 24                	je     f010250e <mem_init+0xe76>
f01024ea:	c7 44 24 0c fc 76 10 	movl   $0xf01076fc,0xc(%esp)
f01024f1:	f0 
f01024f2:	c7 44 24 08 d3 7b 10 	movl   $0xf0107bd3,0x8(%esp)
f01024f9:	f0 
f01024fa:	c7 44 24 04 29 04 00 	movl   $0x429,0x4(%esp)
f0102501:	00 
f0102502:	c7 04 24 ad 7b 10 f0 	movl   $0xf0107bad,(%esp)
f0102509:	e8 32 db ff ff       	call   f0100040 <_panic>
	assert(!(*pgdir_walk(kern_pgdir, (void*) PGSIZE, 0) & PTE_U));
f010250e:	c7 44 24 08 00 00 00 	movl   $0x0,0x8(%esp)
f0102515:	00 
f0102516:	c7 44 24 04 00 10 00 	movl   $0x1000,0x4(%esp)
f010251d:	00 
f010251e:	a1 8c 3e 20 f0       	mov    0xf0203e8c,%eax
f0102523:	89 04 24             	mov    %eax,(%esp)
f0102526:	e8 cb ed ff ff       	call   f01012f6 <pgdir_walk>
f010252b:	f6 00 04             	testb  $0x4,(%eax)
f010252e:	74 24                	je     f0102554 <mem_init+0xebc>
f0102530:	c7 44 24 0c 8c 76 10 	movl   $0xf010768c,0xc(%esp)
f0102537:	f0 
f0102538:	c7 44 24 08 d3 7b 10 	movl   $0xf0107bd3,0x8(%esp)
f010253f:	f0 
f0102540:	c7 44 24 04 2a 04 00 	movl   $0x42a,0x4(%esp)
f0102547:	00 
f0102548:	c7 04 24 ad 7b 10 f0 	movl   $0xf0107bad,(%esp)
f010254f:	e8 ec da ff ff       	call   f0100040 <_panic>

	// should have pp1 at both 0 and PGSIZE, pp2 nowhere, ...
	assert(check_va2pa(kern_pgdir, 0) == page2pa(pp1));
f0102554:	8b 3d 8c 3e 20 f0    	mov    0xf0203e8c,%edi
f010255a:	ba 00 00 00 00       	mov    $0x0,%edx
f010255f:	89 f8                	mov    %edi,%eax
f0102561:	e8 da e5 ff ff       	call   f0100b40 <check_va2pa>
f0102566:	89 c1                	mov    %eax,%ecx
f0102568:	89 45 cc             	mov    %eax,-0x34(%ebp)
f010256b:	8b 45 d4             	mov    -0x2c(%ebp),%eax
f010256e:	2b 05 90 3e 20 f0    	sub    0xf0203e90,%eax
f0102574:	c1 f8 03             	sar    $0x3,%eax
f0102577:	c1 e0 0c             	shl    $0xc,%eax
f010257a:	39 c1                	cmp    %eax,%ecx
f010257c:	74 24                	je     f01025a2 <mem_init+0xf0a>
f010257e:	c7 44 24 0c 38 77 10 	movl   $0xf0107738,0xc(%esp)
f0102585:	f0 
f0102586:	c7 44 24 08 d3 7b 10 	movl   $0xf0107bd3,0x8(%esp)
f010258d:	f0 
f010258e:	c7 44 24 04 2d 04 00 	movl   $0x42d,0x4(%esp)
f0102595:	00 
f0102596:	c7 04 24 ad 7b 10 f0 	movl   $0xf0107bad,(%esp)
f010259d:	e8 9e da ff ff       	call   f0100040 <_panic>
	assert(check_va2pa(kern_pgdir, PGSIZE) == page2pa(pp1));
f01025a2:	ba 00 10 00 00       	mov    $0x1000,%edx
f01025a7:	89 f8                	mov    %edi,%eax
f01025a9:	e8 92 e5 ff ff       	call   f0100b40 <check_va2pa>
f01025ae:	39 45 cc             	cmp    %eax,-0x34(%ebp)
f01025b1:	74 24                	je     f01025d7 <mem_init+0xf3f>
f01025b3:	c7 44 24 0c 64 77 10 	movl   $0xf0107764,0xc(%esp)
f01025ba:	f0 
f01025bb:	c7 44 24 08 d3 7b 10 	movl   $0xf0107bd3,0x8(%esp)
f01025c2:	f0 
f01025c3:	c7 44 24 04 2e 04 00 	movl   $0x42e,0x4(%esp)
f01025ca:	00 
f01025cb:	c7 04 24 ad 7b 10 f0 	movl   $0xf0107bad,(%esp)
f01025d2:	e8 69 da ff ff       	call   f0100040 <_panic>
	// ... and ref counts should reflect this
	assert(pp1->pp_ref == 2);
f01025d7:	8b 45 d4             	mov    -0x2c(%ebp),%eax
f01025da:	66 83 78 04 02       	cmpw   $0x2,0x4(%eax)
f01025df:	74 24                	je     f0102605 <mem_init+0xf6d>
f01025e1:	c7 44 24 0c 4e 7e 10 	movl   $0xf0107e4e,0xc(%esp)
f01025e8:	f0 
f01025e9:	c7 44 24 08 d3 7b 10 	movl   $0xf0107bd3,0x8(%esp)
f01025f0:	f0 
f01025f1:	c7 44 24 04 30 04 00 	movl   $0x430,0x4(%esp)
f01025f8:	00 
f01025f9:	c7 04 24 ad 7b 10 f0 	movl   $0xf0107bad,(%esp)
f0102600:	e8 3b da ff ff       	call   f0100040 <_panic>
	assert(pp2->pp_ref == 0);
f0102605:	66 83 7b 04 00       	cmpw   $0x0,0x4(%ebx)
f010260a:	74 24                	je     f0102630 <mem_init+0xf98>
f010260c:	c7 44 24 0c 5f 7e 10 	movl   $0xf0107e5f,0xc(%esp)
f0102613:	f0 
f0102614:	c7 44 24 08 d3 7b 10 	movl   $0xf0107bd3,0x8(%esp)
f010261b:	f0 
f010261c:	c7 44 24 04 31 04 00 	movl   $0x431,0x4(%esp)
f0102623:	00 
f0102624:	c7 04 24 ad 7b 10 f0 	movl   $0xf0107bad,(%esp)
f010262b:	e8 10 da ff ff       	call   f0100040 <_panic>

	// pp2 should be returned by page_alloc
	assert((pp = page_alloc(0)) && pp == pp2);
f0102630:	c7 04 24 00 00 00 00 	movl   $0x0,(%esp)
f0102637:	e8 f2 eb ff ff       	call   f010122e <page_alloc>
f010263c:	85 c0                	test   %eax,%eax
f010263e:	74 04                	je     f0102644 <mem_init+0xfac>
f0102640:	39 c3                	cmp    %eax,%ebx
f0102642:	74 24                	je     f0102668 <mem_init+0xfd0>
f0102644:	c7 44 24 0c 94 77 10 	movl   $0xf0107794,0xc(%esp)
f010264b:	f0 
f010264c:	c7 44 24 08 d3 7b 10 	movl   $0xf0107bd3,0x8(%esp)
f0102653:	f0 
f0102654:	c7 44 24 04 34 04 00 	movl   $0x434,0x4(%esp)
f010265b:	00 
f010265c:	c7 04 24 ad 7b 10 f0 	movl   $0xf0107bad,(%esp)
f0102663:	e8 d8 d9 ff ff       	call   f0100040 <_panic>

	// unmapping pp1 at 0 should keep pp1 at PGSIZE
	page_remove(kern_pgdir, 0x0);
f0102668:	c7 44 24 04 00 00 00 	movl   $0x0,0x4(%esp)
f010266f:	00 
f0102670:	a1 8c 3e 20 f0       	mov    0xf0203e8c,%eax
f0102675:	89 04 24             	mov    %eax,(%esp)
f0102678:	e8 c8 ee ff ff       	call   f0101545 <page_remove>
	assert(check_va2pa(kern_pgdir, 0x0) == ~0);
f010267d:	8b 3d 8c 3e 20 f0    	mov    0xf0203e8c,%edi
f0102683:	ba 00 00 00 00       	mov    $0x0,%edx
f0102688:	89 f8                	mov    %edi,%eax
f010268a:	e8 b1 e4 ff ff       	call   f0100b40 <check_va2pa>
f010268f:	83 f8 ff             	cmp    $0xffffffff,%eax
f0102692:	74 24                	je     f01026b8 <mem_init+0x1020>
f0102694:	c7 44 24 0c b8 77 10 	movl   $0xf01077b8,0xc(%esp)
f010269b:	f0 
f010269c:	c7 44 24 08 d3 7b 10 	movl   $0xf0107bd3,0x8(%esp)
f01026a3:	f0 
f01026a4:	c7 44 24 04 38 04 00 	movl   $0x438,0x4(%esp)
f01026ab:	00 
f01026ac:	c7 04 24 ad 7b 10 f0 	movl   $0xf0107bad,(%esp)
f01026b3:	e8 88 d9 ff ff       	call   f0100040 <_panic>
	assert(check_va2pa(kern_pgdir, PGSIZE) == page2pa(pp1));
f01026b8:	ba 00 10 00 00       	mov    $0x1000,%edx
f01026bd:	89 f8                	mov    %edi,%eax
f01026bf:	e8 7c e4 ff ff       	call   f0100b40 <check_va2pa>
f01026c4:	8b 55 d4             	mov    -0x2c(%ebp),%edx
f01026c7:	2b 15 90 3e 20 f0    	sub    0xf0203e90,%edx
f01026cd:	c1 fa 03             	sar    $0x3,%edx
f01026d0:	c1 e2 0c             	shl    $0xc,%edx
f01026d3:	39 d0                	cmp    %edx,%eax
f01026d5:	74 24                	je     f01026fb <mem_init+0x1063>
f01026d7:	c7 44 24 0c 64 77 10 	movl   $0xf0107764,0xc(%esp)
f01026de:	f0 
f01026df:	c7 44 24 08 d3 7b 10 	movl   $0xf0107bd3,0x8(%esp)
f01026e6:	f0 
f01026e7:	c7 44 24 04 39 04 00 	movl   $0x439,0x4(%esp)
f01026ee:	00 
f01026ef:	c7 04 24 ad 7b 10 f0 	movl   $0xf0107bad,(%esp)
f01026f6:	e8 45 d9 ff ff       	call   f0100040 <_panic>
	assert(pp1->pp_ref == 1);
f01026fb:	8b 45 d4             	mov    -0x2c(%ebp),%eax
f01026fe:	66 83 78 04 01       	cmpw   $0x1,0x4(%eax)
f0102703:	74 24                	je     f0102729 <mem_init+0x1091>
f0102705:	c7 44 24 0c 05 7e 10 	movl   $0xf0107e05,0xc(%esp)
f010270c:	f0 
f010270d:	c7 44 24 08 d3 7b 10 	movl   $0xf0107bd3,0x8(%esp)
f0102714:	f0 
f0102715:	c7 44 24 04 3a 04 00 	movl   $0x43a,0x4(%esp)
f010271c:	00 
f010271d:	c7 04 24 ad 7b 10 f0 	movl   $0xf0107bad,(%esp)
f0102724:	e8 17 d9 ff ff       	call   f0100040 <_panic>
	assert(pp2->pp_ref == 0);
f0102729:	66 83 7b 04 00       	cmpw   $0x0,0x4(%ebx)
f010272e:	74 24                	je     f0102754 <mem_init+0x10bc>
f0102730:	c7 44 24 0c 5f 7e 10 	movl   $0xf0107e5f,0xc(%esp)
f0102737:	f0 
f0102738:	c7 44 24 08 d3 7b 10 	movl   $0xf0107bd3,0x8(%esp)
f010273f:	f0 
f0102740:	c7 44 24 04 3b 04 00 	movl   $0x43b,0x4(%esp)
f0102747:	00 
f0102748:	c7 04 24 ad 7b 10 f0 	movl   $0xf0107bad,(%esp)
f010274f:	e8 ec d8 ff ff       	call   f0100040 <_panic>

	// unmapping pp1 at PGSIZE should free it
	page_remove(kern_pgdir, (void*) PGSIZE);
f0102754:	c7 44 24 04 00 10 00 	movl   $0x1000,0x4(%esp)
f010275b:	00 
f010275c:	89 3c 24             	mov    %edi,(%esp)
f010275f:	e8 e1 ed ff ff       	call   f0101545 <page_remove>
	assert(check_va2pa(kern_pgdir, 0x0) == ~0);
f0102764:	8b 3d 8c 3e 20 f0    	mov    0xf0203e8c,%edi
f010276a:	ba 00 00 00 00       	mov    $0x0,%edx
f010276f:	89 f8                	mov    %edi,%eax
f0102771:	e8 ca e3 ff ff       	call   f0100b40 <check_va2pa>
f0102776:	83 f8 ff             	cmp    $0xffffffff,%eax
f0102779:	74 24                	je     f010279f <mem_init+0x1107>
f010277b:	c7 44 24 0c b8 77 10 	movl   $0xf01077b8,0xc(%esp)
f0102782:	f0 
f0102783:	c7 44 24 08 d3 7b 10 	movl   $0xf0107bd3,0x8(%esp)
f010278a:	f0 
f010278b:	c7 44 24 04 3f 04 00 	movl   $0x43f,0x4(%esp)
f0102792:	00 
f0102793:	c7 04 24 ad 7b 10 f0 	movl   $0xf0107bad,(%esp)
f010279a:	e8 a1 d8 ff ff       	call   f0100040 <_panic>
	assert(check_va2pa(kern_pgdir, PGSIZE) == ~0);
f010279f:	ba 00 10 00 00       	mov    $0x1000,%edx
f01027a4:	89 f8                	mov    %edi,%eax
f01027a6:	e8 95 e3 ff ff       	call   f0100b40 <check_va2pa>
f01027ab:	83 f8 ff             	cmp    $0xffffffff,%eax
f01027ae:	74 24                	je     f01027d4 <mem_init+0x113c>
f01027b0:	c7 44 24 0c dc 77 10 	movl   $0xf01077dc,0xc(%esp)
f01027b7:	f0 
f01027b8:	c7 44 24 08 d3 7b 10 	movl   $0xf0107bd3,0x8(%esp)
f01027bf:	f0 
f01027c0:	c7 44 24 04 40 04 00 	movl   $0x440,0x4(%esp)
f01027c7:	00 
f01027c8:	c7 04 24 ad 7b 10 f0 	movl   $0xf0107bad,(%esp)
f01027cf:	e8 6c d8 ff ff       	call   f0100040 <_panic>
	assert(pp1->pp_ref == 0);
f01027d4:	8b 45 d4             	mov    -0x2c(%ebp),%eax
f01027d7:	66 83 78 04 00       	cmpw   $0x0,0x4(%eax)
f01027dc:	74 24                	je     f0102802 <mem_init+0x116a>
f01027de:	c7 44 24 0c 70 7e 10 	movl   $0xf0107e70,0xc(%esp)
f01027e5:	f0 
f01027e6:	c7 44 24 08 d3 7b 10 	movl   $0xf0107bd3,0x8(%esp)
f01027ed:	f0 
f01027ee:	c7 44 24 04 41 04 00 	movl   $0x441,0x4(%esp)
f01027f5:	00 
f01027f6:	c7 04 24 ad 7b 10 f0 	movl   $0xf0107bad,(%esp)
f01027fd:	e8 3e d8 ff ff       	call   f0100040 <_panic>
	assert(pp2->pp_ref == 0);
f0102802:	66 83 7b 04 00       	cmpw   $0x0,0x4(%ebx)
f0102807:	74 24                	je     f010282d <mem_init+0x1195>
f0102809:	c7 44 24 0c 5f 7e 10 	movl   $0xf0107e5f,0xc(%esp)
f0102810:	f0 
f0102811:	c7 44 24 08 d3 7b 10 	movl   $0xf0107bd3,0x8(%esp)
f0102818:	f0 
f0102819:	c7 44 24 04 42 04 00 	movl   $0x442,0x4(%esp)
f0102820:	00 
f0102821:	c7 04 24 ad 7b 10 f0 	movl   $0xf0107bad,(%esp)
f0102828:	e8 13 d8 ff ff       	call   f0100040 <_panic>

	// so it should be returned by page_alloc
	assert((pp = page_alloc(0)) && pp == pp1);
f010282d:	c7 04 24 00 00 00 00 	movl   $0x0,(%esp)
f0102834:	e8 f5 e9 ff ff       	call   f010122e <page_alloc>
f0102839:	85 c0                	test   %eax,%eax
f010283b:	74 05                	je     f0102842 <mem_init+0x11aa>
f010283d:	39 45 d4             	cmp    %eax,-0x2c(%ebp)
f0102840:	74 24                	je     f0102866 <mem_init+0x11ce>
f0102842:	c7 44 24 0c 04 78 10 	movl   $0xf0107804,0xc(%esp)
f0102849:	f0 
f010284a:	c7 44 24 08 d3 7b 10 	movl   $0xf0107bd3,0x8(%esp)
f0102851:	f0 
f0102852:	c7 44 24 04 45 04 00 	movl   $0x445,0x4(%esp)
f0102859:	00 
f010285a:	c7 04 24 ad 7b 10 f0 	movl   $0xf0107bad,(%esp)
f0102861:	e8 da d7 ff ff       	call   f0100040 <_panic>

	// should be no free memory
	assert(!page_alloc(0));
f0102866:	c7 04 24 00 00 00 00 	movl   $0x0,(%esp)
f010286d:	e8 bc e9 ff ff       	call   f010122e <page_alloc>
f0102872:	85 c0                	test   %eax,%eax
f0102874:	74 24                	je     f010289a <mem_init+0x1202>
f0102876:	c7 44 24 0c b3 7d 10 	movl   $0xf0107db3,0xc(%esp)
f010287d:	f0 
f010287e:	c7 44 24 08 d3 7b 10 	movl   $0xf0107bd3,0x8(%esp)
f0102885:	f0 
f0102886:	c7 44 24 04 48 04 00 	movl   $0x448,0x4(%esp)
f010288d:	00 
f010288e:	c7 04 24 ad 7b 10 f0 	movl   $0xf0107bad,(%esp)
f0102895:	e8 a6 d7 ff ff       	call   f0100040 <_panic>

	// forcibly take pp0 back
	assert(PTE_ADDR(kern_pgdir[0]) == page2pa(pp0));
f010289a:	a1 8c 3e 20 f0       	mov    0xf0203e8c,%eax
f010289f:	8b 08                	mov    (%eax),%ecx
f01028a1:	81 e1 00 f0 ff ff    	and    $0xfffff000,%ecx
f01028a7:	89 f2                	mov    %esi,%edx
f01028a9:	2b 15 90 3e 20 f0    	sub    0xf0203e90,%edx
f01028af:	c1 fa 03             	sar    $0x3,%edx
f01028b2:	c1 e2 0c             	shl    $0xc,%edx
f01028b5:	39 d1                	cmp    %edx,%ecx
f01028b7:	74 24                	je     f01028dd <mem_init+0x1245>
f01028b9:	c7 44 24 0c e0 74 10 	movl   $0xf01074e0,0xc(%esp)
f01028c0:	f0 
f01028c1:	c7 44 24 08 d3 7b 10 	movl   $0xf0107bd3,0x8(%esp)
f01028c8:	f0 
f01028c9:	c7 44 24 04 4b 04 00 	movl   $0x44b,0x4(%esp)
f01028d0:	00 
f01028d1:	c7 04 24 ad 7b 10 f0 	movl   $0xf0107bad,(%esp)
f01028d8:	e8 63 d7 ff ff       	call   f0100040 <_panic>
	kern_pgdir[0] = 0;
f01028dd:	c7 00 00 00 00 00    	movl   $0x0,(%eax)
	assert(pp0->pp_ref == 1);
f01028e3:	66 83 7e 04 01       	cmpw   $0x1,0x4(%esi)
f01028e8:	74 24                	je     f010290e <mem_init+0x1276>
f01028ea:	c7 44 24 0c 16 7e 10 	movl   $0xf0107e16,0xc(%esp)
f01028f1:	f0 
f01028f2:	c7 44 24 08 d3 7b 10 	movl   $0xf0107bd3,0x8(%esp)
f01028f9:	f0 
f01028fa:	c7 44 24 04 4d 04 00 	movl   $0x44d,0x4(%esp)
f0102901:	00 
f0102902:	c7 04 24 ad 7b 10 f0 	movl   $0xf0107bad,(%esp)
f0102909:	e8 32 d7 ff ff       	call   f0100040 <_panic>
	pp0->pp_ref = 0;
f010290e:	66 c7 46 04 00 00    	movw   $0x0,0x4(%esi)

	// check pointer arithmetic in pgdir_walk
	page_free(pp0);
f0102914:	89 34 24             	mov    %esi,(%esp)
f0102917:	e8 97 e9 ff ff       	call   f01012b3 <page_free>
	va = (void*)(PGSIZE * NPDENTRIES + PGSIZE);
	ptep = pgdir_walk(kern_pgdir, va, 1);
f010291c:	c7 44 24 08 01 00 00 	movl   $0x1,0x8(%esp)
f0102923:	00 
f0102924:	c7 44 24 04 00 10 40 	movl   $0x401000,0x4(%esp)
f010292b:	00 
f010292c:	a1 8c 3e 20 f0       	mov    0xf0203e8c,%eax
f0102931:	89 04 24             	mov    %eax,(%esp)
f0102934:	e8 bd e9 ff ff       	call   f01012f6 <pgdir_walk>
f0102939:	89 45 cc             	mov    %eax,-0x34(%ebp)
f010293c:	89 45 e4             	mov    %eax,-0x1c(%ebp)
	ptep1 = (pte_t *) KADDR(PTE_ADDR(kern_pgdir[PDX(va)]));
f010293f:	8b 15 8c 3e 20 f0    	mov    0xf0203e8c,%edx
f0102945:	8b 7a 04             	mov    0x4(%edx),%edi
f0102948:	81 e7 00 f0 ff ff    	and    $0xfffff000,%edi
#define KADDR(pa) _kaddr(__FILE__, __LINE__, pa)

static inline void*
_kaddr(const char *file, int line, physaddr_t pa)
{
	if (PGNUM(pa) >= npages)
f010294e:	8b 0d 88 3e 20 f0    	mov    0xf0203e88,%ecx
f0102954:	89 f8                	mov    %edi,%eax
f0102956:	c1 e8 0c             	shr    $0xc,%eax
f0102959:	39 c8                	cmp    %ecx,%eax
f010295b:	72 20                	jb     f010297d <mem_init+0x12e5>
		_panic(file, line, "KADDR called with invalid pa %08lx", pa);
f010295d:	89 7c 24 0c          	mov    %edi,0xc(%esp)
f0102961:	c7 44 24 08 e4 6c 10 	movl   $0xf0106ce4,0x8(%esp)
f0102968:	f0 
f0102969:	c7 44 24 04 54 04 00 	movl   $0x454,0x4(%esp)
f0102970:	00 
f0102971:	c7 04 24 ad 7b 10 f0 	movl   $0xf0107bad,(%esp)
f0102978:	e8 c3 d6 ff ff       	call   f0100040 <_panic>
	assert(ptep == ptep1 + PTX(va));
f010297d:	81 ef fc ff ff 0f    	sub    $0xffffffc,%edi
f0102983:	39 7d cc             	cmp    %edi,-0x34(%ebp)
f0102986:	74 24                	je     f01029ac <mem_init+0x1314>
f0102988:	c7 44 24 0c 81 7e 10 	movl   $0xf0107e81,0xc(%esp)
f010298f:	f0 
f0102990:	c7 44 24 08 d3 7b 10 	movl   $0xf0107bd3,0x8(%esp)
f0102997:	f0 
f0102998:	c7 44 24 04 55 04 00 	movl   $0x455,0x4(%esp)
f010299f:	00 
f01029a0:	c7 04 24 ad 7b 10 f0 	movl   $0xf0107bad,(%esp)
f01029a7:	e8 94 d6 ff ff       	call   f0100040 <_panic>
	kern_pgdir[PDX(va)] = 0;
f01029ac:	c7 42 04 00 00 00 00 	movl   $0x0,0x4(%edx)
	pp0->pp_ref = 0;
f01029b3:	66 c7 46 04 00 00    	movw   $0x0,0x4(%esi)
void	user_mem_assert(struct Env *env, const void *va, size_t len, int perm);

static inline physaddr_t
page2pa(struct PageInfo *pp)
{
	return (pp - pages) << PGSHIFT;
f01029b9:	89 f0                	mov    %esi,%eax
f01029bb:	2b 05 90 3e 20 f0    	sub    0xf0203e90,%eax
f01029c1:	c1 f8 03             	sar    $0x3,%eax
f01029c4:	c1 e0 0c             	shl    $0xc,%eax
#define KADDR(pa) _kaddr(__FILE__, __LINE__, pa)

static inline void*
_kaddr(const char *file, int line, physaddr_t pa)
{
	if (PGNUM(pa) >= npages)
f01029c7:	89 c2                	mov    %eax,%edx
f01029c9:	c1 ea 0c             	shr    $0xc,%edx
f01029cc:	39 d1                	cmp    %edx,%ecx
f01029ce:	77 20                	ja     f01029f0 <mem_init+0x1358>
		_panic(file, line, "KADDR called with invalid pa %08lx", pa);
f01029d0:	89 44 24 0c          	mov    %eax,0xc(%esp)
f01029d4:	c7 44 24 08 e4 6c 10 	movl   $0xf0106ce4,0x8(%esp)
f01029db:	f0 
f01029dc:	c7 44 24 04 58 00 00 	movl   $0x58,0x4(%esp)
f01029e3:	00 
f01029e4:	c7 04 24 b9 7b 10 f0 	movl   $0xf0107bb9,(%esp)
f01029eb:	e8 50 d6 ff ff       	call   f0100040 <_panic>

	// check that new page tables get cleared
	memset(page2kva(pp0), 0xFF, PGSIZE);
f01029f0:	c7 44 24 08 00 10 00 	movl   $0x1000,0x8(%esp)
f01029f7:	00 
f01029f8:	c7 44 24 04 ff 00 00 	movl   $0xff,0x4(%esp)
f01029ff:	00 
	return (void *)(pa + KERNBASE);
f0102a00:	2d 00 00 00 10       	sub    $0x10000000,%eax
f0102a05:	89 04 24             	mov    %eax,(%esp)
f0102a08:	e8 fc 34 00 00       	call   f0105f09 <memset>
	page_free(pp0);
f0102a0d:	89 34 24             	mov    %esi,(%esp)
f0102a10:	e8 9e e8 ff ff       	call   f01012b3 <page_free>
	pgdir_walk(kern_pgdir, 0x0, 1);
f0102a15:	c7 44 24 08 01 00 00 	movl   $0x1,0x8(%esp)
f0102a1c:	00 
f0102a1d:	c7 44 24 04 00 00 00 	movl   $0x0,0x4(%esp)
f0102a24:	00 
f0102a25:	a1 8c 3e 20 f0       	mov    0xf0203e8c,%eax
f0102a2a:	89 04 24             	mov    %eax,(%esp)
f0102a2d:	e8 c4 e8 ff ff       	call   f01012f6 <pgdir_walk>
void	user_mem_assert(struct Env *env, const void *va, size_t len, int perm);

static inline physaddr_t
page2pa(struct PageInfo *pp)
{
	return (pp - pages) << PGSHIFT;
f0102a32:	89 f2                	mov    %esi,%edx
f0102a34:	2b 15 90 3e 20 f0    	sub    0xf0203e90,%edx
f0102a3a:	c1 fa 03             	sar    $0x3,%edx
f0102a3d:	c1 e2 0c             	shl    $0xc,%edx
#define KADDR(pa) _kaddr(__FILE__, __LINE__, pa)

static inline void*
_kaddr(const char *file, int line, physaddr_t pa)
{
	if (PGNUM(pa) >= npages)
f0102a40:	89 d0                	mov    %edx,%eax
f0102a42:	c1 e8 0c             	shr    $0xc,%eax
f0102a45:	3b 05 88 3e 20 f0    	cmp    0xf0203e88,%eax
f0102a4b:	72 20                	jb     f0102a6d <mem_init+0x13d5>
		_panic(file, line, "KADDR called with invalid pa %08lx", pa);
f0102a4d:	89 54 24 0c          	mov    %edx,0xc(%esp)
f0102a51:	c7 44 24 08 e4 6c 10 	movl   $0xf0106ce4,0x8(%esp)
f0102a58:	f0 
f0102a59:	c7 44 24 04 58 00 00 	movl   $0x58,0x4(%esp)
f0102a60:	00 
f0102a61:	c7 04 24 b9 7b 10 f0 	movl   $0xf0107bb9,(%esp)
f0102a68:	e8 d3 d5 ff ff       	call   f0100040 <_panic>
	return (void *)(pa + KERNBASE);
f0102a6d:	8d 82 00 00 00 f0    	lea    -0x10000000(%edx),%eax
	ptep = (pte_t *) page2kva(pp0);
f0102a73:	89 45 e4             	mov    %eax,-0x1c(%ebp)
	for(i=0; i<NPTENTRIES; i++)
		assert((ptep[i] & PTE_P) == 0);
f0102a76:	f6 82 00 00 00 f0 01 	testb  $0x1,-0x10000000(%edx)
f0102a7d:	75 11                	jne    f0102a90 <mem_init+0x13f8>
f0102a7f:	8d 82 04 00 00 f0    	lea    -0xffffffc(%edx),%eax
f0102a85:	81 ea 00 f0 ff 0f    	sub    $0xffff000,%edx
f0102a8b:	f6 00 01             	testb  $0x1,(%eax)
f0102a8e:	74 24                	je     f0102ab4 <mem_init+0x141c>
f0102a90:	c7 44 24 0c 99 7e 10 	movl   $0xf0107e99,0xc(%esp)
f0102a97:	f0 
f0102a98:	c7 44 24 08 d3 7b 10 	movl   $0xf0107bd3,0x8(%esp)
f0102a9f:	f0 
f0102aa0:	c7 44 24 04 5f 04 00 	movl   $0x45f,0x4(%esp)
f0102aa7:	00 
f0102aa8:	c7 04 24 ad 7b 10 f0 	movl   $0xf0107bad,(%esp)
f0102aaf:	e8 8c d5 ff ff       	call   f0100040 <_panic>
f0102ab4:	83 c0 04             	add    $0x4,%eax
	// check that new page tables get cleared
	memset(page2kva(pp0), 0xFF, PGSIZE);
	page_free(pp0);
	pgdir_walk(kern_pgdir, 0x0, 1);
	ptep = (pte_t *) page2kva(pp0);
	for(i=0; i<NPTENTRIES; i++)
f0102ab7:	39 d0                	cmp    %edx,%eax
f0102ab9:	75 d0                	jne    f0102a8b <mem_init+0x13f3>
		assert((ptep[i] & PTE_P) == 0);
	kern_pgdir[0] = 0;
f0102abb:	a1 8c 3e 20 f0       	mov    0xf0203e8c,%eax
f0102ac0:	c7 00 00 00 00 00    	movl   $0x0,(%eax)
	pp0->pp_ref = 0;
f0102ac6:	66 c7 46 04 00 00    	movw   $0x0,0x4(%esi)

	// give free list back
	page_free_list = fl;
f0102acc:	8b 45 d0             	mov    -0x30(%ebp),%eax
f0102acf:	a3 44 32 20 f0       	mov    %eax,0xf0203244

	// free the pages we took
	page_free(pp0);
f0102ad4:	89 34 24             	mov    %esi,(%esp)
f0102ad7:	e8 d7 e7 ff ff       	call   f01012b3 <page_free>
	page_free(pp1);
f0102adc:	8b 45 d4             	mov    -0x2c(%ebp),%eax
f0102adf:	89 04 24             	mov    %eax,(%esp)
f0102ae2:	e8 cc e7 ff ff       	call   f01012b3 <page_free>
	page_free(pp2);
f0102ae7:	89 1c 24             	mov    %ebx,(%esp)
f0102aea:	e8 c4 e7 ff ff       	call   f01012b3 <page_free>

	// test mmio_map_region
	mm1 = (uintptr_t) mmio_map_region(0, 4097);
f0102aef:	c7 44 24 04 01 10 00 	movl   $0x1001,0x4(%esp)
f0102af6:	00 
f0102af7:	c7 04 24 00 00 00 00 	movl   $0x0,(%esp)
f0102afe:	e8 4d eb ff ff       	call   f0101650 <mmio_map_region>
f0102b03:	89 c3                	mov    %eax,%ebx
	mm2 = (uintptr_t) mmio_map_region(0, 4096);
f0102b05:	c7 44 24 04 00 10 00 	movl   $0x1000,0x4(%esp)
f0102b0c:	00 
f0102b0d:	c7 04 24 00 00 00 00 	movl   $0x0,(%esp)
f0102b14:	e8 37 eb ff ff       	call   f0101650 <mmio_map_region>
f0102b19:	89 c6                	mov    %eax,%esi
	// check that they're in the right region
	assert(mm1 >= MMIOBASE && mm1 + 8096 < MMIOLIM);
f0102b1b:	8d 83 a0 1f 00 00    	lea    0x1fa0(%ebx),%eax
f0102b21:	3d ff ff bf ef       	cmp    $0xefbfffff,%eax
f0102b26:	77 08                	ja     f0102b30 <mem_init+0x1498>
f0102b28:	81 fb ff ff 7f ef    	cmp    $0xef7fffff,%ebx
f0102b2e:	77 24                	ja     f0102b54 <mem_init+0x14bc>
f0102b30:	c7 44 24 0c 28 78 10 	movl   $0xf0107828,0xc(%esp)
f0102b37:	f0 
f0102b38:	c7 44 24 08 d3 7b 10 	movl   $0xf0107bd3,0x8(%esp)
f0102b3f:	f0 
f0102b40:	c7 44 24 04 6f 04 00 	movl   $0x46f,0x4(%esp)
f0102b47:	00 
f0102b48:	c7 04 24 ad 7b 10 f0 	movl   $0xf0107bad,(%esp)
f0102b4f:	e8 ec d4 ff ff       	call   f0100040 <_panic>
	assert(mm2 >= MMIOBASE && mm2 + 8096 < MMIOLIM);
f0102b54:	8d 96 a0 1f 00 00    	lea    0x1fa0(%esi),%edx
f0102b5a:	81 fa ff ff bf ef    	cmp    $0xefbfffff,%edx
f0102b60:	77 08                	ja     f0102b6a <mem_init+0x14d2>
f0102b62:	81 fe ff ff 7f ef    	cmp    $0xef7fffff,%esi
f0102b68:	77 24                	ja     f0102b8e <mem_init+0x14f6>
f0102b6a:	c7 44 24 0c 50 78 10 	movl   $0xf0107850,0xc(%esp)
f0102b71:	f0 
f0102b72:	c7 44 24 08 d3 7b 10 	movl   $0xf0107bd3,0x8(%esp)
f0102b79:	f0 
f0102b7a:	c7 44 24 04 70 04 00 	movl   $0x470,0x4(%esp)
f0102b81:	00 
f0102b82:	c7 04 24 ad 7b 10 f0 	movl   $0xf0107bad,(%esp)
f0102b89:	e8 b2 d4 ff ff       	call   f0100040 <_panic>
f0102b8e:	89 da                	mov    %ebx,%edx
f0102b90:	09 f2                	or     %esi,%edx
	// check that they're page-aligned
	assert(mm1 % PGSIZE == 0 && mm2 % PGSIZE == 0);
f0102b92:	f7 c2 ff 0f 00 00    	test   $0xfff,%edx
f0102b98:	74 24                	je     f0102bbe <mem_init+0x1526>
f0102b9a:	c7 44 24 0c 78 78 10 	movl   $0xf0107878,0xc(%esp)
f0102ba1:	f0 
f0102ba2:	c7 44 24 08 d3 7b 10 	movl   $0xf0107bd3,0x8(%esp)
f0102ba9:	f0 
f0102baa:	c7 44 24 04 72 04 00 	movl   $0x472,0x4(%esp)
f0102bb1:	00 
f0102bb2:	c7 04 24 ad 7b 10 f0 	movl   $0xf0107bad,(%esp)
f0102bb9:	e8 82 d4 ff ff       	call   f0100040 <_panic>
	// check that they don't overlap
	assert(mm1 + 8096 <= mm2);
f0102bbe:	39 c6                	cmp    %eax,%esi
f0102bc0:	73 24                	jae    f0102be6 <mem_init+0x154e>
f0102bc2:	c7 44 24 0c b0 7e 10 	movl   $0xf0107eb0,0xc(%esp)
f0102bc9:	f0 
f0102bca:	c7 44 24 08 d3 7b 10 	movl   $0xf0107bd3,0x8(%esp)
f0102bd1:	f0 
f0102bd2:	c7 44 24 04 74 04 00 	movl   $0x474,0x4(%esp)
f0102bd9:	00 
f0102bda:	c7 04 24 ad 7b 10 f0 	movl   $0xf0107bad,(%esp)
f0102be1:	e8 5a d4 ff ff       	call   f0100040 <_panic>
	// check page mappings
	assert(check_va2pa(kern_pgdir, mm1) == 0);
f0102be6:	8b 3d 8c 3e 20 f0    	mov    0xf0203e8c,%edi
f0102bec:	89 da                	mov    %ebx,%edx
f0102bee:	89 f8                	mov    %edi,%eax
f0102bf0:	e8 4b df ff ff       	call   f0100b40 <check_va2pa>
f0102bf5:	85 c0                	test   %eax,%eax
f0102bf7:	74 24                	je     f0102c1d <mem_init+0x1585>
f0102bf9:	c7 44 24 0c a0 78 10 	movl   $0xf01078a0,0xc(%esp)
f0102c00:	f0 
f0102c01:	c7 44 24 08 d3 7b 10 	movl   $0xf0107bd3,0x8(%esp)
f0102c08:	f0 
f0102c09:	c7 44 24 04 76 04 00 	movl   $0x476,0x4(%esp)
f0102c10:	00 
f0102c11:	c7 04 24 ad 7b 10 f0 	movl   $0xf0107bad,(%esp)
f0102c18:	e8 23 d4 ff ff       	call   f0100040 <_panic>
	assert(check_va2pa(kern_pgdir, mm1+PGSIZE) == PGSIZE);
f0102c1d:	8d 83 00 10 00 00    	lea    0x1000(%ebx),%eax
f0102c23:	89 45 d4             	mov    %eax,-0x2c(%ebp)
f0102c26:	89 c2                	mov    %eax,%edx
f0102c28:	89 f8                	mov    %edi,%eax
f0102c2a:	e8 11 df ff ff       	call   f0100b40 <check_va2pa>
f0102c2f:	3d 00 10 00 00       	cmp    $0x1000,%eax
f0102c34:	74 24                	je     f0102c5a <mem_init+0x15c2>
f0102c36:	c7 44 24 0c c4 78 10 	movl   $0xf01078c4,0xc(%esp)
f0102c3d:	f0 
f0102c3e:	c7 44 24 08 d3 7b 10 	movl   $0xf0107bd3,0x8(%esp)
f0102c45:	f0 
f0102c46:	c7 44 24 04 77 04 00 	movl   $0x477,0x4(%esp)
f0102c4d:	00 
f0102c4e:	c7 04 24 ad 7b 10 f0 	movl   $0xf0107bad,(%esp)
f0102c55:	e8 e6 d3 ff ff       	call   f0100040 <_panic>
	assert(check_va2pa(kern_pgdir, mm2) == 0);
f0102c5a:	89 f2                	mov    %esi,%edx
f0102c5c:	89 f8                	mov    %edi,%eax
f0102c5e:	e8 dd de ff ff       	call   f0100b40 <check_va2pa>
f0102c63:	85 c0                	test   %eax,%eax
f0102c65:	74 24                	je     f0102c8b <mem_init+0x15f3>
f0102c67:	c7 44 24 0c f4 78 10 	movl   $0xf01078f4,0xc(%esp)
f0102c6e:	f0 
f0102c6f:	c7 44 24 08 d3 7b 10 	movl   $0xf0107bd3,0x8(%esp)
f0102c76:	f0 
f0102c77:	c7 44 24 04 78 04 00 	movl   $0x478,0x4(%esp)
f0102c7e:	00 
f0102c7f:	c7 04 24 ad 7b 10 f0 	movl   $0xf0107bad,(%esp)
f0102c86:	e8 b5 d3 ff ff       	call   f0100040 <_panic>
	assert(check_va2pa(kern_pgdir, mm2+PGSIZE) == ~0);
f0102c8b:	8d 96 00 10 00 00    	lea    0x1000(%esi),%edx
f0102c91:	89 f8                	mov    %edi,%eax
f0102c93:	e8 a8 de ff ff       	call   f0100b40 <check_va2pa>
f0102c98:	83 f8 ff             	cmp    $0xffffffff,%eax
f0102c9b:	74 24                	je     f0102cc1 <mem_init+0x1629>
f0102c9d:	c7 44 24 0c 18 79 10 	movl   $0xf0107918,0xc(%esp)
f0102ca4:	f0 
f0102ca5:	c7 44 24 08 d3 7b 10 	movl   $0xf0107bd3,0x8(%esp)
f0102cac:	f0 
f0102cad:	c7 44 24 04 79 04 00 	movl   $0x479,0x4(%esp)
f0102cb4:	00 
f0102cb5:	c7 04 24 ad 7b 10 f0 	movl   $0xf0107bad,(%esp)
f0102cbc:	e8 7f d3 ff ff       	call   f0100040 <_panic>
	// check permissions
	assert(*pgdir_walk(kern_pgdir, (void*) mm1, 0) & (PTE_W|PTE_PWT|PTE_PCD));
f0102cc1:	c7 44 24 08 00 00 00 	movl   $0x0,0x8(%esp)
f0102cc8:	00 
f0102cc9:	89 5c 24 04          	mov    %ebx,0x4(%esp)
f0102ccd:	89 3c 24             	mov    %edi,(%esp)
f0102cd0:	e8 21 e6 ff ff       	call   f01012f6 <pgdir_walk>
f0102cd5:	f6 00 1a             	testb  $0x1a,(%eax)
f0102cd8:	75 24                	jne    f0102cfe <mem_init+0x1666>
f0102cda:	c7 44 24 0c 44 79 10 	movl   $0xf0107944,0xc(%esp)
f0102ce1:	f0 
f0102ce2:	c7 44 24 08 d3 7b 10 	movl   $0xf0107bd3,0x8(%esp)
f0102ce9:	f0 
f0102cea:	c7 44 24 04 7b 04 00 	movl   $0x47b,0x4(%esp)
f0102cf1:	00 
f0102cf2:	c7 04 24 ad 7b 10 f0 	movl   $0xf0107bad,(%esp)
f0102cf9:	e8 42 d3 ff ff       	call   f0100040 <_panic>
	assert(!(*pgdir_walk(kern_pgdir, (void*) mm1, 0) & PTE_U));
f0102cfe:	c7 44 24 08 00 00 00 	movl   $0x0,0x8(%esp)
f0102d05:	00 
f0102d06:	89 5c 24 04          	mov    %ebx,0x4(%esp)
f0102d0a:	a1 8c 3e 20 f0       	mov    0xf0203e8c,%eax
f0102d0f:	89 04 24             	mov    %eax,(%esp)
f0102d12:	e8 df e5 ff ff       	call   f01012f6 <pgdir_walk>
f0102d17:	f6 00 04             	testb  $0x4,(%eax)
f0102d1a:	74 24                	je     f0102d40 <mem_init+0x16a8>
f0102d1c:	c7 44 24 0c 88 79 10 	movl   $0xf0107988,0xc(%esp)
f0102d23:	f0 
f0102d24:	c7 44 24 08 d3 7b 10 	movl   $0xf0107bd3,0x8(%esp)
f0102d2b:	f0 
f0102d2c:	c7 44 24 04 7c 04 00 	movl   $0x47c,0x4(%esp)
f0102d33:	00 
f0102d34:	c7 04 24 ad 7b 10 f0 	movl   $0xf0107bad,(%esp)
f0102d3b:	e8 00 d3 ff ff       	call   f0100040 <_panic>
	// clear the mappings
	*pgdir_walk(kern_pgdir, (void*) mm1, 0) = 0;
f0102d40:	c7 44 24 08 00 00 00 	movl   $0x0,0x8(%esp)
f0102d47:	00 
f0102d48:	89 5c 24 04          	mov    %ebx,0x4(%esp)
f0102d4c:	a1 8c 3e 20 f0       	mov    0xf0203e8c,%eax
f0102d51:	89 04 24             	mov    %eax,(%esp)
f0102d54:	e8 9d e5 ff ff       	call   f01012f6 <pgdir_walk>
f0102d59:	c7 00 00 00 00 00    	movl   $0x0,(%eax)
	*pgdir_walk(kern_pgdir, (void*) mm1 + PGSIZE, 0) = 0;
f0102d5f:	c7 44 24 08 00 00 00 	movl   $0x0,0x8(%esp)
f0102d66:	00 
f0102d67:	8b 45 d4             	mov    -0x2c(%ebp),%eax
f0102d6a:	89 44 24 04          	mov    %eax,0x4(%esp)
f0102d6e:	a1 8c 3e 20 f0       	mov    0xf0203e8c,%eax
f0102d73:	89 04 24             	mov    %eax,(%esp)
f0102d76:	e8 7b e5 ff ff       	call   f01012f6 <pgdir_walk>
f0102d7b:	c7 00 00 00 00 00    	movl   $0x0,(%eax)
	*pgdir_walk(kern_pgdir, (void*) mm2, 0) = 0;
f0102d81:	c7 44 24 08 00 00 00 	movl   $0x0,0x8(%esp)
f0102d88:	00 
f0102d89:	89 74 24 04          	mov    %esi,0x4(%esp)
f0102d8d:	a1 8c 3e 20 f0       	mov    0xf0203e8c,%eax
f0102d92:	89 04 24             	mov    %eax,(%esp)
f0102d95:	e8 5c e5 ff ff       	call   f01012f6 <pgdir_walk>
f0102d9a:	c7 00 00 00 00 00    	movl   $0x0,(%eax)

	cprintf("check_page() succeeded!\n");
f0102da0:	c7 04 24 c2 7e 10 f0 	movl   $0xf0107ec2,(%esp)
f0102da7:	e8 b9 13 00 00       	call   f0104165 <cprintf>
	// boot_map_region(kern_pgdir, UPAGES, PTSIZE, PADDR(pages), PTE_U | PTE_P);

	// sizePTSIZE?sizeof(struct PageInfo) * npages ?
	// check_kern_pgdir sizeof(struct PageInfo) * npages
	// memlayoutPTSIZE
	boot_map_region(kern_pgdir, UPAGES, sizeof(struct PageInfo) * npages,
f0102dac:	a1 90 3e 20 f0       	mov    0xf0203e90,%eax
#define PADDR(kva) _paddr(__FILE__, __LINE__, kva)

static inline physaddr_t
_paddr(const char *file, int line, void *kva)
{
	if ((uint32_t)kva < KERNBASE)
f0102db1:	3d ff ff ff ef       	cmp    $0xefffffff,%eax
f0102db6:	77 20                	ja     f0102dd8 <mem_init+0x1740>
		_panic(file, line, "PADDR called with invalid kva %08lx", kva);
f0102db8:	89 44 24 0c          	mov    %eax,0xc(%esp)
f0102dbc:	c7 44 24 08 08 6d 10 	movl   $0xf0106d08,0x8(%esp)
f0102dc3:	f0 
f0102dc4:	c7 44 24 04 d1 00 00 	movl   $0xd1,0x4(%esp)
f0102dcb:	00 
f0102dcc:	c7 04 24 ad 7b 10 f0 	movl   $0xf0107bad,(%esp)
f0102dd3:	e8 68 d2 ff ff       	call   f0100040 <_panic>
f0102dd8:	8b 0d 88 3e 20 f0    	mov    0xf0203e88,%ecx
f0102dde:	c1 e1 03             	shl    $0x3,%ecx
f0102de1:	c7 44 24 04 05 00 00 	movl   $0x5,0x4(%esp)
f0102de8:	00 
	return (physaddr_t)kva - KERNBASE;
f0102de9:	05 00 00 00 10       	add    $0x10000000,%eax
f0102dee:	89 04 24             	mov    %eax,(%esp)
f0102df1:	ba 00 00 00 ef       	mov    $0xef000000,%edx
f0102df6:	a1 8c 3e 20 f0       	mov    0xf0203e8c,%eax
f0102dfb:	e8 05 e6 ff ff       	call   f0101405 <boot_map_region>
	//    - envs itself -- kernel RW, user NONE
	// LAB 3: Your code here.
	// Map [UENVS, UENVS + size) => Pysical [PADDR(envs) ~)
	// check_kern_pgdir sizeof(struct Env) * NENV
	// memlayoutPTSIZE
	boot_map_region(kern_pgdir, UENVS, sizeof(struct Env) * NENV,
f0102e00:	a1 4c 32 20 f0       	mov    0xf020324c,%eax
#define PADDR(kva) _paddr(__FILE__, __LINE__, kva)

static inline physaddr_t
_paddr(const char *file, int line, void *kva)
{
	if ((uint32_t)kva < KERNBASE)
f0102e05:	3d ff ff ff ef       	cmp    $0xefffffff,%eax
f0102e0a:	77 20                	ja     f0102e2c <mem_init+0x1794>
		_panic(file, line, "PADDR called with invalid kva %08lx", kva);
f0102e0c:	89 44 24 0c          	mov    %eax,0xc(%esp)
f0102e10:	c7 44 24 08 08 6d 10 	movl   $0xf0106d08,0x8(%esp)
f0102e17:	f0 
f0102e18:	c7 44 24 04 de 00 00 	movl   $0xde,0x4(%esp)
f0102e1f:	00 
f0102e20:	c7 04 24 ad 7b 10 f0 	movl   $0xf0107bad,(%esp)
f0102e27:	e8 14 d2 ff ff       	call   f0100040 <_panic>
f0102e2c:	c7 44 24 04 05 00 00 	movl   $0x5,0x4(%esp)
f0102e33:	00 
	return (physaddr_t)kva - KERNBASE;
f0102e34:	05 00 00 00 10       	add    $0x10000000,%eax
f0102e39:	89 04 24             	mov    %eax,(%esp)
f0102e3c:	b9 00 f0 01 00       	mov    $0x1f000,%ecx
f0102e41:	ba 00 00 c0 ee       	mov    $0xeec00000,%edx
f0102e46:	a1 8c 3e 20 f0       	mov    0xf0203e8c,%eax
f0102e4b:	e8 b5 e5 ff ff       	call   f0101405 <boot_map_region>
	// We might not have 2^32 - KERNBASE bytes of physical memory, but
	// we just set up the mapping anyway.
	// Permissions: kernel RW, user NONE
	// Your code goes here:
	size_t size = ROUNDUP(0xFFFFFFFF - KERNBASE + 1, PGSIZE);
	boot_map_region(kern_pgdir, KERNBASE, size, 0, PTE_W | PTE_P);
f0102e50:	c7 44 24 04 03 00 00 	movl   $0x3,0x4(%esp)
f0102e57:	00 
f0102e58:	c7 04 24 00 00 00 00 	movl   $0x0,(%esp)
f0102e5f:	b9 00 00 00 10       	mov    $0x10000000,%ecx
f0102e64:	ba 00 00 00 f0       	mov    $0xf0000000,%edx
f0102e69:	a1 8c 3e 20 f0       	mov    0xf0203e8c,%eax
f0102e6e:	e8 92 e5 ff ff       	call   f0101405 <boot_map_region>
#define PADDR(kva) _paddr(__FILE__, __LINE__, kva)

static inline physaddr_t
_paddr(const char *file, int line, void *kva)
{
	if ((uint32_t)kva < KERNBASE)
f0102e73:	b8 00 50 20 f0       	mov    $0xf0205000,%eax
f0102e78:	3d ff ff ff ef       	cmp    $0xefffffff,%eax
f0102e7d:	0f 87 dd 07 00 00    	ja     f0103660 <mem_init+0x1fc8>
f0102e83:	eb 0d                	jmp    f0102e92 <mem_init+0x17fa>
	uint32_t per_cpu_stack_top = KSTACKTOP;
	int i = 0;
	for (; i < NCPU; ++i) {
		uint32_t per_cpu_stack_bot = per_cpu_stack_top - KSTKSIZE;
		boot_map_region(kern_pgdir, per_cpu_stack_bot, KSTKSIZE,
										PADDR((void*)percpu_kstacks[i]), PTE_W | PTE_P);
f0102e85:	89 d8                	mov    %ebx,%eax
f0102e87:	81 fb ff ff ff ef    	cmp    $0xefffffff,%ebx
f0102e8d:	77 28                	ja     f0102eb7 <mem_init+0x181f>
f0102e8f:	90                   	nop
f0102e90:	eb 05                	jmp    f0102e97 <mem_init+0x17ff>
f0102e92:	b8 00 50 20 f0       	mov    $0xf0205000,%eax
		_panic(file, line, "PADDR called with invalid kva %08lx", kva);
f0102e97:	89 44 24 0c          	mov    %eax,0xc(%esp)
f0102e9b:	c7 44 24 08 08 6d 10 	movl   $0xf0106d08,0x8(%esp)
f0102ea2:	f0 
f0102ea3:	c7 44 24 04 22 01 00 	movl   $0x122,0x4(%esp)
f0102eaa:	00 
f0102eab:	c7 04 24 ad 7b 10 f0 	movl   $0xf0107bad,(%esp)
f0102eb2:	e8 89 d1 ff ff       	call   f0100040 <_panic>
	// LAB 4: Your code here:
	uint32_t per_cpu_stack_top = KSTACKTOP;
	int i = 0;
	for (; i < NCPU; ++i) {
		uint32_t per_cpu_stack_bot = per_cpu_stack_top - KSTKSIZE;
		boot_map_region(kern_pgdir, per_cpu_stack_bot, KSTKSIZE,
f0102eb7:	c7 44 24 04 03 00 00 	movl   $0x3,0x4(%esp)
f0102ebe:	00 
f0102ebf:	8d 83 00 00 00 10    	lea    0x10000000(%ebx),%eax
f0102ec5:	89 04 24             	mov    %eax,(%esp)
f0102ec8:	b9 00 80 00 00       	mov    $0x8000,%ecx
f0102ecd:	89 f2                	mov    %esi,%edx
f0102ecf:	a1 8c 3e 20 f0       	mov    0xf0203e8c,%eax
f0102ed4:	e8 2c e5 ff ff       	call   f0101405 <boot_map_region>
f0102ed9:	81 c3 00 80 00 00    	add    $0x8000,%ebx
f0102edf:	81 ee 00 00 01 00    	sub    $0x10000,%esi
	//     Permissions: kernel RW, user NONE
	//
	// LAB 4: Your code here:
	uint32_t per_cpu_stack_top = KSTACKTOP;
	int i = 0;
	for (; i < NCPU; ++i) {
f0102ee5:	39 fb                	cmp    %edi,%ebx
f0102ee7:	75 9c                	jne    f0102e85 <mem_init+0x17ed>
check_kern_pgdir(void)
{
	uint32_t i, n;
	pde_t *pgdir;

	pgdir = kern_pgdir;
f0102ee9:	8b 3d 8c 3e 20 f0    	mov    0xf0203e8c,%edi

	// check pages array
	n = ROUNDUP(npages*sizeof(struct PageInfo), PGSIZE);
f0102eef:	a1 88 3e 20 f0       	mov    0xf0203e88,%eax
f0102ef4:	89 45 d0             	mov    %eax,-0x30(%ebp)
f0102ef7:	8d 04 c5 ff 0f 00 00 	lea    0xfff(,%eax,8),%eax
	for (i = 0; i < n; i += PGSIZE) {
f0102efe:	25 00 f0 ff ff       	and    $0xfffff000,%eax
f0102f03:	89 45 d4             	mov    %eax,-0x2c(%ebp)
f0102f06:	75 30                	jne    f0102f38 <mem_init+0x18a0>
	}

	// check envs array (new test for lab 3)
	n = ROUNDUP(NENV*sizeof(struct Env), PGSIZE);
	for (i = 0; i < n; i += PGSIZE)
		assert(check_va2pa(pgdir, UENVS + i) == PADDR(envs) + i);
f0102f08:	8b 1d 4c 32 20 f0    	mov    0xf020324c,%ebx
#define PADDR(kva) _paddr(__FILE__, __LINE__, kva)

static inline physaddr_t
_paddr(const char *file, int line, void *kva)
{
	if ((uint32_t)kva < KERNBASE)
f0102f0e:	89 de                	mov    %ebx,%esi
f0102f10:	ba 00 00 c0 ee       	mov    $0xeec00000,%edx
f0102f15:	89 f8                	mov    %edi,%eax
f0102f17:	e8 24 dc ff ff       	call   f0100b40 <check_va2pa>
f0102f1c:	81 fb ff ff ff ef    	cmp    $0xefffffff,%ebx
f0102f22:	0f 86 94 00 00 00    	jbe    f0102fbc <mem_init+0x1924>
f0102f28:	bb 00 00 c0 ee       	mov    $0xeec00000,%ebx
f0102f2d:	81 c6 00 00 40 21    	add    $0x21400000,%esi
f0102f33:	e9 a4 00 00 00       	jmp    f0102fdc <mem_init+0x1944>
	pgdir = kern_pgdir;

	// check pages array
	n = ROUNDUP(npages*sizeof(struct PageInfo), PGSIZE);
	for (i = 0; i < n; i += PGSIZE) {
		assert(check_va2pa(pgdir, UPAGES + i) == PADDR(pages) + i);
f0102f38:	8b 1d 90 3e 20 f0    	mov    0xf0203e90,%ebx
		_panic(file, line, "PADDR called with invalid kva %08lx", kva);
	return (physaddr_t)kva - KERNBASE;
f0102f3e:	8d b3 00 00 00 10    	lea    0x10000000(%ebx),%esi
f0102f44:	ba 00 00 00 ef       	mov    $0xef000000,%edx
f0102f49:	89 f8                	mov    %edi,%eax
f0102f4b:	e8 f0 db ff ff       	call   f0100b40 <check_va2pa>
#define PADDR(kva) _paddr(__FILE__, __LINE__, kva)

static inline physaddr_t
_paddr(const char *file, int line, void *kva)
{
	if ((uint32_t)kva < KERNBASE)
f0102f50:	81 fb ff ff ff ef    	cmp    $0xefffffff,%ebx
f0102f56:	77 20                	ja     f0102f78 <mem_init+0x18e0>
		_panic(file, line, "PADDR called with invalid kva %08lx", kva);
f0102f58:	89 5c 24 0c          	mov    %ebx,0xc(%esp)
f0102f5c:	c7 44 24 08 08 6d 10 	movl   $0xf0106d08,0x8(%esp)
f0102f63:	f0 
f0102f64:	c7 44 24 04 94 03 00 	movl   $0x394,0x4(%esp)
f0102f6b:	00 
f0102f6c:	c7 04 24 ad 7b 10 f0 	movl   $0xf0107bad,(%esp)
f0102f73:	e8 c8 d0 ff ff       	call   f0100040 <_panic>

	pgdir = kern_pgdir;

	// check pages array
	n = ROUNDUP(npages*sizeof(struct PageInfo), PGSIZE);
	for (i = 0; i < n; i += PGSIZE) {
f0102f78:	ba 00 00 00 00       	mov    $0x0,%edx
f0102f7d:	8d 0c 16             	lea    (%esi,%edx,1),%ecx
		assert(check_va2pa(pgdir, UPAGES + i) == PADDR(pages) + i);
f0102f80:	39 c1                	cmp    %eax,%ecx
f0102f82:	74 24                	je     f0102fa8 <mem_init+0x1910>
f0102f84:	c7 44 24 0c bc 79 10 	movl   $0xf01079bc,0xc(%esp)
f0102f8b:	f0 
f0102f8c:	c7 44 24 08 d3 7b 10 	movl   $0xf0107bd3,0x8(%esp)
f0102f93:	f0 
f0102f94:	c7 44 24 04 94 03 00 	movl   $0x394,0x4(%esp)
f0102f9b:	00 
f0102f9c:	c7 04 24 ad 7b 10 f0 	movl   $0xf0107bad,(%esp)
f0102fa3:	e8 98 d0 ff ff       	call   f0100040 <_panic>

	pgdir = kern_pgdir;

	// check pages array
	n = ROUNDUP(npages*sizeof(struct PageInfo), PGSIZE);
	for (i = 0; i < n; i += PGSIZE) {
f0102fa8:	8d 9a 00 10 00 00    	lea    0x1000(%edx),%ebx
f0102fae:	39 5d d4             	cmp    %ebx,-0x2c(%ebp)
f0102fb1:	0f 87 fe 06 00 00    	ja     f01036b5 <mem_init+0x201d>
f0102fb7:	e9 4c ff ff ff       	jmp    f0102f08 <mem_init+0x1870>
f0102fbc:	89 5c 24 0c          	mov    %ebx,0xc(%esp)
f0102fc0:	c7 44 24 08 08 6d 10 	movl   $0xf0106d08,0x8(%esp)
f0102fc7:	f0 
f0102fc8:	c7 44 24 04 9a 03 00 	movl   $0x39a,0x4(%esp)
f0102fcf:	00 
f0102fd0:	c7 04 24 ad 7b 10 f0 	movl   $0xf0107bad,(%esp)
f0102fd7:	e8 64 d0 ff ff       	call   f0100040 <_panic>
f0102fdc:	8d 14 1e             	lea    (%esi,%ebx,1),%edx
	}

	// check envs array (new test for lab 3)
	n = ROUNDUP(NENV*sizeof(struct Env), PGSIZE);
	for (i = 0; i < n; i += PGSIZE)
		assert(check_va2pa(pgdir, UENVS + i) == PADDR(envs) + i);
f0102fdf:	39 d0                	cmp    %edx,%eax
f0102fe1:	74 24                	je     f0103007 <mem_init+0x196f>
f0102fe3:	c7 44 24 0c f0 79 10 	movl   $0xf01079f0,0xc(%esp)
f0102fea:	f0 
f0102feb:	c7 44 24 08 d3 7b 10 	movl   $0xf0107bd3,0x8(%esp)
f0102ff2:	f0 
f0102ff3:	c7 44 24 04 9a 03 00 	movl   $0x39a,0x4(%esp)
f0102ffa:	00 
f0102ffb:	c7 04 24 ad 7b 10 f0 	movl   $0xf0107bad,(%esp)
f0103002:	e8 39 d0 ff ff       	call   f0100040 <_panic>
f0103007:	81 c3 00 10 00 00    	add    $0x1000,%ebx
		assert(check_va2pa(pgdir, UPAGES + i) == PADDR(pages) + i);
	}

	// check envs array (new test for lab 3)
	n = ROUNDUP(NENV*sizeof(struct Env), PGSIZE);
	for (i = 0; i < n; i += PGSIZE)
f010300d:	81 fb 00 f0 c1 ee    	cmp    $0xeec1f000,%ebx
f0103013:	0f 85 8c 06 00 00    	jne    f01036a5 <mem_init+0x200d>
		assert(check_va2pa(pgdir, UENVS + i) == PADDR(envs) + i);

	// check phys mem
	for (i = 0; i < npages * PGSIZE; i += PGSIZE) {
f0103019:	8b 75 d0             	mov    -0x30(%ebp),%esi
f010301c:	c1 e6 0c             	shl    $0xc,%esi
f010301f:	bb 00 00 00 00       	mov    $0x0,%ebx
f0103024:	85 f6                	test   %esi,%esi
f0103026:	75 22                	jne    f010304a <mem_init+0x19b2>
f0103028:	c7 45 d0 00 50 20 f0 	movl   $0xf0205000,-0x30(%ebp)
f010302f:	c7 45 cc 00 00 00 00 	movl   $0x0,-0x34(%ebp)
f0103036:	be 00 80 ff ef       	mov    $0xefff8000,%esi
f010303b:	b8 00 50 20 f0       	mov    $0xf0205000,%eax
f0103040:	05 00 80 00 20       	add    $0x20008000,%eax
f0103045:	89 45 c4             	mov    %eax,-0x3c(%ebp)
f0103048:	eb 41                	jmp    f010308b <mem_init+0x19f3>
f010304a:	8d 93 00 00 00 f0    	lea    -0x10000000(%ebx),%edx
		assert(check_va2pa(pgdir, KERNBASE + i) == i);
f0103050:	89 f8                	mov    %edi,%eax
f0103052:	e8 e9 da ff ff       	call   f0100b40 <check_va2pa>
f0103057:	39 c3                	cmp    %eax,%ebx
f0103059:	74 24                	je     f010307f <mem_init+0x19e7>
f010305b:	c7 44 24 0c 24 7a 10 	movl   $0xf0107a24,0xc(%esp)
f0103062:	f0 
f0103063:	c7 44 24 08 d3 7b 10 	movl   $0xf0107bd3,0x8(%esp)
f010306a:	f0 
f010306b:	c7 44 24 04 9e 03 00 	movl   $0x39e,0x4(%esp)
f0103072:	00 
f0103073:	c7 04 24 ad 7b 10 f0 	movl   $0xf0107bad,(%esp)
f010307a:	e8 c1 cf ff ff       	call   f0100040 <_panic>
	n = ROUNDUP(NENV*sizeof(struct Env), PGSIZE);
	for (i = 0; i < n; i += PGSIZE)
		assert(check_va2pa(pgdir, UENVS + i) == PADDR(envs) + i);

	// check phys mem
	for (i = 0; i < npages * PGSIZE; i += PGSIZE) {
f010307f:	81 c3 00 10 00 00    	add    $0x1000,%ebx
f0103085:	39 f3                	cmp    %esi,%ebx
f0103087:	72 c1                	jb     f010304a <mem_init+0x19b2>
f0103089:	eb 9d                	jmp    f0103028 <mem_init+0x1990>
f010308b:	8d 86 00 80 00 00    	lea    0x8000(%esi),%eax
f0103091:	89 45 d4             	mov    %eax,-0x2c(%ebp)
	// check kernel stack
	// (updated in lab 4 to check per-CPU kernel stacks)
	for (n = 0; n < NCPU; n++) {
		uint32_t base = KSTACKTOP - (KSTKSIZE + KSTKGAP) * (n + 1);
		for (i = 0; i < KSTKSIZE; i += PGSIZE)
			assert(check_va2pa(pgdir, base + KSTKGAP + i)
f0103094:	89 f2                	mov    %esi,%edx
f0103096:	89 f8                	mov    %edi,%eax
f0103098:	e8 a3 da ff ff       	call   f0100b40 <check_va2pa>
f010309d:	8b 4d d0             	mov    -0x30(%ebp),%ecx
#define PADDR(kva) _paddr(__FILE__, __LINE__, kva)

static inline physaddr_t
_paddr(const char *file, int line, void *kva)
{
	if ((uint32_t)kva < KERNBASE)
f01030a0:	81 f9 ff ff ff ef    	cmp    $0xefffffff,%ecx
f01030a6:	77 20                	ja     f01030c8 <mem_init+0x1a30>
		_panic(file, line, "PADDR called with invalid kva %08lx", kva);
f01030a8:	89 4c 24 0c          	mov    %ecx,0xc(%esp)
f01030ac:	c7 44 24 08 08 6d 10 	movl   $0xf0106d08,0x8(%esp)
f01030b3:	f0 
f01030b4:	c7 44 24 04 a7 03 00 	movl   $0x3a7,0x4(%esp)
f01030bb:	00 
f01030bc:	c7 04 24 ad 7b 10 f0 	movl   $0xf0107bad,(%esp)
f01030c3:	e8 78 cf ff ff       	call   f0100040 <_panic>
#define PADDR(kva) _paddr(__FILE__, __LINE__, kva)

static inline physaddr_t
_paddr(const char *file, int line, void *kva)
{
	if ((uint32_t)kva < KERNBASE)
f01030c8:	89 f3                	mov    %esi,%ebx
f01030ca:	8b 4d c4             	mov    -0x3c(%ebp),%ecx
f01030cd:	03 4d cc             	add    -0x34(%ebp),%ecx
f01030d0:	89 75 c8             	mov    %esi,-0x38(%ebp)
f01030d3:	89 ce                	mov    %ecx,%esi
f01030d5:	8d 14 1e             	lea    (%esi,%ebx,1),%edx
f01030d8:	39 c2                	cmp    %eax,%edx
f01030da:	74 24                	je     f0103100 <mem_init+0x1a68>
f01030dc:	c7 44 24 0c 4c 7a 10 	movl   $0xf0107a4c,0xc(%esp)
f01030e3:	f0 
f01030e4:	c7 44 24 08 d3 7b 10 	movl   $0xf0107bd3,0x8(%esp)
f01030eb:	f0 
f01030ec:	c7 44 24 04 a7 03 00 	movl   $0x3a7,0x4(%esp)
f01030f3:	00 
f01030f4:	c7 04 24 ad 7b 10 f0 	movl   $0xf0107bad,(%esp)
f01030fb:	e8 40 cf ff ff       	call   f0100040 <_panic>
f0103100:	81 c3 00 10 00 00    	add    $0x1000,%ebx

	// check kernel stack
	// (updated in lab 4 to check per-CPU kernel stacks)
	for (n = 0; n < NCPU; n++) {
		uint32_t base = KSTACKTOP - (KSTKSIZE + KSTKGAP) * (n + 1);
		for (i = 0; i < KSTKSIZE; i += PGSIZE)
f0103106:	3b 5d d4             	cmp    -0x2c(%ebp),%ebx
f0103109:	0f 85 88 05 00 00    	jne    f0103697 <mem_init+0x1fff>
f010310f:	8b 75 c8             	mov    -0x38(%ebp),%esi
f0103112:	8d 9e 00 80 ff ff    	lea    -0x8000(%esi),%ebx
			assert(check_va2pa(pgdir, base + KSTKGAP + i)
				== PADDR(percpu_kstacks[n]) + i);
		for (i = 0; i < KSTKGAP; i += PGSIZE)
			assert(check_va2pa(pgdir, base + i) == ~0);
f0103118:	89 da                	mov    %ebx,%edx
f010311a:	89 f8                	mov    %edi,%eax
f010311c:	e8 1f da ff ff       	call   f0100b40 <check_va2pa>
f0103121:	83 f8 ff             	cmp    $0xffffffff,%eax
f0103124:	74 24                	je     f010314a <mem_init+0x1ab2>
f0103126:	c7 44 24 0c 94 7a 10 	movl   $0xf0107a94,0xc(%esp)
f010312d:	f0 
f010312e:	c7 44 24 08 d3 7b 10 	movl   $0xf0107bd3,0x8(%esp)
f0103135:	f0 
f0103136:	c7 44 24 04 a9 03 00 	movl   $0x3a9,0x4(%esp)
f010313d:	00 
f010313e:	c7 04 24 ad 7b 10 f0 	movl   $0xf0107bad,(%esp)
f0103145:	e8 f6 ce ff ff       	call   f0100040 <_panic>
f010314a:	81 c3 00 10 00 00    	add    $0x1000,%ebx
	for (n = 0; n < NCPU; n++) {
		uint32_t base = KSTACKTOP - (KSTKSIZE + KSTKGAP) * (n + 1);
		for (i = 0; i < KSTKSIZE; i += PGSIZE)
			assert(check_va2pa(pgdir, base + KSTKGAP + i)
				== PADDR(percpu_kstacks[n]) + i);
		for (i = 0; i < KSTKGAP; i += PGSIZE)
f0103150:	39 f3                	cmp    %esi,%ebx
f0103152:	75 c4                	jne    f0103118 <mem_init+0x1a80>
f0103154:	81 ee 00 00 01 00    	sub    $0x10000,%esi
f010315a:	81 45 cc 00 80 01 00 	addl   $0x18000,-0x34(%ebp)
f0103161:	81 45 d0 00 80 00 00 	addl   $0x8000,-0x30(%ebp)
		assert(check_va2pa(pgdir, KERNBASE + i) == i);
	}

	// check kernel stack
	// (updated in lab 4 to check per-CPU kernel stacks)
	for (n = 0; n < NCPU; n++) {
f0103168:	81 fe 00 80 f7 ef    	cmp    $0xeff78000,%esi
f010316e:	0f 85 17 ff ff ff    	jne    f010308b <mem_init+0x19f3>
f0103174:	b8 00 00 00 00       	mov    $0x0,%eax
			assert(check_va2pa(pgdir, base + i) == ~0);
	}

	// check PDE permissions
	for (i = 0; i < NPDENTRIES; i++) {
		switch (i) {
f0103179:	8d 90 45 fc ff ff    	lea    -0x3bb(%eax),%edx
f010317f:	83 fa 04             	cmp    $0x4,%edx
f0103182:	77 2e                	ja     f01031b2 <mem_init+0x1b1a>
		case PDX(UVPT):
		case PDX(KSTACKTOP-1):
		case PDX(UPAGES):
		case PDX(UENVS):
		case PDX(MMIOBASE):
			assert(pgdir[i] & PTE_P);
f0103184:	f6 04 87 01          	testb  $0x1,(%edi,%eax,4)
f0103188:	0f 85 aa 00 00 00    	jne    f0103238 <mem_init+0x1ba0>
f010318e:	c7 44 24 0c db 7e 10 	movl   $0xf0107edb,0xc(%esp)
f0103195:	f0 
f0103196:	c7 44 24 08 d3 7b 10 	movl   $0xf0107bd3,0x8(%esp)
f010319d:	f0 
f010319e:	c7 44 24 04 b4 03 00 	movl   $0x3b4,0x4(%esp)
f01031a5:	00 
f01031a6:	c7 04 24 ad 7b 10 f0 	movl   $0xf0107bad,(%esp)
f01031ad:	e8 8e ce ff ff       	call   f0100040 <_panic>
			break;
		default:
			if (i >= PDX(KERNBASE)) {
f01031b2:	3d bf 03 00 00       	cmp    $0x3bf,%eax
f01031b7:	76 55                	jbe    f010320e <mem_init+0x1b76>
				// // if (!(pgdir[i] & PTE_P)) {
				// 	cprintf("pgdir[%d] = %x\n", i, pgdir[i]);
				// // }
				assert(pgdir[i] & PTE_P);
f01031b9:	8b 14 87             	mov    (%edi,%eax,4),%edx
f01031bc:	f6 c2 01             	test   $0x1,%dl
f01031bf:	75 24                	jne    f01031e5 <mem_init+0x1b4d>
f01031c1:	c7 44 24 0c db 7e 10 	movl   $0xf0107edb,0xc(%esp)
f01031c8:	f0 
f01031c9:	c7 44 24 08 d3 7b 10 	movl   $0xf0107bd3,0x8(%esp)
f01031d0:	f0 
f01031d1:	c7 44 24 04 bb 03 00 	movl   $0x3bb,0x4(%esp)
f01031d8:	00 
f01031d9:	c7 04 24 ad 7b 10 f0 	movl   $0xf0107bad,(%esp)
f01031e0:	e8 5b ce ff ff       	call   f0100040 <_panic>
				assert(pgdir[i] & PTE_W);
f01031e5:	f6 c2 02             	test   $0x2,%dl
f01031e8:	75 4e                	jne    f0103238 <mem_init+0x1ba0>
f01031ea:	c7 44 24 0c ec 7e 10 	movl   $0xf0107eec,0xc(%esp)
f01031f1:	f0 
f01031f2:	c7 44 24 08 d3 7b 10 	movl   $0xf0107bd3,0x8(%esp)
f01031f9:	f0 
f01031fa:	c7 44 24 04 bc 03 00 	movl   $0x3bc,0x4(%esp)
f0103201:	00 
f0103202:	c7 04 24 ad 7b 10 f0 	movl   $0xf0107bad,(%esp)
f0103209:	e8 32 ce ff ff       	call   f0100040 <_panic>
			} else
				assert(pgdir[i] == 0);
f010320e:	83 3c 87 00          	cmpl   $0x0,(%edi,%eax,4)
f0103212:	74 24                	je     f0103238 <mem_init+0x1ba0>
f0103214:	c7 44 24 0c fd 7e 10 	movl   $0xf0107efd,0xc(%esp)
f010321b:	f0 
f010321c:	c7 44 24 08 d3 7b 10 	movl   $0xf0107bd3,0x8(%esp)
f0103223:	f0 
f0103224:	c7 44 24 04 be 03 00 	movl   $0x3be,0x4(%esp)
f010322b:	00 
f010322c:	c7 04 24 ad 7b 10 f0 	movl   $0xf0107bad,(%esp)
f0103233:	e8 08 ce ff ff       	call   f0100040 <_panic>
		for (i = 0; i < KSTKGAP; i += PGSIZE)
			assert(check_va2pa(pgdir, base + i) == ~0);
	}

	// check PDE permissions
	for (i = 0; i < NPDENTRIES; i++) {
f0103238:	83 c0 01             	add    $0x1,%eax
f010323b:	3d 00 04 00 00       	cmp    $0x400,%eax
f0103240:	0f 85 33 ff ff ff    	jne    f0103179 <mem_init+0x1ae1>
			} else
				assert(pgdir[i] == 0);
			break;
		}
	}
	cprintf("check_kern_pgdir() succeeded!\n");
f0103246:	c7 04 24 b8 7a 10 f0 	movl   $0xf0107ab8,(%esp)
f010324d:	e8 13 0f 00 00       	call   f0104165 <cprintf>
	// somewhere between KERNBASE and KERNBASE+4MB right now, which is
	// mapped the same way by both page tables.
	//
	// If the machine reboots at this point, you've probably set up your
	// kern_pgdir wrong.
	lcr3(PADDR(kern_pgdir));
f0103252:	a1 8c 3e 20 f0       	mov    0xf0203e8c,%eax
f0103257:	3d ff ff ff ef       	cmp    $0xefffffff,%eax
f010325c:	77 20                	ja     f010327e <mem_init+0x1be6>
		_panic(file, line, "PADDR called with invalid kva %08lx", kva);
f010325e:	89 44 24 0c          	mov    %eax,0xc(%esp)
f0103262:	c7 44 24 08 08 6d 10 	movl   $0xf0106d08,0x8(%esp)
f0103269:	f0 
f010326a:	c7 44 24 04 f8 00 00 	movl   $0xf8,0x4(%esp)
f0103271:	00 
f0103272:	c7 04 24 ad 7b 10 f0 	movl   $0xf0107bad,(%esp)
f0103279:	e8 c2 cd ff ff       	call   f0100040 <_panic>
	return (physaddr_t)kva - KERNBASE;
f010327e:	05 00 00 00 10       	add    $0x10000000,%eax
}

static __inline void
lcr3(uint32_t val)
{
	__asm __volatile("movl %0,%%cr3" : : "r" (val));
f0103283:	0f 22 d8             	mov    %eax,%cr3

	check_page_free_list(0);
f0103286:	b8 00 00 00 00       	mov    $0x0,%eax
f010328b:	e8 9a d9 ff ff       	call   f0100c2a <check_page_free_list>

static __inline uint32_t
rcr0(void)
{
	uint32_t val;
	__asm __volatile("movl %%cr0,%0" : "=r" (val));
f0103290:	0f 20 c0             	mov    %cr0,%eax

	// entry.S set the really important flags in cr0 (including enabling
	// paging).  Here we configure the rest of the flags that we care about.
	cr0 = rcr0();
	cr0 |= CR0_PE|CR0_PG|CR0_AM|CR0_WP|CR0_NE|CR0_MP;
	cr0 &= ~(CR0_TS|CR0_EM);
f0103293:	83 e0 f3             	and    $0xfffffff3,%eax
f0103296:	0d 23 00 05 80       	or     $0x80050023,%eax
}

static __inline void
lcr0(uint32_t val)
{
	__asm __volatile("movl %0,%%cr0" : : "r" (val));
f010329b:	0f 22 c0             	mov    %eax,%cr0
	uintptr_t va;
	int i;

	// check that we can read and write installed pages
	pp1 = pp2 = 0;
	assert((pp0 = page_alloc(0)));
f010329e:	c7 04 24 00 00 00 00 	movl   $0x0,(%esp)
f01032a5:	e8 84 df ff ff       	call   f010122e <page_alloc>
f01032aa:	89 c3                	mov    %eax,%ebx
f01032ac:	85 c0                	test   %eax,%eax
f01032ae:	75 24                	jne    f01032d4 <mem_init+0x1c3c>
f01032b0:	c7 44 24 0c 08 7d 10 	movl   $0xf0107d08,0xc(%esp)
f01032b7:	f0 
f01032b8:	c7 44 24 08 d3 7b 10 	movl   $0xf0107bd3,0x8(%esp)
f01032bf:	f0 
f01032c0:	c7 44 24 04 91 04 00 	movl   $0x491,0x4(%esp)
f01032c7:	00 
f01032c8:	c7 04 24 ad 7b 10 f0 	movl   $0xf0107bad,(%esp)
f01032cf:	e8 6c cd ff ff       	call   f0100040 <_panic>
	assert((pp1 = page_alloc(0)));
f01032d4:	c7 04 24 00 00 00 00 	movl   $0x0,(%esp)
f01032db:	e8 4e df ff ff       	call   f010122e <page_alloc>
f01032e0:	89 c7                	mov    %eax,%edi
f01032e2:	85 c0                	test   %eax,%eax
f01032e4:	75 24                	jne    f010330a <mem_init+0x1c72>
f01032e6:	c7 44 24 0c 1e 7d 10 	movl   $0xf0107d1e,0xc(%esp)
f01032ed:	f0 
f01032ee:	c7 44 24 08 d3 7b 10 	movl   $0xf0107bd3,0x8(%esp)
f01032f5:	f0 
f01032f6:	c7 44 24 04 92 04 00 	movl   $0x492,0x4(%esp)
f01032fd:	00 
f01032fe:	c7 04 24 ad 7b 10 f0 	movl   $0xf0107bad,(%esp)
f0103305:	e8 36 cd ff ff       	call   f0100040 <_panic>
	assert((pp2 = page_alloc(0)));
f010330a:	c7 04 24 00 00 00 00 	movl   $0x0,(%esp)
f0103311:	e8 18 df ff ff       	call   f010122e <page_alloc>
f0103316:	89 c6                	mov    %eax,%esi
f0103318:	85 c0                	test   %eax,%eax
f010331a:	75 24                	jne    f0103340 <mem_init+0x1ca8>
f010331c:	c7 44 24 0c 34 7d 10 	movl   $0xf0107d34,0xc(%esp)
f0103323:	f0 
f0103324:	c7 44 24 08 d3 7b 10 	movl   $0xf0107bd3,0x8(%esp)
f010332b:	f0 
f010332c:	c7 44 24 04 93 04 00 	movl   $0x493,0x4(%esp)
f0103333:	00 
f0103334:	c7 04 24 ad 7b 10 f0 	movl   $0xf0107bad,(%esp)
f010333b:	e8 00 cd ff ff       	call   f0100040 <_panic>
	page_free(pp0);
f0103340:	89 1c 24             	mov    %ebx,(%esp)
f0103343:	e8 6b df ff ff       	call   f01012b3 <page_free>
void	user_mem_assert(struct Env *env, const void *va, size_t len, int perm);

static inline physaddr_t
page2pa(struct PageInfo *pp)
{
	return (pp - pages) << PGSHIFT;
f0103348:	89 f8                	mov    %edi,%eax
f010334a:	2b 05 90 3e 20 f0    	sub    0xf0203e90,%eax
f0103350:	c1 f8 03             	sar    $0x3,%eax
f0103353:	c1 e0 0c             	shl    $0xc,%eax
#define KADDR(pa) _kaddr(__FILE__, __LINE__, pa)

static inline void*
_kaddr(const char *file, int line, physaddr_t pa)
{
	if (PGNUM(pa) >= npages)
f0103356:	89 c2                	mov    %eax,%edx
f0103358:	c1 ea 0c             	shr    $0xc,%edx
f010335b:	3b 15 88 3e 20 f0    	cmp    0xf0203e88,%edx
f0103361:	72 20                	jb     f0103383 <mem_init+0x1ceb>
		_panic(file, line, "KADDR called with invalid pa %08lx", pa);
f0103363:	89 44 24 0c          	mov    %eax,0xc(%esp)
f0103367:	c7 44 24 08 e4 6c 10 	movl   $0xf0106ce4,0x8(%esp)
f010336e:	f0 
f010336f:	c7 44 24 04 58 00 00 	movl   $0x58,0x4(%esp)
f0103376:	00 
f0103377:	c7 04 24 b9 7b 10 f0 	movl   $0xf0107bb9,(%esp)
f010337e:	e8 bd cc ff ff       	call   f0100040 <_panic>
	memset(page2kva(pp1), 1, PGSIZE);
f0103383:	c7 44 24 08 00 10 00 	movl   $0x1000,0x8(%esp)
f010338a:	00 
f010338b:	c7 44 24 04 01 00 00 	movl   $0x1,0x4(%esp)
f0103392:	00 
	return (void *)(pa + KERNBASE);
f0103393:	2d 00 00 00 10       	sub    $0x10000000,%eax
f0103398:	89 04 24             	mov    %eax,(%esp)
f010339b:	e8 69 2b 00 00       	call   f0105f09 <memset>
void	user_mem_assert(struct Env *env, const void *va, size_t len, int perm);

static inline physaddr_t
page2pa(struct PageInfo *pp)
{
	return (pp - pages) << PGSHIFT;
f01033a0:	89 f0                	mov    %esi,%eax
f01033a2:	2b 05 90 3e 20 f0    	sub    0xf0203e90,%eax
f01033a8:	c1 f8 03             	sar    $0x3,%eax
f01033ab:	c1 e0 0c             	shl    $0xc,%eax
#define KADDR(pa) _kaddr(__FILE__, __LINE__, pa)

static inline void*
_kaddr(const char *file, int line, physaddr_t pa)
{
	if (PGNUM(pa) >= npages)
f01033ae:	89 c2                	mov    %eax,%edx
f01033b0:	c1 ea 0c             	shr    $0xc,%edx
f01033b3:	3b 15 88 3e 20 f0    	cmp    0xf0203e88,%edx
f01033b9:	72 20                	jb     f01033db <mem_init+0x1d43>
		_panic(file, line, "KADDR called with invalid pa %08lx", pa);
f01033bb:	89 44 24 0c          	mov    %eax,0xc(%esp)
f01033bf:	c7 44 24 08 e4 6c 10 	movl   $0xf0106ce4,0x8(%esp)
f01033c6:	f0 
f01033c7:	c7 44 24 04 58 00 00 	movl   $0x58,0x4(%esp)
f01033ce:	00 
f01033cf:	c7 04 24 b9 7b 10 f0 	movl   $0xf0107bb9,(%esp)
f01033d6:	e8 65 cc ff ff       	call   f0100040 <_panic>
	memset(page2kva(pp2), 2, PGSIZE);
f01033db:	c7 44 24 08 00 10 00 	movl   $0x1000,0x8(%esp)
f01033e2:	00 
f01033e3:	c7 44 24 04 02 00 00 	movl   $0x2,0x4(%esp)
f01033ea:	00 
	return (void *)(pa + KERNBASE);
f01033eb:	2d 00 00 00 10       	sub    $0x10000000,%eax
f01033f0:	89 04 24             	mov    %eax,(%esp)
f01033f3:	e8 11 2b 00 00       	call   f0105f09 <memset>
	page_insert(kern_pgdir, pp1, (void*) PGSIZE, PTE_W);
f01033f8:	c7 44 24 0c 02 00 00 	movl   $0x2,0xc(%esp)
f01033ff:	00 
f0103400:	c7 44 24 08 00 10 00 	movl   $0x1000,0x8(%esp)
f0103407:	00 
f0103408:	89 7c 24 04          	mov    %edi,0x4(%esp)
f010340c:	a1 8c 3e 20 f0       	mov    0xf0203e8c,%eax
f0103411:	89 04 24             	mov    %eax,(%esp)
f0103414:	e8 75 e1 ff ff       	call   f010158e <page_insert>
	assert(pp1->pp_ref == 1);
f0103419:	66 83 7f 04 01       	cmpw   $0x1,0x4(%edi)
f010341e:	74 24                	je     f0103444 <mem_init+0x1dac>
f0103420:	c7 44 24 0c 05 7e 10 	movl   $0xf0107e05,0xc(%esp)
f0103427:	f0 
f0103428:	c7 44 24 08 d3 7b 10 	movl   $0xf0107bd3,0x8(%esp)
f010342f:	f0 
f0103430:	c7 44 24 04 98 04 00 	movl   $0x498,0x4(%esp)
f0103437:	00 
f0103438:	c7 04 24 ad 7b 10 f0 	movl   $0xf0107bad,(%esp)
f010343f:	e8 fc cb ff ff       	call   f0100040 <_panic>
	assert(*(uint32_t *)PGSIZE == 0x01010101U);
f0103444:	81 3d 00 10 00 00 01 	cmpl   $0x1010101,0x1000
f010344b:	01 01 01 
f010344e:	74 24                	je     f0103474 <mem_init+0x1ddc>
f0103450:	c7 44 24 0c d8 7a 10 	movl   $0xf0107ad8,0xc(%esp)
f0103457:	f0 
f0103458:	c7 44 24 08 d3 7b 10 	movl   $0xf0107bd3,0x8(%esp)
f010345f:	f0 
f0103460:	c7 44 24 04 99 04 00 	movl   $0x499,0x4(%esp)
f0103467:	00 
f0103468:	c7 04 24 ad 7b 10 f0 	movl   $0xf0107bad,(%esp)
f010346f:	e8 cc cb ff ff       	call   f0100040 <_panic>
	page_insert(kern_pgdir, pp2, (void*) PGSIZE, PTE_W);
f0103474:	c7 44 24 0c 02 00 00 	movl   $0x2,0xc(%esp)
f010347b:	00 
f010347c:	c7 44 24 08 00 10 00 	movl   $0x1000,0x8(%esp)
f0103483:	00 
f0103484:	89 74 24 04          	mov    %esi,0x4(%esp)
f0103488:	a1 8c 3e 20 f0       	mov    0xf0203e8c,%eax
f010348d:	89 04 24             	mov    %eax,(%esp)
f0103490:	e8 f9 e0 ff ff       	call   f010158e <page_insert>
	assert(*(uint32_t *)PGSIZE == 0x02020202U);
f0103495:	81 3d 00 10 00 00 02 	cmpl   $0x2020202,0x1000
f010349c:	02 02 02 
f010349f:	74 24                	je     f01034c5 <mem_init+0x1e2d>
f01034a1:	c7 44 24 0c fc 7a 10 	movl   $0xf0107afc,0xc(%esp)
f01034a8:	f0 
f01034a9:	c7 44 24 08 d3 7b 10 	movl   $0xf0107bd3,0x8(%esp)
f01034b0:	f0 
f01034b1:	c7 44 24 04 9b 04 00 	movl   $0x49b,0x4(%esp)
f01034b8:	00 
f01034b9:	c7 04 24 ad 7b 10 f0 	movl   $0xf0107bad,(%esp)
f01034c0:	e8 7b cb ff ff       	call   f0100040 <_panic>
	assert(pp2->pp_ref == 1);
f01034c5:	66 83 7e 04 01       	cmpw   $0x1,0x4(%esi)
f01034ca:	74 24                	je     f01034f0 <mem_init+0x1e58>
f01034cc:	c7 44 24 0c 27 7e 10 	movl   $0xf0107e27,0xc(%esp)
f01034d3:	f0 
f01034d4:	c7 44 24 08 d3 7b 10 	movl   $0xf0107bd3,0x8(%esp)
f01034db:	f0 
f01034dc:	c7 44 24 04 9c 04 00 	movl   $0x49c,0x4(%esp)
f01034e3:	00 
f01034e4:	c7 04 24 ad 7b 10 f0 	movl   $0xf0107bad,(%esp)
f01034eb:	e8 50 cb ff ff       	call   f0100040 <_panic>
	assert(pp1->pp_ref == 0);
f01034f0:	66 83 7f 04 00       	cmpw   $0x0,0x4(%edi)
f01034f5:	74 24                	je     f010351b <mem_init+0x1e83>
f01034f7:	c7 44 24 0c 70 7e 10 	movl   $0xf0107e70,0xc(%esp)
f01034fe:	f0 
f01034ff:	c7 44 24 08 d3 7b 10 	movl   $0xf0107bd3,0x8(%esp)
f0103506:	f0 
f0103507:	c7 44 24 04 9d 04 00 	movl   $0x49d,0x4(%esp)
f010350e:	00 
f010350f:	c7 04 24 ad 7b 10 f0 	movl   $0xf0107bad,(%esp)
f0103516:	e8 25 cb ff ff       	call   f0100040 <_panic>
	*(uint32_t *)PGSIZE = 0x03030303U;
f010351b:	c7 05 00 10 00 00 03 	movl   $0x3030303,0x1000
f0103522:	03 03 03 
void	user_mem_assert(struct Env *env, const void *va, size_t len, int perm);

static inline physaddr_t
page2pa(struct PageInfo *pp)
{
	return (pp - pages) << PGSHIFT;
f0103525:	89 f0                	mov    %esi,%eax
f0103527:	2b 05 90 3e 20 f0    	sub    0xf0203e90,%eax
f010352d:	c1 f8 03             	sar    $0x3,%eax
f0103530:	c1 e0 0c             	shl    $0xc,%eax
#define KADDR(pa) _kaddr(__FILE__, __LINE__, pa)

static inline void*
_kaddr(const char *file, int line, physaddr_t pa)
{
	if (PGNUM(pa) >= npages)
f0103533:	89 c2                	mov    %eax,%edx
f0103535:	c1 ea 0c             	shr    $0xc,%edx
f0103538:	3b 15 88 3e 20 f0    	cmp    0xf0203e88,%edx
f010353e:	72 20                	jb     f0103560 <mem_init+0x1ec8>
		_panic(file, line, "KADDR called with invalid pa %08lx", pa);
f0103540:	89 44 24 0c          	mov    %eax,0xc(%esp)
f0103544:	c7 44 24 08 e4 6c 10 	movl   $0xf0106ce4,0x8(%esp)
f010354b:	f0 
f010354c:	c7 44 24 04 58 00 00 	movl   $0x58,0x4(%esp)
f0103553:	00 
f0103554:	c7 04 24 b9 7b 10 f0 	movl   $0xf0107bb9,(%esp)
f010355b:	e8 e0 ca ff ff       	call   f0100040 <_panic>
	assert(*(uint32_t *)page2kva(pp2) == 0x03030303U);
f0103560:	81 b8 00 00 00 f0 03 	cmpl   $0x3030303,-0x10000000(%eax)
f0103567:	03 03 03 
f010356a:	74 24                	je     f0103590 <mem_init+0x1ef8>
f010356c:	c7 44 24 0c 20 7b 10 	movl   $0xf0107b20,0xc(%esp)
f0103573:	f0 
f0103574:	c7 44 24 08 d3 7b 10 	movl   $0xf0107bd3,0x8(%esp)
f010357b:	f0 
f010357c:	c7 44 24 04 9f 04 00 	movl   $0x49f,0x4(%esp)
f0103583:	00 
f0103584:	c7 04 24 ad 7b 10 f0 	movl   $0xf0107bad,(%esp)
f010358b:	e8 b0 ca ff ff       	call   f0100040 <_panic>
	page_remove(kern_pgdir, (void*) PGSIZE);
f0103590:	c7 44 24 04 00 10 00 	movl   $0x1000,0x4(%esp)
f0103597:	00 
f0103598:	a1 8c 3e 20 f0       	mov    0xf0203e8c,%eax
f010359d:	89 04 24             	mov    %eax,(%esp)
f01035a0:	e8 a0 df ff ff       	call   f0101545 <page_remove>
	assert(pp2->pp_ref == 0);
f01035a5:	66 83 7e 04 00       	cmpw   $0x0,0x4(%esi)
f01035aa:	74 24                	je     f01035d0 <mem_init+0x1f38>
f01035ac:	c7 44 24 0c 5f 7e 10 	movl   $0xf0107e5f,0xc(%esp)
f01035b3:	f0 
f01035b4:	c7 44 24 08 d3 7b 10 	movl   $0xf0107bd3,0x8(%esp)
f01035bb:	f0 
f01035bc:	c7 44 24 04 a1 04 00 	movl   $0x4a1,0x4(%esp)
f01035c3:	00 
f01035c4:	c7 04 24 ad 7b 10 f0 	movl   $0xf0107bad,(%esp)
f01035cb:	e8 70 ca ff ff       	call   f0100040 <_panic>

	// forcibly take pp0 back
	assert(PTE_ADDR(kern_pgdir[0]) == page2pa(pp0));
f01035d0:	a1 8c 3e 20 f0       	mov    0xf0203e8c,%eax
f01035d5:	8b 08                	mov    (%eax),%ecx
f01035d7:	81 e1 00 f0 ff ff    	and    $0xfffff000,%ecx
void	user_mem_assert(struct Env *env, const void *va, size_t len, int perm);

static inline physaddr_t
page2pa(struct PageInfo *pp)
{
	return (pp - pages) << PGSHIFT;
f01035dd:	89 da                	mov    %ebx,%edx
f01035df:	2b 15 90 3e 20 f0    	sub    0xf0203e90,%edx
f01035e5:	c1 fa 03             	sar    $0x3,%edx
f01035e8:	c1 e2 0c             	shl    $0xc,%edx
f01035eb:	39 d1                	cmp    %edx,%ecx
f01035ed:	74 24                	je     f0103613 <mem_init+0x1f7b>
f01035ef:	c7 44 24 0c e0 74 10 	movl   $0xf01074e0,0xc(%esp)
f01035f6:	f0 
f01035f7:	c7 44 24 08 d3 7b 10 	movl   $0xf0107bd3,0x8(%esp)
f01035fe:	f0 
f01035ff:	c7 44 24 04 a4 04 00 	movl   $0x4a4,0x4(%esp)
f0103606:	00 
f0103607:	c7 04 24 ad 7b 10 f0 	movl   $0xf0107bad,(%esp)
f010360e:	e8 2d ca ff ff       	call   f0100040 <_panic>
	kern_pgdir[0] = 0;
f0103613:	c7 00 00 00 00 00    	movl   $0x0,(%eax)
	assert(pp0->pp_ref == 1);
f0103619:	66 83 7b 04 01       	cmpw   $0x1,0x4(%ebx)
f010361e:	74 24                	je     f0103644 <mem_init+0x1fac>
f0103620:	c7 44 24 0c 16 7e 10 	movl   $0xf0107e16,0xc(%esp)
f0103627:	f0 
f0103628:	c7 44 24 08 d3 7b 10 	movl   $0xf0107bd3,0x8(%esp)
f010362f:	f0 
f0103630:	c7 44 24 04 a6 04 00 	movl   $0x4a6,0x4(%esp)
f0103637:	00 
f0103638:	c7 04 24 ad 7b 10 f0 	movl   $0xf0107bad,(%esp)
f010363f:	e8 fc c9 ff ff       	call   f0100040 <_panic>
	pp0->pp_ref = 0;
f0103644:	66 c7 43 04 00 00    	movw   $0x0,0x4(%ebx)

	// free the pages we took
	page_free(pp0);
f010364a:	89 1c 24             	mov    %ebx,(%esp)
f010364d:	e8 61 dc ff ff       	call   f01012b3 <page_free>

	cprintf("check_page_installed_pgdir() succeeded!\n");
f0103652:	c7 04 24 4c 7b 10 f0 	movl   $0xf0107b4c,(%esp)
f0103659:	e8 07 0b 00 00       	call   f0104165 <cprintf>
f010365e:	eb 69                	jmp    f01036c9 <mem_init+0x2031>
	// LAB 4: Your code here:
	uint32_t per_cpu_stack_top = KSTACKTOP;
	int i = 0;
	for (; i < NCPU; ++i) {
		uint32_t per_cpu_stack_bot = per_cpu_stack_top - KSTKSIZE;
		boot_map_region(kern_pgdir, per_cpu_stack_bot, KSTKSIZE,
f0103660:	c7 44 24 04 03 00 00 	movl   $0x3,0x4(%esp)
f0103667:	00 
f0103668:	c7 04 24 00 50 20 00 	movl   $0x205000,(%esp)
f010366f:	b9 00 80 00 00       	mov    $0x8000,%ecx
f0103674:	ba 00 80 ff ef       	mov    $0xefff8000,%edx
f0103679:	a1 8c 3e 20 f0       	mov    0xf0203e8c,%eax
f010367e:	e8 82 dd ff ff       	call   f0101405 <boot_map_region>
f0103683:	bb 00 d0 20 f0       	mov    $0xf020d000,%ebx
f0103688:	bf 00 50 24 f0       	mov    $0xf0245000,%edi
f010368d:	be 00 80 fe ef       	mov    $0xeffe8000,%esi
f0103692:	e9 ee f7 ff ff       	jmp    f0102e85 <mem_init+0x17ed>
	// check kernel stack
	// (updated in lab 4 to check per-CPU kernel stacks)
	for (n = 0; n < NCPU; n++) {
		uint32_t base = KSTACKTOP - (KSTKSIZE + KSTKGAP) * (n + 1);
		for (i = 0; i < KSTKSIZE; i += PGSIZE)
			assert(check_va2pa(pgdir, base + KSTKGAP + i)
f0103697:	89 da                	mov    %ebx,%edx
f0103699:	89 f8                	mov    %edi,%eax
f010369b:	e8 a0 d4 ff ff       	call   f0100b40 <check_va2pa>
f01036a0:	e9 30 fa ff ff       	jmp    f01030d5 <mem_init+0x1a3d>
	}

	// check envs array (new test for lab 3)
	n = ROUNDUP(NENV*sizeof(struct Env), PGSIZE);
	for (i = 0; i < n; i += PGSIZE)
		assert(check_va2pa(pgdir, UENVS + i) == PADDR(envs) + i);
f01036a5:	89 da                	mov    %ebx,%edx
f01036a7:	89 f8                	mov    %edi,%eax
f01036a9:	e8 92 d4 ff ff       	call   f0100b40 <check_va2pa>
f01036ae:	66 90                	xchg   %ax,%ax
f01036b0:	e9 27 f9 ff ff       	jmp    f0102fdc <mem_init+0x1944>
f01036b5:	81 ea 00 f0 ff 10    	sub    $0x10fff000,%edx
	pgdir = kern_pgdir;

	// check pages array
	n = ROUNDUP(npages*sizeof(struct PageInfo), PGSIZE);
	for (i = 0; i < n; i += PGSIZE) {
		assert(check_va2pa(pgdir, UPAGES + i) == PADDR(pages) + i);
f01036bb:	89 f8                	mov    %edi,%eax
f01036bd:	e8 7e d4 ff ff       	call   f0100b40 <check_va2pa>

	pgdir = kern_pgdir;

	// check pages array
	n = ROUNDUP(npages*sizeof(struct PageInfo), PGSIZE);
	for (i = 0; i < n; i += PGSIZE) {
f01036c2:	89 da                	mov    %ebx,%edx
f01036c4:	e9 b4 f8 ff ff       	jmp    f0102f7d <mem_init+0x18e5>
	cr0 &= ~(CR0_TS|CR0_EM);
	lcr0(cr0);

	// Some more checks, only possible after kern_pgdir is installed.
	check_page_installed_pgdir();
}
f01036c9:	83 c4 4c             	add    $0x4c,%esp
f01036cc:	5b                   	pop    %ebx
f01036cd:	5e                   	pop    %esi
f01036ce:	5f                   	pop    %edi
f01036cf:	5d                   	pop    %ebp
f01036d0:	c3                   	ret    

f01036d1 <user_mem_check>:
// Returns 0 if the user program can access this range of addresses,
// and -E_FAULT otherwise.
//
int
user_mem_check(struct Env *env, const void *va, size_t len, int perm)
{
f01036d1:	55                   	push   %ebp
f01036d2:	89 e5                	mov    %esp,%ebp
f01036d4:	57                   	push   %edi
f01036d5:	56                   	push   %esi
f01036d6:	53                   	push   %ebx
f01036d7:	83 ec 2c             	sub    $0x2c,%esp
f01036da:	8b 4d 14             	mov    0x14(%ebp),%ecx
  // step 1 : check below ULIM
  uintptr_t va_beg = (uintptr_t)va;
  uintptr_t va_end = va_beg + len;
f01036dd:	8b 75 0c             	mov    0xc(%ebp),%esi
f01036e0:	03 75 10             	add    0x10(%ebp),%esi
  if (va_beg >= ULIM || va_end >= ULIM) {
f01036e3:	81 fe ff ff 7f ef    	cmp    $0xef7fffff,%esi
f01036e9:	77 09                	ja     f01036f4 <user_mem_check+0x23>
f01036eb:	81 7d 0c ff ff 7f ef 	cmpl   $0xef7fffff,0xc(%ebp)
f01036f2:	76 1f                	jbe    f0103713 <user_mem_check+0x42>
    user_mem_check_addr = (va_beg >= ULIM) ? va_beg : ULIM;
f01036f4:	81 7d 0c 00 00 80 ef 	cmpl   $0xef800000,0xc(%ebp)
f01036fb:	b8 00 00 80 ef       	mov    $0xef800000,%eax
f0103700:	0f 43 45 0c          	cmovae 0xc(%ebp),%eax
f0103704:	a3 40 32 20 f0       	mov    %eax,0xf0203240
    return -E_FAULT;
f0103709:	b8 fa ff ff ff       	mov    $0xfffffffa,%eax
f010370e:	e9 e4 00 00 00       	jmp    f01037f7 <user_mem_check+0x126>
  }

  // step 2 : check present & permission
  uintptr_t va_beg2 = ROUNDDOWN(va_beg, PGSIZE);
f0103713:	8b 45 0c             	mov    0xc(%ebp),%eax
f0103716:	25 00 f0 ff ff       	and    $0xfffff000,%eax
  uintptr_t va_end2 = ROUNDUP(va_end, PGSIZE);
f010371b:	81 c6 ff 0f 00 00    	add    $0xfff,%esi
f0103721:	81 e6 00 f0 ff ff    	and    $0xfffff000,%esi
  while (va_beg2 < va_end2) {
f0103727:	39 f0                	cmp    %esi,%eax
f0103729:	0f 83 c3 00 00 00    	jae    f01037f2 <user_mem_check+0x121>

    // check page table is present ?
    if (!(env->env_pgdir[PDX(va_beg2)] & PTE_P)) {
f010372f:	8b 55 08             	mov    0x8(%ebp),%edx
f0103732:	8b 7a 60             	mov    0x60(%edx),%edi
f0103735:	89 c2                	mov    %eax,%edx
f0103737:	c1 ea 16             	shr    $0x16,%edx
f010373a:	8b 14 97             	mov    (%edi,%edx,4),%edx
f010373d:	f6 c2 01             	test   $0x1,%dl
f0103740:	74 2b                	je     f010376d <user_mem_check+0x9c>
      user_mem_check_addr = (va_beg2 > va_beg) ? va_beg2 : va_beg;
      return -E_FAULT;
    }

    // get current page table kernel va
    uint32_t* pt_kva = KADDR(PTE_ADDR(env->env_pgdir[PDX(va_beg2)]));
f0103742:	81 e2 00 f0 ff ff    	and    $0xfffff000,%edx
#define KADDR(pa) _kaddr(__FILE__, __LINE__, pa)

static inline void*
_kaddr(const char *file, int line, physaddr_t pa)
{
	if (PGNUM(pa) >= npages)
f0103748:	8b 1d 88 3e 20 f0    	mov    0xf0203e88,%ebx
f010374e:	89 5d e4             	mov    %ebx,-0x1c(%ebp)
f0103751:	89 d3                	mov    %edx,%ebx
f0103753:	c1 eb 0c             	shr    $0xc,%ebx
f0103756:	3b 5d e4             	cmp    -0x1c(%ebp),%ebx
f0103759:	72 55                	jb     f01037b0 <user_mem_check+0xdf>
f010375b:	eb 33                	jmp    f0103790 <user_mem_check+0xbf>
  uintptr_t va_beg2 = ROUNDDOWN(va_beg, PGSIZE);
  uintptr_t va_end2 = ROUNDUP(va_end, PGSIZE);
  while (va_beg2 < va_end2) {

    // check page table is present ?
    if (!(env->env_pgdir[PDX(va_beg2)] & PTE_P)) {
f010375d:	89 c2                	mov    %eax,%edx
f010375f:	c1 ea 16             	shr    $0x16,%edx
f0103762:	8b 7d e0             	mov    -0x20(%ebp),%edi
f0103765:	8b 14 97             	mov    (%edi,%edx,4),%edx
f0103768:	f6 c2 01             	test   $0x1,%dl
f010376b:	75 13                	jne    f0103780 <user_mem_check+0xaf>
      user_mem_check_addr = (va_beg2 > va_beg) ? va_beg2 : va_beg;
f010376d:	3b 45 0c             	cmp    0xc(%ebp),%eax
f0103770:	0f 42 45 0c          	cmovb  0xc(%ebp),%eax
f0103774:	a3 40 32 20 f0       	mov    %eax,0xf0203240
      return -E_FAULT;
f0103779:	b8 fa ff ff ff       	mov    $0xfffffffa,%eax
f010377e:	eb 77                	jmp    f01037f7 <user_mem_check+0x126>
    }

    // get current page table kernel va
    uint32_t* pt_kva = KADDR(PTE_ADDR(env->env_pgdir[PDX(va_beg2)]));
f0103780:	81 e2 00 f0 ff ff    	and    $0xfffff000,%edx
f0103786:	89 d3                	mov    %edx,%ebx
f0103788:	c1 eb 0c             	shr    $0xc,%ebx
f010378b:	3b 5d e4             	cmp    -0x1c(%ebp),%ebx
f010378e:	72 23                	jb     f01037b3 <user_mem_check+0xe2>
		_panic(file, line, "KADDR called with invalid pa %08lx", pa);
f0103790:	89 54 24 0c          	mov    %edx,0xc(%esp)
f0103794:	c7 44 24 08 e4 6c 10 	movl   $0xf0106ce4,0x8(%esp)
f010379b:	f0 
f010379c:	c7 44 24 04 d1 02 00 	movl   $0x2d1,0x4(%esp)
f01037a3:	00 
f01037a4:	c7 04 24 ad 7b 10 f0 	movl   $0xf0107bad,(%esp)
f01037ab:	e8 90 c8 ff ff       	call   f0100040 <_panic>
f01037b0:	89 7d e0             	mov    %edi,-0x20(%ebp)

    // check page is present & permissions
    if (!((pt_kva[PTX(va_beg2)] & perm) == perm)) {
f01037b3:	89 c3                	mov    %eax,%ebx
f01037b5:	c1 eb 0c             	shr    $0xc,%ebx
f01037b8:	81 e3 ff 03 00 00    	and    $0x3ff,%ebx
f01037be:	89 cf                	mov    %ecx,%edi
f01037c0:	23 bc 9a 00 00 00 f0 	and    -0x10000000(%edx,%ebx,4),%edi
f01037c7:	39 f9                	cmp    %edi,%ecx
f01037c9:	74 13                	je     f01037de <user_mem_check+0x10d>
      user_mem_check_addr = (va_beg2 > va_beg) ? va_beg2 : va_beg;
f01037cb:	3b 45 0c             	cmp    0xc(%ebp),%eax
f01037ce:	0f 42 45 0c          	cmovb  0xc(%ebp),%eax
f01037d2:	a3 40 32 20 f0       	mov    %eax,0xf0203240
      return -E_FAULT;
f01037d7:	b8 fa ff ff ff       	mov    $0xfffffffa,%eax
f01037dc:	eb 19                	jmp    f01037f7 <user_mem_check+0x126>
    }

    va_beg2 += PGSIZE;
f01037de:	05 00 10 00 00       	add    $0x1000,%eax
  }

  // step 2 : check present & permission
  uintptr_t va_beg2 = ROUNDDOWN(va_beg, PGSIZE);
  uintptr_t va_end2 = ROUNDUP(va_end, PGSIZE);
  while (va_beg2 < va_end2) {
f01037e3:	39 c6                	cmp    %eax,%esi
f01037e5:	0f 87 72 ff ff ff    	ja     f010375d <user_mem_check+0x8c>
      return -E_FAULT;
    }

    va_beg2 += PGSIZE;
  }
  return 0;
f01037eb:	b8 00 00 00 00       	mov    $0x0,%eax
f01037f0:	eb 05                	jmp    f01037f7 <user_mem_check+0x126>
f01037f2:	b8 00 00 00 00       	mov    $0x0,%eax
}
f01037f7:	83 c4 2c             	add    $0x2c,%esp
f01037fa:	5b                   	pop    %ebx
f01037fb:	5e                   	pop    %esi
f01037fc:	5f                   	pop    %edi
f01037fd:	5d                   	pop    %ebp
f01037fe:	c3                   	ret    

f01037ff <user_mem_assert>:
// If it cannot, 'env' is destroyed and, if env is the current
// environment, this function will not return.
//
void
user_mem_assert(struct Env *env, const void *va, size_t len, int perm)
{
f01037ff:	55                   	push   %ebp
f0103800:	89 e5                	mov    %esp,%ebp
f0103802:	53                   	push   %ebx
f0103803:	83 ec 14             	sub    $0x14,%esp
f0103806:	8b 5d 08             	mov    0x8(%ebp),%ebx
	if (user_mem_check(env, va, len, perm | PTE_U) < 0) {
f0103809:	8b 45 14             	mov    0x14(%ebp),%eax
f010380c:	83 c8 04             	or     $0x4,%eax
f010380f:	89 44 24 0c          	mov    %eax,0xc(%esp)
f0103813:	8b 45 10             	mov    0x10(%ebp),%eax
f0103816:	89 44 24 08          	mov    %eax,0x8(%esp)
f010381a:	8b 45 0c             	mov    0xc(%ebp),%eax
f010381d:	89 44 24 04          	mov    %eax,0x4(%esp)
f0103821:	89 1c 24             	mov    %ebx,(%esp)
f0103824:	e8 a8 fe ff ff       	call   f01036d1 <user_mem_check>
f0103829:	85 c0                	test   %eax,%eax
f010382b:	79 24                	jns    f0103851 <user_mem_assert+0x52>
		cprintf("[%08x] user_mem_check assertion failure for "
f010382d:	a1 40 32 20 f0       	mov    0xf0203240,%eax
f0103832:	89 44 24 08          	mov    %eax,0x8(%esp)
f0103836:	8b 43 48             	mov    0x48(%ebx),%eax
f0103839:	89 44 24 04          	mov    %eax,0x4(%esp)
f010383d:	c7 04 24 78 7b 10 f0 	movl   $0xf0107b78,(%esp)
f0103844:	e8 1c 09 00 00       	call   f0104165 <cprintf>
			"va %08x\n", env->env_id, user_mem_check_addr);
		env_destroy(env);	// may not return
f0103849:	89 1c 24             	mov    %ebx,(%esp)
f010384c:	e8 49 06 00 00       	call   f0103e9a <env_destroy>
	}
}
f0103851:	83 c4 14             	add    $0x14,%esp
f0103854:	5b                   	pop    %ebx
f0103855:	5d                   	pop    %ebp
f0103856:	c3                   	ret    

f0103857 <region_alloc>:
// Pages should be writable by user and kernel.
// Panic if any allocation attempt fails.
//
static void
region_alloc(struct Env *e, void *va, size_t len)
{
f0103857:	55                   	push   %ebp
f0103858:	89 e5                	mov    %esp,%ebp
f010385a:	57                   	push   %edi
f010385b:	56                   	push   %esi
f010385c:	53                   	push   %ebx
f010385d:	83 ec 1c             	sub    $0x1c,%esp
f0103860:	89 c7                	mov    %eax,%edi
	//
	// Hint: It is easier to use region_alloc if the caller can pass
	//   'va' and 'len' values that are not page-aligned.
	//   You should round va down, and round (va + len) up.
	//   (Watch out for corner-cases!)
	uintptr_t va_beg = ROUNDDOWN((uintptr_t)va, PGSIZE);
f0103862:	89 d3                	mov    %edx,%ebx
f0103864:	81 e3 00 f0 ff ff    	and    $0xfffff000,%ebx
	uintptr_t va_end = ROUNDUP(((uintptr_t)va) + len, PGSIZE);
f010386a:	8d b4 0a ff 0f 00 00 	lea    0xfff(%edx,%ecx,1),%esi
f0103871:	81 e6 00 f0 ff ff    	and    $0xfffff000,%esi
	pte_t* pte;
	while (va_beg < va_end) {
f0103877:	39 f3                	cmp    %esi,%ebx
f0103879:	73 51                	jae    f01038cc <region_alloc+0x75>
		struct PageInfo *page = page_alloc(0);
f010387b:	c7 04 24 00 00 00 00 	movl   $0x0,(%esp)
f0103882:	e8 a7 d9 ff ff       	call   f010122e <page_alloc>
		if (page_insert(e->env_pgdir, page, (void*)va_beg, PTE_W | PTE_U)) {
f0103887:	c7 44 24 0c 06 00 00 	movl   $0x6,0xc(%esp)
f010388e:	00 
f010388f:	89 5c 24 08          	mov    %ebx,0x8(%esp)
f0103893:	89 44 24 04          	mov    %eax,0x4(%esp)
f0103897:	8b 47 60             	mov    0x60(%edi),%eax
f010389a:	89 04 24             	mov    %eax,(%esp)
f010389d:	e8 ec dc ff ff       	call   f010158e <page_insert>
f01038a2:	85 c0                	test   %eax,%eax
f01038a4:	74 1c                	je     f01038c2 <region_alloc+0x6b>
			panic("Page talbe couldn't be allocated")	;
f01038a6:	c7 44 24 08 0c 7f 10 	movl   $0xf0107f0c,0x8(%esp)
f01038ad:	f0 
f01038ae:	c7 44 24 04 37 01 00 	movl   $0x137,0x4(%esp)
f01038b5:	00 
f01038b6:	c7 04 24 4f 7f 10 f0 	movl   $0xf0107f4f,(%esp)
f01038bd:	e8 7e c7 ff ff       	call   f0100040 <_panic>
		}
		va_beg += PGSIZE;
f01038c2:	81 c3 00 10 00 00    	add    $0x1000,%ebx
	//   You should round va down, and round (va + len) up.
	//   (Watch out for corner-cases!)
	uintptr_t va_beg = ROUNDDOWN((uintptr_t)va, PGSIZE);
	uintptr_t va_end = ROUNDUP(((uintptr_t)va) + len, PGSIZE);
	pte_t* pte;
	while (va_beg < va_end) {
f01038c8:	39 de                	cmp    %ebx,%esi
f01038ca:	77 af                	ja     f010387b <region_alloc+0x24>
		if (page_insert(e->env_pgdir, page, (void*)va_beg, PTE_W | PTE_U)) {
			panic("Page talbe couldn't be allocated")	;
		}
		va_beg += PGSIZE;
	}
}
f01038cc:	83 c4 1c             	add    $0x1c,%esp
f01038cf:	5b                   	pop    %ebx
f01038d0:	5e                   	pop    %esi
f01038d1:	5f                   	pop    %edi
f01038d2:	5d                   	pop    %ebp
f01038d3:	c3                   	ret    

f01038d4 <envid2env>:
//   On success, sets *env_store to the environment.
//   On error, sets *env_store to NULL.
//
int
envid2env(envid_t envid, struct Env **env_store, bool checkperm)
{
f01038d4:	55                   	push   %ebp
f01038d5:	89 e5                	mov    %esp,%ebp
f01038d7:	56                   	push   %esi
f01038d8:	53                   	push   %ebx
f01038d9:	8b 45 08             	mov    0x8(%ebp),%eax
f01038dc:	8b 55 10             	mov    0x10(%ebp),%edx
	struct Env *e;

	// If envid is zero, return the current environment.
	if (envid == 0) {
f01038df:	85 c0                	test   %eax,%eax
f01038e1:	75 1a                	jne    f01038fd <envid2env+0x29>
		*env_store = curenv;
f01038e3:	e8 bb 2c 00 00       	call   f01065a3 <cpunum>
f01038e8:	6b c0 74             	imul   $0x74,%eax,%eax
f01038eb:	8b 80 28 40 20 f0    	mov    -0xfdfbfd8(%eax),%eax
f01038f1:	8b 4d 0c             	mov    0xc(%ebp),%ecx
f01038f4:	89 01                	mov    %eax,(%ecx)
		return 0;
f01038f6:	b8 00 00 00 00       	mov    $0x0,%eax
f01038fb:	eb 70                	jmp    f010396d <envid2env+0x99>
	// Look up the Env structure via the index part of the envid,
	// then check the env_id field in that struct Env
	// to ensure that the envid is not stale
	// (i.e., does not refer to a _previous_ environment
	// that used the same slot in the envs[] array).
	e = &envs[ENVX(envid)];
f01038fd:	89 c3                	mov    %eax,%ebx
f01038ff:	81 e3 ff 03 00 00    	and    $0x3ff,%ebx
f0103905:	6b db 7c             	imul   $0x7c,%ebx,%ebx
f0103908:	03 1d 4c 32 20 f0    	add    0xf020324c,%ebx
	if (e->env_status == ENV_FREE || e->env_id != envid) {
f010390e:	83 7b 54 00          	cmpl   $0x0,0x54(%ebx)
f0103912:	74 05                	je     f0103919 <envid2env+0x45>
f0103914:	39 43 48             	cmp    %eax,0x48(%ebx)
f0103917:	74 10                	je     f0103929 <envid2env+0x55>
		*env_store = 0;
f0103919:	8b 45 0c             	mov    0xc(%ebp),%eax
f010391c:	c7 00 00 00 00 00    	movl   $0x0,(%eax)
		return -E_BAD_ENV;
f0103922:	b8 fe ff ff ff       	mov    $0xfffffffe,%eax
f0103927:	eb 44                	jmp    f010396d <envid2env+0x99>
	// Check that the calling environment has legitimate permission
	// to manipulate the specified environment.
	// If checkperm is set, the specified environment
	// must be either the current environment
	// or an immediate child of the current environment.
	if (checkperm && e != curenv && e->env_parent_id != curenv->env_id) {
f0103929:	84 d2                	test   %dl,%dl
f010392b:	74 36                	je     f0103963 <envid2env+0x8f>
f010392d:	e8 71 2c 00 00       	call   f01065a3 <cpunum>
f0103932:	6b c0 74             	imul   $0x74,%eax,%eax
f0103935:	39 98 28 40 20 f0    	cmp    %ebx,-0xfdfbfd8(%eax)
f010393b:	74 26                	je     f0103963 <envid2env+0x8f>
f010393d:	8b 73 4c             	mov    0x4c(%ebx),%esi
f0103940:	e8 5e 2c 00 00       	call   f01065a3 <cpunum>
f0103945:	6b c0 74             	imul   $0x74,%eax,%eax
f0103948:	8b 80 28 40 20 f0    	mov    -0xfdfbfd8(%eax),%eax
f010394e:	3b 70 48             	cmp    0x48(%eax),%esi
f0103951:	74 10                	je     f0103963 <envid2env+0x8f>
		*env_store = 0;
f0103953:	8b 45 0c             	mov    0xc(%ebp),%eax
f0103956:	c7 00 00 00 00 00    	movl   $0x0,(%eax)
		return -E_BAD_ENV;
f010395c:	b8 fe ff ff ff       	mov    $0xfffffffe,%eax
f0103961:	eb 0a                	jmp    f010396d <envid2env+0x99>
	}

	*env_store = e;
f0103963:	8b 45 0c             	mov    0xc(%ebp),%eax
f0103966:	89 18                	mov    %ebx,(%eax)
	return 0;
f0103968:	b8 00 00 00 00       	mov    $0x0,%eax
}
f010396d:	5b                   	pop    %ebx
f010396e:	5e                   	pop    %esi
f010396f:	5d                   	pop    %ebp
f0103970:	c3                   	ret    

f0103971 <env_init_percpu>:
}

// Load GDT and segment descriptors.
void
env_init_percpu(void)
{
f0103971:	55                   	push   %ebp
f0103972:	89 e5                	mov    %esp,%ebp
}

static __inline void
lgdt(void *p)
{
	__asm __volatile("lgdt (%0)" : : "r" (p));
f0103974:	b8 20 13 12 f0       	mov    $0xf0121320,%eax
f0103979:	0f 01 10             	lgdtl  (%eax)
	// The kernel never uses GS or FS, so we leave those set to
	// the user data segment.
	// Note:
	// The low 2 bits of each segment register contains the
	// Requestor Privilege Level (RPL); 3 means user mode.  When
	asm volatile("movw %%ax,%%gs" :: "a" (GD_UD|3));
f010397c:	b8 23 00 00 00       	mov    $0x23,%eax
f0103981:	8e e8                	mov    %eax,%gs
	asm volatile("movw %%ax,%%fs" :: "a" (GD_UD|3));
f0103983:	8e e0                	mov    %eax,%fs
	// The kernel does use ES, DS, and SS.  We'll change between
	// the kernel and user data segments as needed.
	asm volatile("movw %%ax,%%es" :: "a" (GD_KD));
f0103985:	b0 10                	mov    $0x10,%al
f0103987:	8e c0                	mov    %eax,%es
	asm volatile("movw %%ax,%%ds" :: "a" (GD_KD));
f0103989:	8e d8                	mov    %eax,%ds
	asm volatile("movw %%ax,%%ss" :: "a" (GD_KD));
f010398b:	8e d0                	mov    %eax,%ss
	// Load the kernel text segment into CS.
	// Note: f means forward jump, 1 means jump to lable 1:
	asm volatile("ljmp %0,$1f\n 1:\n" :: "i" (GD_KT));
f010398d:	ea 94 39 10 f0 08 00 	ljmp   $0x8,$0xf0103994
}

static __inline void
lldt(uint16_t sel)
{
	__asm __volatile("lldt %0" : : "r" (sel));
f0103994:	b0 00                	mov    $0x0,%al
f0103996:	0f 00 d0             	lldt   %ax
	// For good measure, clear the local descriptor table (LDT),
	// since we don't use it.
	lldt(0);
}
f0103999:	5d                   	pop    %ebp
f010399a:	c3                   	ret    

f010399b <env_init>:
// they are in the envs array (i.e., so that the first call to
// env_alloc() returns envs[0]).
//
void
env_init(void)
{
f010399b:	55                   	push   %ebp
f010399c:	89 e5                	mov    %esp,%ebp
f010399e:	56                   	push   %esi
f010399f:	53                   	push   %ebx
f01039a0:	83 ec 10             	sub    $0x10,%esp
f01039a3:	be 01 00 00 00       	mov    $0x1,%esi
f01039a8:	bb 00 00 00 00       	mov    $0x0,%ebx
f01039ad:	eb 06                	jmp    f01039b5 <env_init+0x1a>
f01039af:	83 c3 7c             	add    $0x7c,%ebx
f01039b2:	83 c6 01             	add    $0x1,%esi
	// Set up envs array
	int i = 0;
	for (i = 0; i < NENV; ++i) {
		memset(envs + i, 0, sizeof(envs[i]));
f01039b5:	c7 44 24 08 7c 00 00 	movl   $0x7c,0x8(%esp)
f01039bc:	00 
f01039bd:	c7 44 24 04 00 00 00 	movl   $0x0,0x4(%esp)
f01039c4:	00 
f01039c5:	89 d8                	mov    %ebx,%eax
f01039c7:	03 05 4c 32 20 f0    	add    0xf020324c,%eax
f01039cd:	89 04 24             	mov    %eax,(%esp)
f01039d0:	e8 34 25 00 00       	call   f0105f09 <memset>
		envs[i].env_id = 0;
f01039d5:	8b 15 4c 32 20 f0    	mov    0xf020324c,%edx
f01039db:	8d 04 1a             	lea    (%edx,%ebx,1),%eax
f01039de:	c7 40 48 00 00 00 00 	movl   $0x0,0x48(%eax)
		envs[i].env_link = NULL;
f01039e5:	c7 40 44 00 00 00 00 	movl   $0x0,0x44(%eax)
		if (i == 0) {
f01039ec:	83 fe 01             	cmp    $0x1,%esi
f01039ef:	75 08                	jne    f01039f9 <env_init+0x5e>
			env_free_list = &envs[0];
f01039f1:	89 15 50 32 20 f0    	mov    %edx,0xf0203250
f01039f7:	eb b6                	jmp    f01039af <env_init+0x14>
		} else {
			envs[i-1].env_link = &envs[i];
f01039f9:	89 44 1a c8          	mov    %eax,-0x38(%edx,%ebx,1)
void
env_init(void)
{
	// Set up envs array
	int i = 0;
	for (i = 0; i < NENV; ++i) {
f01039fd:	81 fe ff 03 00 00    	cmp    $0x3ff,%esi
f0103a03:	7e aa                	jle    f01039af <env_init+0x14>
		} else {
			envs[i-1].env_link = &envs[i];
		}
	}
	// Per-CPU part of the initialization
	env_init_percpu();
f0103a05:	e8 67 ff ff ff       	call   f0103971 <env_init_percpu>
}
f0103a0a:	83 c4 10             	add    $0x10,%esp
f0103a0d:	5b                   	pop    %ebx
f0103a0e:	5e                   	pop    %esi
f0103a0f:	5d                   	pop    %ebp
f0103a10:	c3                   	ret    

f0103a11 <env_alloc>:
//	-E_NO_FREE_ENV if all NENVS environments are allocated
//	-E_NO_MEM on memory exhaustion
//
int
env_alloc(struct Env **newenv_store, envid_t parent_id)
{
f0103a11:	55                   	push   %ebp
f0103a12:	89 e5                	mov    %esp,%ebp
f0103a14:	53                   	push   %ebx
f0103a15:	83 ec 14             	sub    $0x14,%esp
	int32_t generation;
	int r;
	struct Env *e;

	if (!(e = env_free_list))
f0103a18:	8b 1d 50 32 20 f0    	mov    0xf0203250,%ebx
f0103a1e:	85 db                	test   %ebx,%ebx
f0103a20:	0f 84 54 01 00 00    	je     f0103b7a <env_alloc+0x169>
{
	int i;
	struct PageInfo *p = NULL;

	// Allocate a page for the page directory
	if (!(p = page_alloc(ALLOC_ZERO)))
f0103a26:	c7 04 24 01 00 00 00 	movl   $0x1,(%esp)
f0103a2d:	e8 fc d7 ff ff       	call   f010122e <page_alloc>
f0103a32:	85 c0                	test   %eax,%eax
f0103a34:	0f 84 47 01 00 00    	je     f0103b81 <env_alloc+0x170>
	//	is an exception -- you need to increment env_pgdir's
	//	pp_ref for env_free to work correctly.
	//    - The functions in kern/pmap.h are handy.

	// LAB 3: Your code here.
	++p->pp_ref;
f0103a3a:	66 83 40 04 01       	addw   $0x1,0x4(%eax)
void	user_mem_assert(struct Env *env, const void *va, size_t len, int perm);

static inline physaddr_t
page2pa(struct PageInfo *pp)
{
	return (pp - pages) << PGSHIFT;
f0103a3f:	2b 05 90 3e 20 f0    	sub    0xf0203e90,%eax
f0103a45:	c1 f8 03             	sar    $0x3,%eax
f0103a48:	c1 e0 0c             	shl    $0xc,%eax
#define KADDR(pa) _kaddr(__FILE__, __LINE__, pa)

static inline void*
_kaddr(const char *file, int line, physaddr_t pa)
{
	if (PGNUM(pa) >= npages)
f0103a4b:	89 c2                	mov    %eax,%edx
f0103a4d:	c1 ea 0c             	shr    $0xc,%edx
f0103a50:	3b 15 88 3e 20 f0    	cmp    0xf0203e88,%edx
f0103a56:	72 20                	jb     f0103a78 <env_alloc+0x67>
		_panic(file, line, "KADDR called with invalid pa %08lx", pa);
f0103a58:	89 44 24 0c          	mov    %eax,0xc(%esp)
f0103a5c:	c7 44 24 08 e4 6c 10 	movl   $0xf0106ce4,0x8(%esp)
f0103a63:	f0 
f0103a64:	c7 44 24 04 58 00 00 	movl   $0x58,0x4(%esp)
f0103a6b:	00 
f0103a6c:	c7 04 24 b9 7b 10 f0 	movl   $0xf0107bb9,(%esp)
f0103a73:	e8 c8 c5 ff ff       	call   f0100040 <_panic>
	return (void *)(pa + KERNBASE);
f0103a78:	2d 00 00 00 10       	sub    $0x10000000,%eax
f0103a7d:	89 43 60             	mov    %eax,0x60(%ebx)
	e->env_pgdir = (pde_t*)page2kva(p);
f0103a80:	b8 00 00 00 00       	mov    $0x0,%eax

	for (i = 0; i < NPDENTRIES; ++i) {
		e->env_pgdir[i] = kern_pgdir[i];
f0103a85:	8b 15 8c 3e 20 f0    	mov    0xf0203e8c,%edx
f0103a8b:	8b 0c 02             	mov    (%edx,%eax,1),%ecx
f0103a8e:	8b 53 60             	mov    0x60(%ebx),%edx
f0103a91:	89 0c 02             	mov    %ecx,(%edx,%eax,1)
f0103a94:	83 c0 04             	add    $0x4,%eax

	// LAB 3: Your code here.
	++p->pp_ref;
	e->env_pgdir = (pde_t*)page2kva(p);

	for (i = 0; i < NPDENTRIES; ++i) {
f0103a97:	3d 00 10 00 00       	cmp    $0x1000,%eax
f0103a9c:	75 e7                	jne    f0103a85 <env_alloc+0x74>
		e->env_pgdir[i] = kern_pgdir[i];
	}

	// UVPT maps the env's own page table read-only.
	// Permissions: kernel R, user R
	e->env_pgdir[PDX(UVPT)] = PADDR(e->env_pgdir) | PTE_P | PTE_U;
f0103a9e:	8b 43 60             	mov    0x60(%ebx),%eax
#define PADDR(kva) _paddr(__FILE__, __LINE__, kva)

static inline physaddr_t
_paddr(const char *file, int line, void *kva)
{
	if ((uint32_t)kva < KERNBASE)
f0103aa1:	3d ff ff ff ef       	cmp    $0xefffffff,%eax
f0103aa6:	77 20                	ja     f0103ac8 <env_alloc+0xb7>
		_panic(file, line, "PADDR called with invalid kva %08lx", kva);
f0103aa8:	89 44 24 0c          	mov    %eax,0xc(%esp)
f0103aac:	c7 44 24 08 08 6d 10 	movl   $0xf0106d08,0x8(%esp)
f0103ab3:	f0 
f0103ab4:	c7 44 24 04 d2 00 00 	movl   $0xd2,0x4(%esp)
f0103abb:	00 
f0103abc:	c7 04 24 4f 7f 10 f0 	movl   $0xf0107f4f,(%esp)
f0103ac3:	e8 78 c5 ff ff       	call   f0100040 <_panic>
	return (physaddr_t)kva - KERNBASE;
f0103ac8:	8d 90 00 00 00 10    	lea    0x10000000(%eax),%edx
f0103ace:	83 ca 05             	or     $0x5,%edx
f0103ad1:	89 90 f4 0e 00 00    	mov    %edx,0xef4(%eax)
	// Allocate and set up the page directory for this environment.
	if ((r = env_setup_vm(e)) < 0)
		return r;

	// Generate an env_id for this environment.
	generation = (e->env_id + (1 << ENVGENSHIFT)) & ~(NENV - 1);
f0103ad7:	8b 43 48             	mov    0x48(%ebx),%eax
f0103ada:	05 00 10 00 00       	add    $0x1000,%eax
	if (generation <= 0)	// Don't create a negative env_id.
f0103adf:	25 00 fc ff ff       	and    $0xfffffc00,%eax
		generation = 1 << ENVGENSHIFT;
f0103ae4:	ba 00 10 00 00       	mov    $0x1000,%edx
f0103ae9:	0f 4e c2             	cmovle %edx,%eax
	e->env_id = generation | (e - envs);
f0103aec:	89 da                	mov    %ebx,%edx
f0103aee:	2b 15 4c 32 20 f0    	sub    0xf020324c,%edx
f0103af4:	c1 fa 02             	sar    $0x2,%edx
f0103af7:	69 d2 df 7b ef bd    	imul   $0xbdef7bdf,%edx,%edx
f0103afd:	09 d0                	or     %edx,%eax
f0103aff:	89 43 48             	mov    %eax,0x48(%ebx)

	// Set the basic status variables.
	e->env_parent_id = parent_id;
f0103b02:	8b 45 0c             	mov    0xc(%ebp),%eax
f0103b05:	89 43 4c             	mov    %eax,0x4c(%ebx)
	e->env_type = ENV_TYPE_USER;
f0103b08:	c7 43 50 00 00 00 00 	movl   $0x0,0x50(%ebx)
	e->env_status = ENV_RUNNABLE;
f0103b0f:	c7 43 54 02 00 00 00 	movl   $0x2,0x54(%ebx)
	e->env_runs = 0;
f0103b16:	c7 43 58 00 00 00 00 	movl   $0x0,0x58(%ebx)

	// Clear out all the saved register state,
	// to prevent the register values
	// of a prior environment inhabiting this Env structure
	// from "leaking" into our new environment.
	memset(&e->env_tf, 0, sizeof(e->env_tf));
f0103b1d:	c7 44 24 08 44 00 00 	movl   $0x44,0x8(%esp)
f0103b24:	00 
f0103b25:	c7 44 24 04 00 00 00 	movl   $0x0,0x4(%esp)
f0103b2c:	00 
f0103b2d:	89 1c 24             	mov    %ebx,(%esp)
f0103b30:	e8 d4 23 00 00       	call   f0105f09 <memset>
	// The low 2 bits of each segment register contains the
	// Requestor Privilege Level (RPL); 3 means user mode.  When
	// we switch privilege levels, the hardware does various
	// checks involving the RPL and the Descriptor Privilege Level
	// (DPL) stored in the descriptors themselves.
	e->env_tf.tf_ds = GD_UD | 3;
f0103b35:	66 c7 43 24 23 00    	movw   $0x23,0x24(%ebx)
	e->env_tf.tf_es = GD_UD | 3;
f0103b3b:	66 c7 43 20 23 00    	movw   $0x23,0x20(%ebx)
	e->env_tf.tf_ss = GD_UD | 3;
f0103b41:	66 c7 43 40 23 00    	movw   $0x23,0x40(%ebx)
	e->env_tf.tf_esp = USTACKTOP;
f0103b47:	c7 43 3c 00 e0 bf ee 	movl   $0xeebfe000,0x3c(%ebx)
	e->env_tf.tf_cs = GD_UT | 3;
f0103b4e:	66 c7 43 34 1b 00    	movw   $0x1b,0x34(%ebx)
	// You will set e->env_tf.tf_eip later.

	// Enable interrupts while in user mode.
	// LAB 4: Your code here.
	e->env_tf.tf_eflags |= FL_IF;
f0103b54:	81 4b 38 00 02 00 00 	orl    $0x200,0x38(%ebx)
	
	// Clear the page fault handler until user installs one.
	e->env_pgfault_upcall = 0;
f0103b5b:	c7 43 64 00 00 00 00 	movl   $0x0,0x64(%ebx)

	// Also clear the IPC receiving flag.
	e->env_ipc_recving = 0;
f0103b62:	c6 43 68 00          	movb   $0x0,0x68(%ebx)

	// commit the allocation
	env_free_list = e->env_link;
f0103b66:	8b 43 44             	mov    0x44(%ebx),%eax
f0103b69:	a3 50 32 20 f0       	mov    %eax,0xf0203250
	*newenv_store = e;
f0103b6e:	8b 45 08             	mov    0x8(%ebp),%eax
f0103b71:	89 18                	mov    %ebx,(%eax)

	// cprintf("[%08x] new env %08x\n", curenv ? curenv->env_id : 0, e->env_id);
	return 0;
f0103b73:	b8 00 00 00 00       	mov    $0x0,%eax
f0103b78:	eb 0c                	jmp    f0103b86 <env_alloc+0x175>
	int32_t generation;
	int r;
	struct Env *e;

	if (!(e = env_free_list))
		return -E_NO_FREE_ENV;
f0103b7a:	b8 fb ff ff ff       	mov    $0xfffffffb,%eax
f0103b7f:	eb 05                	jmp    f0103b86 <env_alloc+0x175>
	int i;
	struct PageInfo *p = NULL;

	// Allocate a page for the page directory
	if (!(p = page_alloc(ALLOC_ZERO)))
		return -E_NO_MEM;
f0103b81:	b8 fc ff ff ff       	mov    $0xfffffffc,%eax
	env_free_list = e->env_link;
	*newenv_store = e;

	// cprintf("[%08x] new env %08x\n", curenv ? curenv->env_id : 0, e->env_id);
	return 0;
}
f0103b86:	83 c4 14             	add    $0x14,%esp
f0103b89:	5b                   	pop    %ebx
f0103b8a:	5d                   	pop    %ebp
f0103b8b:	c3                   	ret    

f0103b8c <env_create>:
// This function is ONLY called during kernel initialization,
// before running the first user-mode environment.
// The new env's parent ID is set to 0.
//
void
env_create(uint8_t *binary, size_t size, enum EnvType type) {
f0103b8c:	55                   	push   %ebp
f0103b8d:	89 e5                	mov    %esp,%ebp
f0103b8f:	57                   	push   %edi
f0103b90:	56                   	push   %esi
f0103b91:	53                   	push   %ebx
f0103b92:	83 ec 3c             	sub    $0x3c,%esp
f0103b95:	8b 7d 08             	mov    0x8(%ebp),%edi
	// If this is the file server (type == ENV_TYPE_FS) give it I/O privileges.
	// LAB 5: Your code here.
	struct Env *new_env = NULL;
f0103b98:	c7 45 e4 00 00 00 00 	movl   $0x0,-0x1c(%ebp)
	if (env_alloc(&new_env, 0)) {
f0103b9f:	c7 44 24 04 00 00 00 	movl   $0x0,0x4(%esp)
f0103ba6:	00 
f0103ba7:	8d 45 e4             	lea    -0x1c(%ebp),%eax
f0103baa:	89 04 24             	mov    %eax,(%esp)
f0103bad:	e8 5f fe ff ff       	call   f0103a11 <env_alloc>
f0103bb2:	85 c0                	test   %eax,%eax
f0103bb4:	74 1c                	je     f0103bd2 <env_create+0x46>
		panic("cannot alloc env");
f0103bb6:	c7 44 24 08 5a 7f 10 	movl   $0xf0107f5a,0x8(%esp)
f0103bbd:	f0 
f0103bbe:	c7 44 24 04 a1 01 00 	movl   $0x1a1,0x4(%esp)
f0103bc5:	00 
f0103bc6:	c7 04 24 4f 7f 10 f0 	movl   $0xf0107f4f,(%esp)
f0103bcd:	e8 6e c4 ff ff       	call   f0100040 <_panic>
	}
	load_icode(new_env, binary, size);
f0103bd2:	8b 45 e4             	mov    -0x1c(%ebp),%eax
f0103bd5:	89 45 d4             	mov    %eax,-0x2c(%ebp)
	//  You must also do something with the program's entry point,
	//  to make sure that the environment starts executing there.
	//  What?  (See env_run() and env_pop_tf() below.)

	// Get the beginning and end of program header table
	struct Proghdr *ph =
f0103bd8:	89 fb                	mov    %edi,%ebx
f0103bda:	03 5f 1c             	add    0x1c(%edi),%ebx
		(struct Proghdr *)(binary + ((struct Elf*)binary)->e_phoff);
	struct Proghdr *ph_end =
		(struct Proghdr *)(ph + ((struct Elf*)binary)->e_phnum);
f0103bdd:	0f b7 77 2c          	movzwl 0x2c(%edi),%esi
f0103be1:	c1 e6 05             	shl    $0x5,%esi
	//  What?  (See env_run() and env_pop_tf() below.)

	// Get the beginning and end of program header table
	struct Proghdr *ph =
		(struct Proghdr *)(binary + ((struct Elf*)binary)->e_phoff);
	struct Proghdr *ph_end =
f0103be4:	01 de                	add    %ebx,%esi
		(struct Proghdr *)(ph + ((struct Elf*)binary)->e_phnum);

	// switch to env's pgdir
	lcr3(PADDR(e->env_pgdir));
f0103be6:	8b 40 60             	mov    0x60(%eax),%eax
#define PADDR(kva) _paddr(__FILE__, __LINE__, kva)

static inline physaddr_t
_paddr(const char *file, int line, void *kva)
{
	if ((uint32_t)kva < KERNBASE)
f0103be9:	3d ff ff ff ef       	cmp    $0xefffffff,%eax
f0103bee:	77 20                	ja     f0103c10 <env_create+0x84>
		_panic(file, line, "PADDR called with invalid kva %08lx", kva);
f0103bf0:	89 44 24 0c          	mov    %eax,0xc(%esp)
f0103bf4:	c7 44 24 08 08 6d 10 	movl   $0xf0106d08,0x8(%esp)
f0103bfb:	f0 
f0103bfc:	c7 44 24 04 79 01 00 	movl   $0x179,0x4(%esp)
f0103c03:	00 
f0103c04:	c7 04 24 4f 7f 10 f0 	movl   $0xf0107f4f,(%esp)
f0103c0b:	e8 30 c4 ff ff       	call   f0100040 <_panic>
	return (physaddr_t)kva - KERNBASE;
f0103c10:	05 00 00 00 10       	add    $0x10000000,%eax
}

static __inline void
lcr3(uint32_t val)
{
	__asm __volatile("movl %0,%%cr3" : : "r" (val));
f0103c15:	0f 22 d8             	mov    %eax,%cr3

	for (; ph < ph_end; ++ph) {
f0103c18:	39 f3                	cmp    %esi,%ebx
f0103c1a:	73 54                	jae    f0103c70 <env_create+0xe4>
		if (ph->p_type != ELF_PROG_LOAD) {
f0103c1c:	83 3b 01             	cmpl   $0x1,(%ebx)
f0103c1f:	75 48                	jne    f0103c69 <env_create+0xdd>
			continue;
		}
		// allocate memory for this binary
		region_alloc(e, (void*)ph->p_va, ph->p_memsz);
f0103c21:	8b 4b 14             	mov    0x14(%ebx),%ecx
f0103c24:	8b 53 08             	mov    0x8(%ebx),%edx
f0103c27:	8b 45 d4             	mov    -0x2c(%ebp),%eax
f0103c2a:	e8 28 fc ff ff       	call   f0103857 <region_alloc>
		// Load binary image into memory
		memcpy((void*)ph->p_va, (void*)(binary + ph->p_offset), ph->p_filesz);
f0103c2f:	8b 43 10             	mov    0x10(%ebx),%eax
f0103c32:	89 44 24 08          	mov    %eax,0x8(%esp)
f0103c36:	89 f8                	mov    %edi,%eax
f0103c38:	03 43 04             	add    0x4(%ebx),%eax
f0103c3b:	89 44 24 04          	mov    %eax,0x4(%esp)
f0103c3f:	8b 43 08             	mov    0x8(%ebx),%eax
f0103c42:	89 04 24             	mov    %eax,(%esp)
f0103c45:	e8 74 23 00 00       	call   f0105fbe <memcpy>
		// Init .bss
		memset((void*)(ph->p_va + ph->p_filesz), 0, ph->p_memsz - ph->p_filesz);
f0103c4a:	8b 43 10             	mov    0x10(%ebx),%eax
f0103c4d:	8b 53 14             	mov    0x14(%ebx),%edx
f0103c50:	29 c2                	sub    %eax,%edx
f0103c52:	89 54 24 08          	mov    %edx,0x8(%esp)
f0103c56:	c7 44 24 04 00 00 00 	movl   $0x0,0x4(%esp)
f0103c5d:	00 
f0103c5e:	03 43 08             	add    0x8(%ebx),%eax
f0103c61:	89 04 24             	mov    %eax,(%esp)
f0103c64:	e8 a0 22 00 00       	call   f0105f09 <memset>
		(struct Proghdr *)(ph + ((struct Elf*)binary)->e_phnum);

	// switch to env's pgdir
	lcr3(PADDR(e->env_pgdir));

	for (; ph < ph_end; ++ph) {
f0103c69:	83 c3 20             	add    $0x20,%ebx
f0103c6c:	39 de                	cmp    %ebx,%esi
f0103c6e:	77 ac                	ja     f0103c1c <env_create+0x90>
		memset((void*)(ph->p_va + ph->p_filesz), 0, ph->p_memsz - ph->p_filesz);

	}

	// switch back to kern's pgdir
	lcr3(PADDR(kern_pgdir));
f0103c70:	a1 8c 3e 20 f0       	mov    0xf0203e8c,%eax
#define PADDR(kva) _paddr(__FILE__, __LINE__, kva)

static inline physaddr_t
_paddr(const char *file, int line, void *kva)
{
	if ((uint32_t)kva < KERNBASE)
f0103c75:	3d ff ff ff ef       	cmp    $0xefffffff,%eax
f0103c7a:	77 20                	ja     f0103c9c <env_create+0x110>
		_panic(file, line, "PADDR called with invalid kva %08lx", kva);
f0103c7c:	89 44 24 0c          	mov    %eax,0xc(%esp)
f0103c80:	c7 44 24 08 08 6d 10 	movl   $0xf0106d08,0x8(%esp)
f0103c87:	f0 
f0103c88:	c7 44 24 04 89 01 00 	movl   $0x189,0x4(%esp)
f0103c8f:	00 
f0103c90:	c7 04 24 4f 7f 10 f0 	movl   $0xf0107f4f,(%esp)
f0103c97:	e8 a4 c3 ff ff       	call   f0100040 <_panic>
	return (physaddr_t)kva - KERNBASE;
f0103c9c:	05 00 00 00 10       	add    $0x10000000,%eax
f0103ca1:	0f 22 d8             	mov    %eax,%cr3

	// Modified env's trapframe
	// other files in trap frame is set in env_alloc.
	e->env_tf.tf_eip = ((struct Elf*)binary)->e_entry;
f0103ca4:	8b 47 18             	mov    0x18(%edi),%eax
f0103ca7:	8b 7d d4             	mov    -0x2c(%ebp),%edi
f0103caa:	89 47 30             	mov    %eax,0x30(%edi)

	// Now map one page for the program's initial stack
	// at virtual address USTACKTOP - PGSIZE.
	region_alloc(e, (void*)(USTACKTOP - PGSIZE), PGSIZE);
f0103cad:	b9 00 10 00 00       	mov    $0x1000,%ecx
f0103cb2:	ba 00 d0 bf ee       	mov    $0xeebfd000,%edx
f0103cb7:	89 f8                	mov    %edi,%eax
f0103cb9:	e8 99 fb ff ff       	call   f0103857 <region_alloc>
	struct Env *new_env = NULL;
	if (env_alloc(&new_env, 0)) {
		panic("cannot alloc env");
	}
	load_icode(new_env, binary, size);
	new_env->env_type = type;
f0103cbe:	8b 45 e4             	mov    -0x1c(%ebp),%eax
f0103cc1:	8b 55 10             	mov    0x10(%ebp),%edx
f0103cc4:	89 50 50             	mov    %edx,0x50(%eax)
}
f0103cc7:	83 c4 3c             	add    $0x3c,%esp
f0103cca:	5b                   	pop    %ebx
f0103ccb:	5e                   	pop    %esi
f0103ccc:	5f                   	pop    %edi
f0103ccd:	5d                   	pop    %ebp
f0103cce:	c3                   	ret    

f0103ccf <env_free>:
//
// Frees env e and all memory it uses.
//
void
env_free(struct Env *e)
{
f0103ccf:	55                   	push   %ebp
f0103cd0:	89 e5                	mov    %esp,%ebp
f0103cd2:	57                   	push   %edi
f0103cd3:	56                   	push   %esi
f0103cd4:	53                   	push   %ebx
f0103cd5:	83 ec 2c             	sub    $0x2c,%esp
f0103cd8:	8b 7d 08             	mov    0x8(%ebp),%edi
	physaddr_t pa;

	// If freeing the current environment, switch to kern_pgdir
	// before freeing the page directory, just in case the page
	// gets reused.
	if (e == curenv)
f0103cdb:	e8 c3 28 00 00       	call   f01065a3 <cpunum>
f0103ce0:	6b c0 74             	imul   $0x74,%eax,%eax
f0103ce3:	39 b8 28 40 20 f0    	cmp    %edi,-0xfdfbfd8(%eax)
f0103ce9:	74 09                	je     f0103cf4 <env_free+0x25>
//
// Frees env e and all memory it uses.
//
void
env_free(struct Env *e)
{
f0103ceb:	c7 45 e0 00 00 00 00 	movl   $0x0,-0x20(%ebp)
f0103cf2:	eb 36                	jmp    f0103d2a <env_free+0x5b>

	// If freeing the current environment, switch to kern_pgdir
	// before freeing the page directory, just in case the page
	// gets reused.
	if (e == curenv)
		lcr3(PADDR(kern_pgdir));
f0103cf4:	a1 8c 3e 20 f0       	mov    0xf0203e8c,%eax
#define PADDR(kva) _paddr(__FILE__, __LINE__, kva)

static inline physaddr_t
_paddr(const char *file, int line, void *kva)
{
	if ((uint32_t)kva < KERNBASE)
f0103cf9:	3d ff ff ff ef       	cmp    $0xefffffff,%eax
f0103cfe:	77 20                	ja     f0103d20 <env_free+0x51>
		_panic(file, line, "PADDR called with invalid kva %08lx", kva);
f0103d00:	89 44 24 0c          	mov    %eax,0xc(%esp)
f0103d04:	c7 44 24 08 08 6d 10 	movl   $0xf0106d08,0x8(%esp)
f0103d0b:	f0 
f0103d0c:	c7 44 24 04 b5 01 00 	movl   $0x1b5,0x4(%esp)
f0103d13:	00 
f0103d14:	c7 04 24 4f 7f 10 f0 	movl   $0xf0107f4f,(%esp)
f0103d1b:	e8 20 c3 ff ff       	call   f0100040 <_panic>
	return (physaddr_t)kva - KERNBASE;
f0103d20:	05 00 00 00 10       	add    $0x10000000,%eax
f0103d25:	0f 22 d8             	mov    %eax,%cr3
f0103d28:	eb c1                	jmp    f0103ceb <env_free+0x1c>
f0103d2a:	8b 4d e0             	mov    -0x20(%ebp),%ecx
f0103d2d:	89 c8                	mov    %ecx,%eax
f0103d2f:	c1 e0 02             	shl    $0x2,%eax
f0103d32:	89 45 dc             	mov    %eax,-0x24(%ebp)
	// Flush all mapped pages in the user portion of the address space
	static_assert(UTOP % PTSIZE == 0);
	for (pdeno = 0; pdeno < PDX(UTOP); pdeno++) {

		// only look at mapped page tables
		if (!(e->env_pgdir[pdeno] & PTE_P))
f0103d35:	8b 47 60             	mov    0x60(%edi),%eax
f0103d38:	8b 34 88             	mov    (%eax,%ecx,4),%esi
f0103d3b:	f7 c6 01 00 00 00    	test   $0x1,%esi
f0103d41:	0f 84 b7 00 00 00    	je     f0103dfe <env_free+0x12f>
			continue;

		// find the pa and va of the page table
		pa = PTE_ADDR(e->env_pgdir[pdeno]);
f0103d47:	81 e6 00 f0 ff ff    	and    $0xfffff000,%esi
#define KADDR(pa) _kaddr(__FILE__, __LINE__, pa)

static inline void*
_kaddr(const char *file, int line, physaddr_t pa)
{
	if (PGNUM(pa) >= npages)
f0103d4d:	89 f0                	mov    %esi,%eax
f0103d4f:	c1 e8 0c             	shr    $0xc,%eax
f0103d52:	89 45 d8             	mov    %eax,-0x28(%ebp)
f0103d55:	3b 05 88 3e 20 f0    	cmp    0xf0203e88,%eax
f0103d5b:	72 20                	jb     f0103d7d <env_free+0xae>
		_panic(file, line, "KADDR called with invalid pa %08lx", pa);
f0103d5d:	89 74 24 0c          	mov    %esi,0xc(%esp)
f0103d61:	c7 44 24 08 e4 6c 10 	movl   $0xf0106ce4,0x8(%esp)
f0103d68:	f0 
f0103d69:	c7 44 24 04 c4 01 00 	movl   $0x1c4,0x4(%esp)
f0103d70:	00 
f0103d71:	c7 04 24 4f 7f 10 f0 	movl   $0xf0107f4f,(%esp)
f0103d78:	e8 c3 c2 ff ff       	call   f0100040 <_panic>
		pt = (pte_t*) KADDR(pa);

		// unmap all PTEs in this page table
		for (pteno = 0; pteno <= PTX(~0); pteno++) {
			if (pt[pteno] & PTE_P)
				page_remove(e->env_pgdir, PGADDR(pdeno, pteno, 0));
f0103d7d:	8b 45 e0             	mov    -0x20(%ebp),%eax
f0103d80:	c1 e0 16             	shl    $0x16,%eax
f0103d83:	89 45 e4             	mov    %eax,-0x1c(%ebp)
		// find the pa and va of the page table
		pa = PTE_ADDR(e->env_pgdir[pdeno]);
		pt = (pte_t*) KADDR(pa);

		// unmap all PTEs in this page table
		for (pteno = 0; pteno <= PTX(~0); pteno++) {
f0103d86:	bb 00 00 00 00       	mov    $0x0,%ebx
			if (pt[pteno] & PTE_P)
f0103d8b:	f6 84 9e 00 00 00 f0 	testb  $0x1,-0x10000000(%esi,%ebx,4)
f0103d92:	01 
f0103d93:	74 17                	je     f0103dac <env_free+0xdd>
				page_remove(e->env_pgdir, PGADDR(pdeno, pteno, 0));
f0103d95:	89 d8                	mov    %ebx,%eax
f0103d97:	c1 e0 0c             	shl    $0xc,%eax
f0103d9a:	0b 45 e4             	or     -0x1c(%ebp),%eax
f0103d9d:	89 44 24 04          	mov    %eax,0x4(%esp)
f0103da1:	8b 47 60             	mov    0x60(%edi),%eax
f0103da4:	89 04 24             	mov    %eax,(%esp)
f0103da7:	e8 99 d7 ff ff       	call   f0101545 <page_remove>
		// find the pa and va of the page table
		pa = PTE_ADDR(e->env_pgdir[pdeno]);
		pt = (pte_t*) KADDR(pa);

		// unmap all PTEs in this page table
		for (pteno = 0; pteno <= PTX(~0); pteno++) {
f0103dac:	83 c3 01             	add    $0x1,%ebx
f0103daf:	81 fb 00 04 00 00    	cmp    $0x400,%ebx
f0103db5:	75 d4                	jne    f0103d8b <env_free+0xbc>
			if (pt[pteno] & PTE_P)
				page_remove(e->env_pgdir, PGADDR(pdeno, pteno, 0));
		}

		// free the page table itself
		e->env_pgdir[pdeno] = 0;
f0103db7:	8b 47 60             	mov    0x60(%edi),%eax
f0103dba:	8b 55 dc             	mov    -0x24(%ebp),%edx
f0103dbd:	c7 04 10 00 00 00 00 	movl   $0x0,(%eax,%edx,1)
}

static inline struct PageInfo*
pa2page(physaddr_t pa)
{
	if (PGNUM(pa) >= npages)
f0103dc4:	8b 45 d8             	mov    -0x28(%ebp),%eax
f0103dc7:	3b 05 88 3e 20 f0    	cmp    0xf0203e88,%eax
f0103dcd:	72 1c                	jb     f0103deb <env_free+0x11c>
		panic("pa2page called with invalid pa");
f0103dcf:	c7 44 24 08 30 7f 10 	movl   $0xf0107f30,0x8(%esp)
f0103dd6:	f0 
f0103dd7:	c7 44 24 04 51 00 00 	movl   $0x51,0x4(%esp)
f0103dde:	00 
f0103ddf:	c7 04 24 b9 7b 10 f0 	movl   $0xf0107bb9,(%esp)
f0103de6:	e8 55 c2 ff ff       	call   f0100040 <_panic>
	return &pages[PGNUM(pa)];
f0103deb:	a1 90 3e 20 f0       	mov    0xf0203e90,%eax
f0103df0:	8b 55 d8             	mov    -0x28(%ebp),%edx
f0103df3:	8d 04 d0             	lea    (%eax,%edx,8),%eax
		page_decref(pa2page(pa));
f0103df6:	89 04 24             	mov    %eax,(%esp)
f0103df9:	e8 d5 d4 ff ff       	call   f01012d3 <page_decref>
	// Note the environment's demise.
	// cprintf("[%08x] free env %08x\n", curenv ? curenv->env_id : 0, e->env_id);

	// Flush all mapped pages in the user portion of the address space
	static_assert(UTOP % PTSIZE == 0);
	for (pdeno = 0; pdeno < PDX(UTOP); pdeno++) {
f0103dfe:	83 45 e0 01          	addl   $0x1,-0x20(%ebp)
f0103e02:	81 7d e0 bb 03 00 00 	cmpl   $0x3bb,-0x20(%ebp)
f0103e09:	0f 85 1b ff ff ff    	jne    f0103d2a <env_free+0x5b>
		e->env_pgdir[pdeno] = 0;
		page_decref(pa2page(pa));
	}

	// free the page directory
	pa = PADDR(e->env_pgdir);
f0103e0f:	8b 47 60             	mov    0x60(%edi),%eax
#define PADDR(kva) _paddr(__FILE__, __LINE__, kva)

static inline physaddr_t
_paddr(const char *file, int line, void *kva)
{
	if ((uint32_t)kva < KERNBASE)
f0103e12:	3d ff ff ff ef       	cmp    $0xefffffff,%eax
f0103e17:	77 20                	ja     f0103e39 <env_free+0x16a>
		_panic(file, line, "PADDR called with invalid kva %08lx", kva);
f0103e19:	89 44 24 0c          	mov    %eax,0xc(%esp)
f0103e1d:	c7 44 24 08 08 6d 10 	movl   $0xf0106d08,0x8(%esp)
f0103e24:	f0 
f0103e25:	c7 44 24 04 d2 01 00 	movl   $0x1d2,0x4(%esp)
f0103e2c:	00 
f0103e2d:	c7 04 24 4f 7f 10 f0 	movl   $0xf0107f4f,(%esp)
f0103e34:	e8 07 c2 ff ff       	call   f0100040 <_panic>
	e->env_pgdir = 0;
f0103e39:	c7 47 60 00 00 00 00 	movl   $0x0,0x60(%edi)
	return (physaddr_t)kva - KERNBASE;
f0103e40:	05 00 00 00 10       	add    $0x10000000,%eax
}

static inline struct PageInfo*
pa2page(physaddr_t pa)
{
	if (PGNUM(pa) >= npages)
f0103e45:	c1 e8 0c             	shr    $0xc,%eax
f0103e48:	3b 05 88 3e 20 f0    	cmp    0xf0203e88,%eax
f0103e4e:	72 1c                	jb     f0103e6c <env_free+0x19d>
		panic("pa2page called with invalid pa");
f0103e50:	c7 44 24 08 30 7f 10 	movl   $0xf0107f30,0x8(%esp)
f0103e57:	f0 
f0103e58:	c7 44 24 04 51 00 00 	movl   $0x51,0x4(%esp)
f0103e5f:	00 
f0103e60:	c7 04 24 b9 7b 10 f0 	movl   $0xf0107bb9,(%esp)
f0103e67:	e8 d4 c1 ff ff       	call   f0100040 <_panic>
	return &pages[PGNUM(pa)];
f0103e6c:	8b 15 90 3e 20 f0    	mov    0xf0203e90,%edx
f0103e72:	8d 04 c2             	lea    (%edx,%eax,8),%eax
	page_decref(pa2page(pa));
f0103e75:	89 04 24             	mov    %eax,(%esp)
f0103e78:	e8 56 d4 ff ff       	call   f01012d3 <page_decref>

	// return the environment to the free list
	e->env_status = ENV_FREE;
f0103e7d:	c7 47 54 00 00 00 00 	movl   $0x0,0x54(%edi)
	e->env_link = env_free_list;
f0103e84:	a1 50 32 20 f0       	mov    0xf0203250,%eax
f0103e89:	89 47 44             	mov    %eax,0x44(%edi)
	env_free_list = e;
f0103e8c:	89 3d 50 32 20 f0    	mov    %edi,0xf0203250
}
f0103e92:	83 c4 2c             	add    $0x2c,%esp
f0103e95:	5b                   	pop    %ebx
f0103e96:	5e                   	pop    %esi
f0103e97:	5f                   	pop    %edi
f0103e98:	5d                   	pop    %ebp
f0103e99:	c3                   	ret    

f0103e9a <env_destroy>:
// If e was the current env, then runs a new environment (and does not return
// to the caller).
//
void
env_destroy(struct Env *e)
{
f0103e9a:	55                   	push   %ebp
f0103e9b:	89 e5                	mov    %esp,%ebp
f0103e9d:	53                   	push   %ebx
f0103e9e:	83 ec 14             	sub    $0x14,%esp
f0103ea1:	8b 5d 08             	mov    0x8(%ebp),%ebx
	// If e is currently running on other CPUs, we change its state to
	// ENV_DYING. A zombie environment will be freed the next time
	// it traps to the kernel.
	if (e->env_status == ENV_RUNNING && curenv != e) {
f0103ea4:	83 7b 54 03          	cmpl   $0x3,0x54(%ebx)
f0103ea8:	75 19                	jne    f0103ec3 <env_destroy+0x29>
f0103eaa:	e8 f4 26 00 00       	call   f01065a3 <cpunum>
f0103eaf:	6b c0 74             	imul   $0x74,%eax,%eax
f0103eb2:	39 98 28 40 20 f0    	cmp    %ebx,-0xfdfbfd8(%eax)
f0103eb8:	74 09                	je     f0103ec3 <env_destroy+0x29>
		e->env_status = ENV_DYING;
f0103eba:	c7 43 54 01 00 00 00 	movl   $0x1,0x54(%ebx)
		return;
f0103ec1:	eb 2f                	jmp    f0103ef2 <env_destroy+0x58>
	}

	env_free(e);
f0103ec3:	89 1c 24             	mov    %ebx,(%esp)
f0103ec6:	e8 04 fe ff ff       	call   f0103ccf <env_free>

	if (curenv == e) {
f0103ecb:	e8 d3 26 00 00       	call   f01065a3 <cpunum>
f0103ed0:	6b c0 74             	imul   $0x74,%eax,%eax
f0103ed3:	39 98 28 40 20 f0    	cmp    %ebx,-0xfdfbfd8(%eax)
f0103ed9:	75 17                	jne    f0103ef2 <env_destroy+0x58>
		curenv = NULL;
f0103edb:	e8 c3 26 00 00       	call   f01065a3 <cpunum>
f0103ee0:	6b c0 74             	imul   $0x74,%eax,%eax
f0103ee3:	c7 80 28 40 20 f0 00 	movl   $0x0,-0xfdfbfd8(%eax)
f0103eea:	00 00 00 
		sched_yield();
f0103eed:	e8 f5 0b 00 00       	call   f0104ae7 <sched_yield>
	}
}
f0103ef2:	83 c4 14             	add    $0x14,%esp
f0103ef5:	5b                   	pop    %ebx
f0103ef6:	5d                   	pop    %ebp
f0103ef7:	c3                   	ret    

f0103ef8 <env_pop_tf>:
//
// This function does not return.
//
void
env_pop_tf(struct Trapframe *tf)
{
f0103ef8:	55                   	push   %ebp
f0103ef9:	89 e5                	mov    %esp,%ebp
f0103efb:	53                   	push   %ebx
f0103efc:	83 ec 14             	sub    $0x14,%esp
	// Record the CPU we are running on for user-space debugging
	curenv->env_cpunum = cpunum();
f0103eff:	e8 9f 26 00 00       	call   f01065a3 <cpunum>
f0103f04:	6b c0 74             	imul   $0x74,%eax,%eax
f0103f07:	8b 98 28 40 20 f0    	mov    -0xfdfbfd8(%eax),%ebx
f0103f0d:	e8 91 26 00 00       	call   f01065a3 <cpunum>
f0103f12:	89 43 5c             	mov    %eax,0x5c(%ebx)
	__asm __volatile("movl %0,%%esp\n"
f0103f15:	8b 65 08             	mov    0x8(%ebp),%esp
f0103f18:	61                   	popa   
f0103f19:	07                   	pop    %es
f0103f1a:	1f                   	pop    %ds
f0103f1b:	83 c4 08             	add    $0x8,%esp
f0103f1e:	cf                   	iret   
		"\tpopl %%es\n"
		"\tpopl %%ds\n"
		"\taddl $0x8,%%esp\n" /* skip tf_trapno and tf_errcode */
		"\tiret"
		: : "g" (tf) : "memory");
	panic("iret failed");  /* mostly to placate the compiler */
f0103f1f:	c7 44 24 08 6b 7f 10 	movl   $0xf0107f6b,0x8(%esp)
f0103f26:	f0 
f0103f27:	c7 44 24 04 07 02 00 	movl   $0x207,0x4(%esp)
f0103f2e:	00 
f0103f2f:	c7 04 24 4f 7f 10 f0 	movl   $0xf0107f4f,(%esp)
f0103f36:	e8 05 c1 ff ff       	call   f0100040 <_panic>

f0103f3b <env_run>:
//
// This function does not return.
//
void
env_run(struct Env *e)
{
f0103f3b:	55                   	push   %ebp
f0103f3c:	89 e5                	mov    %esp,%ebp
f0103f3e:	53                   	push   %ebx
f0103f3f:	83 ec 14             	sub    $0x14,%esp
f0103f42:	8b 5d 08             	mov    0x8(%ebp),%ebx
	//	e->env_tf.  Go back through the code you wrote above
	//	and make sure you have set the relevant parts of
	//	e->env_tf to sensible values.

	// LAB 3: Your code here.
	if (curenv && curenv->env_status == ENV_RUNNING) {
f0103f45:	e8 59 26 00 00       	call   f01065a3 <cpunum>
f0103f4a:	6b c0 74             	imul   $0x74,%eax,%eax
f0103f4d:	83 b8 28 40 20 f0 00 	cmpl   $0x0,-0xfdfbfd8(%eax)
f0103f54:	74 29                	je     f0103f7f <env_run+0x44>
f0103f56:	e8 48 26 00 00       	call   f01065a3 <cpunum>
f0103f5b:	6b c0 74             	imul   $0x74,%eax,%eax
f0103f5e:	8b 80 28 40 20 f0    	mov    -0xfdfbfd8(%eax),%eax
f0103f64:	83 78 54 03          	cmpl   $0x3,0x54(%eax)
f0103f68:	75 15                	jne    f0103f7f <env_run+0x44>
		curenv->env_status = ENV_RUNNABLE;
f0103f6a:	e8 34 26 00 00       	call   f01065a3 <cpunum>
f0103f6f:	6b c0 74             	imul   $0x74,%eax,%eax
f0103f72:	8b 80 28 40 20 f0    	mov    -0xfdfbfd8(%eax),%eax
f0103f78:	c7 40 54 02 00 00 00 	movl   $0x2,0x54(%eax)
	}
	curenv = e;
f0103f7f:	e8 1f 26 00 00       	call   f01065a3 <cpunum>
f0103f84:	6b c0 74             	imul   $0x74,%eax,%eax
f0103f87:	89 98 28 40 20 f0    	mov    %ebx,-0xfdfbfd8(%eax)
	curenv->env_status = ENV_RUNNING;
f0103f8d:	e8 11 26 00 00       	call   f01065a3 <cpunum>
f0103f92:	6b c0 74             	imul   $0x74,%eax,%eax
f0103f95:	8b 80 28 40 20 f0    	mov    -0xfdfbfd8(%eax),%eax
f0103f9b:	c7 40 54 03 00 00 00 	movl   $0x3,0x54(%eax)
	++curenv->env_runs;
f0103fa2:	e8 fc 25 00 00       	call   f01065a3 <cpunum>
f0103fa7:	6b c0 74             	imul   $0x74,%eax,%eax
f0103faa:	8b 80 28 40 20 f0    	mov    -0xfdfbfd8(%eax),%eax
f0103fb0:	83 40 58 01          	addl   $0x1,0x58(%eax)
	lcr3(PADDR(e->env_pgdir));
f0103fb4:	8b 43 60             	mov    0x60(%ebx),%eax
#define PADDR(kva) _paddr(__FILE__, __LINE__, kva)

static inline physaddr_t
_paddr(const char *file, int line, void *kva)
{
	if ((uint32_t)kva < KERNBASE)
f0103fb7:	3d ff ff ff ef       	cmp    $0xefffffff,%eax
f0103fbc:	77 20                	ja     f0103fde <env_run+0xa3>
		_panic(file, line, "PADDR called with invalid kva %08lx", kva);
f0103fbe:	89 44 24 0c          	mov    %eax,0xc(%esp)
f0103fc2:	c7 44 24 08 08 6d 10 	movl   $0xf0106d08,0x8(%esp)
f0103fc9:	f0 
f0103fca:	c7 44 24 04 2b 02 00 	movl   $0x22b,0x4(%esp)
f0103fd1:	00 
f0103fd2:	c7 04 24 4f 7f 10 f0 	movl   $0xf0107f4f,(%esp)
f0103fd9:	e8 62 c0 ff ff       	call   f0100040 <_panic>
	return (physaddr_t)kva - KERNBASE;
f0103fde:	05 00 00 00 10       	add    $0x10000000,%eax
f0103fe3:	0f 22 d8             	mov    %eax,%cr3
}

static inline void
unlock_kernel(void)
{
	spin_unlock(&kernel_lock);
f0103fe6:	c7 04 24 80 14 12 f0 	movl   $0xf0121480,(%esp)
f0103fed:	e8 05 29 00 00       	call   f01068f7 <spin_unlock>

	// Normally we wouldn't need to do this, but QEMU only runs
	// one CPU at a time and has a long time-slice.  Without the
	// pause, this CPU is likely to reacquire the lock before
	// another CPU has even been given a chance to acquire it.
	asm volatile("pause");
f0103ff2:	f3 90                	pause  
	unlock_kernel();
	env_pop_tf(&e->env_tf);
f0103ff4:	89 1c 24             	mov    %ebx,(%esp)
f0103ff7:	e8 fc fe ff ff       	call   f0103ef8 <env_pop_tf>

f0103ffc <mc146818_read>:
#include <kern/kclock.h>


unsigned
mc146818_read(unsigned reg)
{
f0103ffc:	55                   	push   %ebp
f0103ffd:	89 e5                	mov    %esp,%ebp
f0103fff:	0f b6 45 08          	movzbl 0x8(%ebp),%eax
}

static __inline void
outb(int port, uint8_t data)
{
	__asm __volatile("outb %0,%w1" : : "a" (data), "d" (port));
f0104003:	ba 70 00 00 00       	mov    $0x70,%edx
f0104008:	ee                   	out    %al,(%dx)

static __inline uint8_t
inb(int port)
{
	uint8_t data;
	__asm __volatile("inb %w1,%0" : "=a" (data) : "d" (port));
f0104009:	b2 71                	mov    $0x71,%dl
f010400b:	ec                   	in     (%dx),%al
	outb(IO_RTC, reg);
	return inb(IO_RTC+1);
f010400c:	0f b6 c0             	movzbl %al,%eax
}
f010400f:	5d                   	pop    %ebp
f0104010:	c3                   	ret    

f0104011 <mc146818_write>:

void
mc146818_write(unsigned reg, unsigned datum)
{
f0104011:	55                   	push   %ebp
f0104012:	89 e5                	mov    %esp,%ebp
f0104014:	0f b6 45 08          	movzbl 0x8(%ebp),%eax
}

static __inline void
outb(int port, uint8_t data)
{
	__asm __volatile("outb %0,%w1" : : "a" (data), "d" (port));
f0104018:	ba 70 00 00 00       	mov    $0x70,%edx
f010401d:	ee                   	out    %al,(%dx)
f010401e:	b2 71                	mov    $0x71,%dl
f0104020:	8b 45 0c             	mov    0xc(%ebp),%eax
f0104023:	ee                   	out    %al,(%dx)
	outb(IO_RTC, reg);
	outb(IO_RTC+1, datum);
}
f0104024:	5d                   	pop    %ebp
f0104025:	c3                   	ret    

f0104026 <irq_setmask_8259A>:
		irq_setmask_8259A(irq_mask_8259A);
}

void
irq_setmask_8259A(uint16_t mask)
{
f0104026:	55                   	push   %ebp
f0104027:	89 e5                	mov    %esp,%ebp
f0104029:	56                   	push   %esi
f010402a:	53                   	push   %ebx
f010402b:	83 ec 10             	sub    $0x10,%esp
f010402e:	8b 45 08             	mov    0x8(%ebp),%eax
	int i;
	irq_mask_8259A = mask;
f0104031:	66 a3 a8 13 12 f0    	mov    %ax,0xf01213a8
	if (!didinit)
f0104037:	80 3d 54 32 20 f0 00 	cmpb   $0x0,0xf0203254
f010403e:	74 4e                	je     f010408e <irq_setmask_8259A+0x68>
f0104040:	89 c6                	mov    %eax,%esi
f0104042:	ba 21 00 00 00       	mov    $0x21,%edx
f0104047:	ee                   	out    %al,(%dx)
		return;
	outb(IO_PIC1+1, (char)mask);
	outb(IO_PIC2+1, (char)(mask >> 8));
f0104048:	66 c1 e8 08          	shr    $0x8,%ax
f010404c:	b2 a1                	mov    $0xa1,%dl
f010404e:	ee                   	out    %al,(%dx)
	cprintf("enabled interrupts:");
f010404f:	c7 04 24 77 7f 10 f0 	movl   $0xf0107f77,(%esp)
f0104056:	e8 0a 01 00 00       	call   f0104165 <cprintf>
	for (i = 0; i < 16; i++)
f010405b:	bb 00 00 00 00       	mov    $0x0,%ebx
		if (~mask & (1<<i))
f0104060:	0f b7 f6             	movzwl %si,%esi
f0104063:	f7 d6                	not    %esi
f0104065:	0f a3 de             	bt     %ebx,%esi
f0104068:	73 10                	jae    f010407a <irq_setmask_8259A+0x54>
			cprintf(" %d", i);
f010406a:	89 5c 24 04          	mov    %ebx,0x4(%esp)
f010406e:	c7 04 24 d7 84 10 f0 	movl   $0xf01084d7,(%esp)
f0104075:	e8 eb 00 00 00       	call   f0104165 <cprintf>
	if (!didinit)
		return;
	outb(IO_PIC1+1, (char)mask);
	outb(IO_PIC2+1, (char)(mask >> 8));
	cprintf("enabled interrupts:");
	for (i = 0; i < 16; i++)
f010407a:	83 c3 01             	add    $0x1,%ebx
f010407d:	83 fb 10             	cmp    $0x10,%ebx
f0104080:	75 e3                	jne    f0104065 <irq_setmask_8259A+0x3f>
		if (~mask & (1<<i))
			cprintf(" %d", i);
	cprintf("\n");
f0104082:	c7 04 24 d9 7e 10 f0 	movl   $0xf0107ed9,(%esp)
f0104089:	e8 d7 00 00 00       	call   f0104165 <cprintf>
}
f010408e:	83 c4 10             	add    $0x10,%esp
f0104091:	5b                   	pop    %ebx
f0104092:	5e                   	pop    %esi
f0104093:	5d                   	pop    %ebp
f0104094:	c3                   	ret    

f0104095 <pic_init>:

/* Initialize the 8259A interrupt controllers. */
void
pic_init(void)
{
	didinit = 1;
f0104095:	c6 05 54 32 20 f0 01 	movb   $0x1,0xf0203254
f010409c:	ba 21 00 00 00       	mov    $0x21,%edx
f01040a1:	b8 ff ff ff ff       	mov    $0xffffffff,%eax
f01040a6:	ee                   	out    %al,(%dx)
f01040a7:	b2 a1                	mov    $0xa1,%dl
f01040a9:	ee                   	out    %al,(%dx)
f01040aa:	b2 20                	mov    $0x20,%dl
f01040ac:	b8 11 00 00 00       	mov    $0x11,%eax
f01040b1:	ee                   	out    %al,(%dx)
f01040b2:	b2 21                	mov    $0x21,%dl
f01040b4:	b8 20 00 00 00       	mov    $0x20,%eax
f01040b9:	ee                   	out    %al,(%dx)
f01040ba:	b8 04 00 00 00       	mov    $0x4,%eax
f01040bf:	ee                   	out    %al,(%dx)
f01040c0:	b8 03 00 00 00       	mov    $0x3,%eax
f01040c5:	ee                   	out    %al,(%dx)
f01040c6:	b2 a0                	mov    $0xa0,%dl
f01040c8:	b8 11 00 00 00       	mov    $0x11,%eax
f01040cd:	ee                   	out    %al,(%dx)
f01040ce:	b2 a1                	mov    $0xa1,%dl
f01040d0:	b8 28 00 00 00       	mov    $0x28,%eax
f01040d5:	ee                   	out    %al,(%dx)
f01040d6:	b8 02 00 00 00       	mov    $0x2,%eax
f01040db:	ee                   	out    %al,(%dx)
f01040dc:	b8 01 00 00 00       	mov    $0x1,%eax
f01040e1:	ee                   	out    %al,(%dx)
f01040e2:	b2 20                	mov    $0x20,%dl
f01040e4:	b8 68 00 00 00       	mov    $0x68,%eax
f01040e9:	ee                   	out    %al,(%dx)
f01040ea:	b8 0a 00 00 00       	mov    $0xa,%eax
f01040ef:	ee                   	out    %al,(%dx)
f01040f0:	b2 a0                	mov    $0xa0,%dl
f01040f2:	b8 68 00 00 00       	mov    $0x68,%eax
f01040f7:	ee                   	out    %al,(%dx)
f01040f8:	b8 0a 00 00 00       	mov    $0xa,%eax
f01040fd:	ee                   	out    %al,(%dx)
	outb(IO_PIC1, 0x0a);             /* read IRR by default */

	outb(IO_PIC2, 0x68);               /* OCW3 */
	outb(IO_PIC2, 0x0a);               /* OCW3 */

	if (irq_mask_8259A != 0xFFFF)
f01040fe:	0f b7 05 a8 13 12 f0 	movzwl 0xf01213a8,%eax
f0104105:	66 83 f8 ff          	cmp    $0xffff,%ax
f0104109:	74 12                	je     f010411d <pic_init+0x88>
static bool didinit;

/* Initialize the 8259A interrupt controllers. */
void
pic_init(void)
{
f010410b:	55                   	push   %ebp
f010410c:	89 e5                	mov    %esp,%ebp
f010410e:	83 ec 18             	sub    $0x18,%esp

	outb(IO_PIC2, 0x68);               /* OCW3 */
	outb(IO_PIC2, 0x0a);               /* OCW3 */

	if (irq_mask_8259A != 0xFFFF)
		irq_setmask_8259A(irq_mask_8259A);
f0104111:	0f b7 c0             	movzwl %ax,%eax
f0104114:	89 04 24             	mov    %eax,(%esp)
f0104117:	e8 0a ff ff ff       	call   f0104026 <irq_setmask_8259A>
}
f010411c:	c9                   	leave  
f010411d:	f3 c3                	repz ret 

f010411f <putch>:
#include <inc/stdarg.h>


static void
putch(int ch, int *cnt)
{
f010411f:	55                   	push   %ebp
f0104120:	89 e5                	mov    %esp,%ebp
f0104122:	83 ec 18             	sub    $0x18,%esp
	cputchar(ch);
f0104125:	8b 45 08             	mov    0x8(%ebp),%eax
f0104128:	89 04 24             	mov    %eax,(%esp)
f010412b:	e8 bb c6 ff ff       	call   f01007eb <cputchar>
	*cnt++;
}
f0104130:	c9                   	leave  
f0104131:	c3                   	ret    

f0104132 <vcprintf>:

int
vcprintf(const char *fmt, va_list ap)
{
f0104132:	55                   	push   %ebp
f0104133:	89 e5                	mov    %esp,%ebp
f0104135:	83 ec 28             	sub    $0x28,%esp
	int cnt = 0;
f0104138:	c7 45 f4 00 00 00 00 	movl   $0x0,-0xc(%ebp)

	vprintfmt((void*)putch, &cnt, fmt, ap);
f010413f:	8b 45 0c             	mov    0xc(%ebp),%eax
f0104142:	89 44 24 0c          	mov    %eax,0xc(%esp)
f0104146:	8b 45 08             	mov    0x8(%ebp),%eax
f0104149:	89 44 24 08          	mov    %eax,0x8(%esp)
f010414d:	8d 45 f4             	lea    -0xc(%ebp),%eax
f0104150:	89 44 24 04          	mov    %eax,0x4(%esp)
f0104154:	c7 04 24 1f 41 10 f0 	movl   $0xf010411f,(%esp)
f010415b:	e8 54 16 00 00       	call   f01057b4 <vprintfmt>
	return cnt;
}
f0104160:	8b 45 f4             	mov    -0xc(%ebp),%eax
f0104163:	c9                   	leave  
f0104164:	c3                   	ret    

f0104165 <cprintf>:

int
cprintf(const char *fmt, ...)
{
f0104165:	55                   	push   %ebp
f0104166:	89 e5                	mov    %esp,%ebp
f0104168:	83 ec 18             	sub    $0x18,%esp
	va_list ap;
	int cnt;

	va_start(ap, fmt);
f010416b:	8d 45 0c             	lea    0xc(%ebp),%eax
	cnt = vcprintf(fmt, ap);
f010416e:	89 44 24 04          	mov    %eax,0x4(%esp)
f0104172:	8b 45 08             	mov    0x8(%ebp),%eax
f0104175:	89 04 24             	mov    %eax,(%esp)
f0104178:	e8 b5 ff ff ff       	call   f0104132 <vcprintf>
	va_end(ap);

	return cnt;
}
f010417d:	c9                   	leave  
f010417e:	c3                   	ret    
f010417f:	90                   	nop

f0104180 <trap_init_percpu>:
}

// Initialize and load the per-CPU TSS and IDT
void
trap_init_percpu(void)
{
f0104180:	55                   	push   %ebp
f0104181:	89 e5                	mov    %esp,%ebp
f0104183:	57                   	push   %edi
f0104184:	56                   	push   %esi
f0104185:	53                   	push   %ebx
f0104186:	83 ec 0c             	sub    $0xc,%esp
	// get a triple fault.  If you set up an individual CPU's TSS
	// wrong, you may not get a fault until you try to return from
	// user space on that CPU.
	//
	// LAB 4: Your code here:
	thiscpu->cpu_ts.ts_esp0 = (uintptr_t)(percpu_kstacks[cpunum()] + KSTKSIZE);
f0104189:	e8 15 24 00 00       	call   f01065a3 <cpunum>
f010418e:	89 c3                	mov    %eax,%ebx
f0104190:	e8 0e 24 00 00       	call   f01065a3 <cpunum>
f0104195:	6b db 74             	imul   $0x74,%ebx,%ebx
f0104198:	c1 e0 0f             	shl    $0xf,%eax
f010419b:	8d 80 00 d0 20 f0    	lea    -0xfdf3000(%eax),%eax
f01041a1:	89 83 30 40 20 f0    	mov    %eax,-0xfdfbfd0(%ebx)
	thiscpu->cpu_ts.ts_ss0 = GD_KD;
f01041a7:	e8 f7 23 00 00       	call   f01065a3 <cpunum>
f01041ac:	6b c0 74             	imul   $0x74,%eax,%eax
f01041af:	66 c7 80 34 40 20 f0 	movw   $0x10,-0xfdfbfcc(%eax)
f01041b6:	10 00 
	gdt[(GD_TSS0 >> 3) + cpunum()] =
f01041b8:	e8 e6 23 00 00       	call   f01065a3 <cpunum>
f01041bd:	8d 58 05             	lea    0x5(%eax),%ebx
		SEG16(STS_T32A, (uint32_t)(&(thiscpu->cpu_ts)), sizeof(struct Taskstate), 0);
f01041c0:	e8 de 23 00 00       	call   f01065a3 <cpunum>
f01041c5:	89 c7                	mov    %eax,%edi
f01041c7:	e8 d7 23 00 00       	call   f01065a3 <cpunum>
f01041cc:	89 c6                	mov    %eax,%esi
f01041ce:	e8 d0 23 00 00       	call   f01065a3 <cpunum>
	// user space on that CPU.
	//
	// LAB 4: Your code here:
	thiscpu->cpu_ts.ts_esp0 = (uintptr_t)(percpu_kstacks[cpunum()] + KSTKSIZE);
	thiscpu->cpu_ts.ts_ss0 = GD_KD;
	gdt[(GD_TSS0 >> 3) + cpunum()] =
f01041d3:	66 c7 04 dd 40 13 12 	movw   $0x68,-0xfedecc0(,%ebx,8)
f01041da:	f0 68 00 
		SEG16(STS_T32A, (uint32_t)(&(thiscpu->cpu_ts)), sizeof(struct Taskstate), 0);
f01041dd:	6b ff 74             	imul   $0x74,%edi,%edi
f01041e0:	81 c7 2c 40 20 f0    	add    $0xf020402c,%edi
	// user space on that CPU.
	//
	// LAB 4: Your code here:
	thiscpu->cpu_ts.ts_esp0 = (uintptr_t)(percpu_kstacks[cpunum()] + KSTKSIZE);
	thiscpu->cpu_ts.ts_ss0 = GD_KD;
	gdt[(GD_TSS0 >> 3) + cpunum()] =
f01041e6:	66 89 3c dd 42 13 12 	mov    %di,-0xfedecbe(,%ebx,8)
f01041ed:	f0 
		SEG16(STS_T32A, (uint32_t)(&(thiscpu->cpu_ts)), sizeof(struct Taskstate), 0);
f01041ee:	6b d6 74             	imul   $0x74,%esi,%edx
f01041f1:	81 c2 2c 40 20 f0    	add    $0xf020402c,%edx
f01041f7:	c1 ea 10             	shr    $0x10,%edx
	// user space on that CPU.
	//
	// LAB 4: Your code here:
	thiscpu->cpu_ts.ts_esp0 = (uintptr_t)(percpu_kstacks[cpunum()] + KSTKSIZE);
	thiscpu->cpu_ts.ts_ss0 = GD_KD;
	gdt[(GD_TSS0 >> 3) + cpunum()] =
f01041fa:	88 14 dd 44 13 12 f0 	mov    %dl,-0xfedecbc(,%ebx,8)
f0104201:	c6 04 dd 45 13 12 f0 	movb   $0x99,-0xfedecbb(,%ebx,8)
f0104208:	99 
f0104209:	c6 04 dd 46 13 12 f0 	movb   $0x40,-0xfedecba(,%ebx,8)
f0104210:	40 
		SEG16(STS_T32A, (uint32_t)(&(thiscpu->cpu_ts)), sizeof(struct Taskstate), 0);
f0104211:	6b c0 74             	imul   $0x74,%eax,%eax
f0104214:	05 2c 40 20 f0       	add    $0xf020402c,%eax
f0104219:	c1 e8 18             	shr    $0x18,%eax
	// user space on that CPU.
	//
	// LAB 4: Your code here:
	thiscpu->cpu_ts.ts_esp0 = (uintptr_t)(percpu_kstacks[cpunum()] + KSTKSIZE);
	thiscpu->cpu_ts.ts_ss0 = GD_KD;
	gdt[(GD_TSS0 >> 3) + cpunum()] =
f010421c:	88 04 dd 47 13 12 f0 	mov    %al,-0xfedecb9(,%ebx,8)
		SEG16(STS_T32A, (uint32_t)(&(thiscpu->cpu_ts)), sizeof(struct Taskstate), 0);
	gdt[(GD_TSS0 >> 3) + cpunum()].sd_s = 0;
f0104223:	e8 7b 23 00 00       	call   f01065a3 <cpunum>
f0104228:	80 24 c5 6d 13 12 f0 	andb   $0xef,-0xfedec93(,%eax,8)
f010422f:	ef 
	ltr( ((GD_TSS0 >> 3) + cpunum()) << 3 );
f0104230:	e8 6e 23 00 00       	call   f01065a3 <cpunum>
f0104235:	8d 04 c5 28 00 00 00 	lea    0x28(,%eax,8),%eax
}

static __inline void
ltr(uint16_t sel)
{
	__asm __volatile("ltr %0" : : "r" (sel));
f010423c:	0f 00 d8             	ltr    %ax
}

static __inline void
lidt(void *p)
{
	__asm __volatile("lidt (%0)" : : "r" (p));
f010423f:	b8 aa 13 12 f0       	mov    $0xf01213aa,%eax
f0104244:	0f 01 18             	lidtl  (%eax)
	// ltr(GD_TSS0);
	lidt(&idt_pd);
}
f0104247:	83 c4 0c             	add    $0xc,%esp
f010424a:	5b                   	pop    %ebx
f010424b:	5e                   	pop    %esi
f010424c:	5f                   	pop    %edi
f010424d:	5d                   	pop    %ebp
f010424e:	c3                   	ret    

f010424f <trap_init>:
{
	extern struct Segdesc gdt[];
	extern long ivector_table[];
	// LAB 3: Your code here.
	int i;
	for (i = 0; i <= T_SIMDERR; ++i) {
f010424f:	b8 00 00 00 00       	mov    $0x0,%eax
		SETGATE(idt[i], 0, GD_KT, ivector_table[i], 0);
f0104254:	8b 14 85 b0 13 12 f0 	mov    -0xfedec50(,%eax,4),%edx
f010425b:	66 89 14 c5 60 32 20 	mov    %dx,-0xfdfcda0(,%eax,8)
f0104262:	f0 
f0104263:	66 c7 04 c5 62 32 20 	movw   $0x8,-0xfdfcd9e(,%eax,8)
f010426a:	f0 08 00 
f010426d:	c6 04 c5 64 32 20 f0 	movb   $0x0,-0xfdfcd9c(,%eax,8)
f0104274:	00 
f0104275:	c6 04 c5 65 32 20 f0 	movb   $0x8e,-0xfdfcd9b(,%eax,8)
f010427c:	8e 
f010427d:	c1 ea 10             	shr    $0x10,%edx
f0104280:	66 89 14 c5 66 32 20 	mov    %dx,-0xfdfcd9a(,%eax,8)
f0104287:	f0 
{
	extern struct Segdesc gdt[];
	extern long ivector_table[];
	// LAB 3: Your code here.
	int i;
	for (i = 0; i <= T_SIMDERR; ++i) {
f0104288:	83 c0 01             	add    $0x1,%eax
f010428b:	83 f8 14             	cmp    $0x14,%eax
f010428e:	75 c4                	jne    f0104254 <trap_init+0x5>

	// T_BRKPT is generated using software int.
	// in other words, user invoke the "int 3",
	// so the processor compare the DPL of the gate with
	// the CPL.
	SETGATE(idt[T_BRKPT], 0, GD_KT, ivector_table[T_BRKPT], 3);
f0104290:	a1 bc 13 12 f0       	mov    0xf01213bc,%eax
f0104295:	66 a3 78 32 20 f0    	mov    %ax,0xf0203278
f010429b:	66 c7 05 7a 32 20 f0 	movw   $0x8,0xf020327a
f01042a2:	08 00 
f01042a4:	c6 05 7c 32 20 f0 00 	movb   $0x0,0xf020327c
f01042ab:	c6 05 7d 32 20 f0 ee 	movb   $0xee,0xf020327d
f01042b2:	c1 e8 10             	shr    $0x10,%eax
f01042b5:	66 a3 7e 32 20 f0    	mov    %ax,0xf020327e

	// Setting system call, the reason setting DPL as 3 is same
	// as above
	SETGATE(idt[T_SYSCALL], 0, GD_KT, ivector_table[T_SYSCALL], 3);
f01042bb:	a1 70 14 12 f0       	mov    0xf0121470,%eax
f01042c0:	66 a3 e0 33 20 f0    	mov    %ax,0xf02033e0
f01042c6:	66 c7 05 e2 33 20 f0 	movw   $0x8,0xf02033e2
f01042cd:	08 00 
f01042cf:	c6 05 e4 33 20 f0 00 	movb   $0x0,0xf02033e4
f01042d6:	c6 05 e5 33 20 f0 ee 	movb   $0xee,0xf02033e5
f01042dd:	c1 e8 10             	shr    $0x10,%eax
f01042e0:	66 a3 e6 33 20 f0    	mov    %ax,0xf02033e6

	for (i = 0; i < sizeof(idt_idx) / sizeof(int); ++i) {
f01042e6:	ba 00 00 00 00       	mov    $0x0,%edx
		int idx = idt_idx[i] + IRQ_OFFSET;
f01042eb:	8b 04 95 90 83 10 f0 	mov    -0xfef7c70(,%edx,4),%eax
f01042f2:	83 c0 20             	add    $0x20,%eax
		SETGATE(idt[idx], 0, GD_KT, ivector_table[idx], 0);
f01042f5:	8b 0c 85 b0 13 12 f0 	mov    -0xfedec50(,%eax,4),%ecx
f01042fc:	66 89 0c c5 60 32 20 	mov    %cx,-0xfdfcda0(,%eax,8)
f0104303:	f0 
f0104304:	66 c7 04 c5 62 32 20 	movw   $0x8,-0xfdfcd9e(,%eax,8)
f010430b:	f0 08 00 
f010430e:	c6 04 c5 64 32 20 f0 	movb   $0x0,-0xfdfcd9c(,%eax,8)
f0104315:	00 
f0104316:	c6 04 c5 65 32 20 f0 	movb   $0x8e,-0xfdfcd9b(,%eax,8)
f010431d:	8e 
f010431e:	c1 e9 10             	shr    $0x10,%ecx
f0104321:	66 89 0c c5 66 32 20 	mov    %cx,-0xfdfcd9a(,%eax,8)
f0104328:	f0 

	// Setting system call, the reason setting DPL as 3 is same
	// as above
	SETGATE(idt[T_SYSCALL], 0, GD_KT, ivector_table[T_SYSCALL], 3);

	for (i = 0; i < sizeof(idt_idx) / sizeof(int); ++i) {
f0104329:	83 c2 01             	add    $0x1,%edx
f010432c:	83 fa 06             	cmp    $0x6,%edx
f010432f:	75 ba                	jne    f01042eb <trap_init+0x9c>
	IRQ_ERROR
};

void
trap_init(void)
{
f0104331:	55                   	push   %ebp
f0104332:	89 e5                	mov    %esp,%ebp
f0104334:	83 ec 08             	sub    $0x8,%esp
		int idx = idt_idx[i] + IRQ_OFFSET;
		SETGATE(idt[idx], 0, GD_KT, ivector_table[idx], 0);
	}

	// Per-CPU setup
	trap_init_percpu();
f0104337:	e8 44 fe ff ff       	call   f0104180 <trap_init_percpu>
}
f010433c:	c9                   	leave  
f010433d:	c3                   	ret    

f010433e <print_regs>:
	}
}

void
print_regs(struct PushRegs *regs)
{
f010433e:	55                   	push   %ebp
f010433f:	89 e5                	mov    %esp,%ebp
f0104341:	53                   	push   %ebx
f0104342:	83 ec 14             	sub    $0x14,%esp
f0104345:	8b 5d 08             	mov    0x8(%ebp),%ebx
	cprintf("  edi  0x%08x\n", regs->reg_edi);
f0104348:	8b 03                	mov    (%ebx),%eax
f010434a:	89 44 24 04          	mov    %eax,0x4(%esp)
f010434e:	c7 04 24 8b 7f 10 f0 	movl   $0xf0107f8b,(%esp)
f0104355:	e8 0b fe ff ff       	call   f0104165 <cprintf>
	cprintf("  esi  0x%08x\n", regs->reg_esi);
f010435a:	8b 43 04             	mov    0x4(%ebx),%eax
f010435d:	89 44 24 04          	mov    %eax,0x4(%esp)
f0104361:	c7 04 24 9a 7f 10 f0 	movl   $0xf0107f9a,(%esp)
f0104368:	e8 f8 fd ff ff       	call   f0104165 <cprintf>
	cprintf("  ebp  0x%08x\n", regs->reg_ebp);
f010436d:	8b 43 08             	mov    0x8(%ebx),%eax
f0104370:	89 44 24 04          	mov    %eax,0x4(%esp)
f0104374:	c7 04 24 a9 7f 10 f0 	movl   $0xf0107fa9,(%esp)
f010437b:	e8 e5 fd ff ff       	call   f0104165 <cprintf>
	cprintf("  oesp 0x%08x\n", regs->reg_oesp);
f0104380:	8b 43 0c             	mov    0xc(%ebx),%eax
f0104383:	89 44 24 04          	mov    %eax,0x4(%esp)
f0104387:	c7 04 24 b8 7f 10 f0 	movl   $0xf0107fb8,(%esp)
f010438e:	e8 d2 fd ff ff       	call   f0104165 <cprintf>
	cprintf("  ebx  0x%08x\n", regs->reg_ebx);
f0104393:	8b 43 10             	mov    0x10(%ebx),%eax
f0104396:	89 44 24 04          	mov    %eax,0x4(%esp)
f010439a:	c7 04 24 c7 7f 10 f0 	movl   $0xf0107fc7,(%esp)
f01043a1:	e8 bf fd ff ff       	call   f0104165 <cprintf>
	cprintf("  edx  0x%08x\n", regs->reg_edx);
f01043a6:	8b 43 14             	mov    0x14(%ebx),%eax
f01043a9:	89 44 24 04          	mov    %eax,0x4(%esp)
f01043ad:	c7 04 24 d6 7f 10 f0 	movl   $0xf0107fd6,(%esp)
f01043b4:	e8 ac fd ff ff       	call   f0104165 <cprintf>
	cprintf("  ecx  0x%08x\n", regs->reg_ecx);
f01043b9:	8b 43 18             	mov    0x18(%ebx),%eax
f01043bc:	89 44 24 04          	mov    %eax,0x4(%esp)
f01043c0:	c7 04 24 e5 7f 10 f0 	movl   $0xf0107fe5,(%esp)
f01043c7:	e8 99 fd ff ff       	call   f0104165 <cprintf>
	cprintf("  eax  0x%08x\n", regs->reg_eax);
f01043cc:	8b 43 1c             	mov    0x1c(%ebx),%eax
f01043cf:	89 44 24 04          	mov    %eax,0x4(%esp)
f01043d3:	c7 04 24 f4 7f 10 f0 	movl   $0xf0107ff4,(%esp)
f01043da:	e8 86 fd ff ff       	call   f0104165 <cprintf>
}
f01043df:	83 c4 14             	add    $0x14,%esp
f01043e2:	5b                   	pop    %ebx
f01043e3:	5d                   	pop    %ebp
f01043e4:	c3                   	ret    

f01043e5 <print_trapframe>:
	lidt(&idt_pd);
}

void
print_trapframe(struct Trapframe *tf)
{
f01043e5:	55                   	push   %ebp
f01043e6:	89 e5                	mov    %esp,%ebp
f01043e8:	56                   	push   %esi
f01043e9:	53                   	push   %ebx
f01043ea:	83 ec 10             	sub    $0x10,%esp
f01043ed:	8b 5d 08             	mov    0x8(%ebp),%ebx
	cprintf("TRAP frame at %p from CPU %d\n", tf, cpunum());
f01043f0:	e8 ae 21 00 00       	call   f01065a3 <cpunum>
f01043f5:	89 44 24 08          	mov    %eax,0x8(%esp)
f01043f9:	89 5c 24 04          	mov    %ebx,0x4(%esp)
f01043fd:	c7 04 24 58 80 10 f0 	movl   $0xf0108058,(%esp)
f0104404:	e8 5c fd ff ff       	call   f0104165 <cprintf>
	print_regs(&tf->tf_regs);
f0104409:	89 1c 24             	mov    %ebx,(%esp)
f010440c:	e8 2d ff ff ff       	call   f010433e <print_regs>
	cprintf("  es   0x----%04x\n", tf->tf_es);
f0104411:	0f b7 43 20          	movzwl 0x20(%ebx),%eax
f0104415:	89 44 24 04          	mov    %eax,0x4(%esp)
f0104419:	c7 04 24 76 80 10 f0 	movl   $0xf0108076,(%esp)
f0104420:	e8 40 fd ff ff       	call   f0104165 <cprintf>
	cprintf("  ds   0x----%04x\n", tf->tf_ds);
f0104425:	0f b7 43 24          	movzwl 0x24(%ebx),%eax
f0104429:	89 44 24 04          	mov    %eax,0x4(%esp)
f010442d:	c7 04 24 89 80 10 f0 	movl   $0xf0108089,(%esp)
f0104434:	e8 2c fd ff ff       	call   f0104165 <cprintf>
	cprintf("  trap 0x%08x %s\n", tf->tf_trapno, trapname(tf->tf_trapno));
f0104439:	8b 43 28             	mov    0x28(%ebx),%eax
		"Alignment Check",
		"Machine-Check",
		"SIMD Floating-Point Exception"
	};

	if (trapno < sizeof(excnames)/sizeof(excnames[0]))
f010443c:	83 f8 13             	cmp    $0x13,%eax
f010443f:	77 09                	ja     f010444a <print_trapframe+0x65>
		return excnames[trapno];
f0104441:	8b 14 85 40 83 10 f0 	mov    -0xfef7cc0(,%eax,4),%edx
f0104448:	eb 1f                	jmp    f0104469 <print_trapframe+0x84>
	if (trapno == T_SYSCALL)
f010444a:	83 f8 30             	cmp    $0x30,%eax
f010444d:	74 15                	je     f0104464 <print_trapframe+0x7f>
		return "System call";
	if (trapno >= IRQ_OFFSET && trapno < IRQ_OFFSET + 16)
f010444f:	8d 50 e0             	lea    -0x20(%eax),%edx
		return "Hardware Interrupt";
f0104452:	83 fa 0f             	cmp    $0xf,%edx
f0104455:	ba 0f 80 10 f0       	mov    $0xf010800f,%edx
f010445a:	b9 22 80 10 f0       	mov    $0xf0108022,%ecx
f010445f:	0f 47 d1             	cmova  %ecx,%edx
f0104462:	eb 05                	jmp    f0104469 <print_trapframe+0x84>
	};

	if (trapno < sizeof(excnames)/sizeof(excnames[0]))
		return excnames[trapno];
	if (trapno == T_SYSCALL)
		return "System call";
f0104464:	ba 03 80 10 f0       	mov    $0xf0108003,%edx
{
	cprintf("TRAP frame at %p from CPU %d\n", tf, cpunum());
	print_regs(&tf->tf_regs);
	cprintf("  es   0x----%04x\n", tf->tf_es);
	cprintf("  ds   0x----%04x\n", tf->tf_ds);
	cprintf("  trap 0x%08x %s\n", tf->tf_trapno, trapname(tf->tf_trapno));
f0104469:	89 54 24 08          	mov    %edx,0x8(%esp)
f010446d:	89 44 24 04          	mov    %eax,0x4(%esp)
f0104471:	c7 04 24 9c 80 10 f0 	movl   $0xf010809c,(%esp)
f0104478:	e8 e8 fc ff ff       	call   f0104165 <cprintf>
	// If this trap was a page fault that just happened
	// (so %cr2 is meaningful), print the faulting linear address.
	if (tf == last_tf && tf->tf_trapno == T_PGFLT)
f010447d:	3b 1d 60 3a 20 f0    	cmp    0xf0203a60,%ebx
f0104483:	75 19                	jne    f010449e <print_trapframe+0xb9>
f0104485:	83 7b 28 0e          	cmpl   $0xe,0x28(%ebx)
f0104489:	75 13                	jne    f010449e <print_trapframe+0xb9>

static __inline uint32_t
rcr2(void)
{
	uint32_t val;
	__asm __volatile("movl %%cr2,%0" : "=r" (val));
f010448b:	0f 20 d0             	mov    %cr2,%eax
		cprintf("  cr2  0x%08x\n", rcr2());
f010448e:	89 44 24 04          	mov    %eax,0x4(%esp)
f0104492:	c7 04 24 ae 80 10 f0 	movl   $0xf01080ae,(%esp)
f0104499:	e8 c7 fc ff ff       	call   f0104165 <cprintf>
	cprintf("  err  0x%08x", tf->tf_err);
f010449e:	8b 43 2c             	mov    0x2c(%ebx),%eax
f01044a1:	89 44 24 04          	mov    %eax,0x4(%esp)
f01044a5:	c7 04 24 bd 80 10 f0 	movl   $0xf01080bd,(%esp)
f01044ac:	e8 b4 fc ff ff       	call   f0104165 <cprintf>
	// For page faults, print decoded fault error code:
	// U/K=fault occurred in user/kernel mode
	// W/R=a write/read caused the fault
	// PR=a protection violation caused the fault (NP=page not present).
	if (tf->tf_trapno == T_PGFLT)
f01044b1:	83 7b 28 0e          	cmpl   $0xe,0x28(%ebx)
f01044b5:	75 51                	jne    f0104508 <print_trapframe+0x123>
		cprintf(" [%s, %s, %s]\n",
			tf->tf_err & 4 ? "user" : "kernel",
			tf->tf_err & 2 ? "write" : "read",
			tf->tf_err & 1 ? "protection" : "not-present");
f01044b7:	8b 43 2c             	mov    0x2c(%ebx),%eax
	// For page faults, print decoded fault error code:
	// U/K=fault occurred in user/kernel mode
	// W/R=a write/read caused the fault
	// PR=a protection violation caused the fault (NP=page not present).
	if (tf->tf_trapno == T_PGFLT)
		cprintf(" [%s, %s, %s]\n",
f01044ba:	89 c2                	mov    %eax,%edx
f01044bc:	83 e2 01             	and    $0x1,%edx
f01044bf:	ba 31 80 10 f0       	mov    $0xf0108031,%edx
f01044c4:	b9 3c 80 10 f0       	mov    $0xf010803c,%ecx
f01044c9:	0f 45 ca             	cmovne %edx,%ecx
f01044cc:	89 c2                	mov    %eax,%edx
f01044ce:	83 e2 02             	and    $0x2,%edx
f01044d1:	ba 48 80 10 f0       	mov    $0xf0108048,%edx
f01044d6:	be 4e 80 10 f0       	mov    $0xf010804e,%esi
f01044db:	0f 44 d6             	cmove  %esi,%edx
f01044de:	83 e0 04             	and    $0x4,%eax
f01044e1:	b8 53 80 10 f0       	mov    $0xf0108053,%eax
f01044e6:	be b7 81 10 f0       	mov    $0xf01081b7,%esi
f01044eb:	0f 44 c6             	cmove  %esi,%eax
f01044ee:	89 4c 24 0c          	mov    %ecx,0xc(%esp)
f01044f2:	89 54 24 08          	mov    %edx,0x8(%esp)
f01044f6:	89 44 24 04          	mov    %eax,0x4(%esp)
f01044fa:	c7 04 24 cb 80 10 f0 	movl   $0xf01080cb,(%esp)
f0104501:	e8 5f fc ff ff       	call   f0104165 <cprintf>
f0104506:	eb 0c                	jmp    f0104514 <print_trapframe+0x12f>
			tf->tf_err & 4 ? "user" : "kernel",
			tf->tf_err & 2 ? "write" : "read",
			tf->tf_err & 1 ? "protection" : "not-present");
	else
		cprintf("\n");
f0104508:	c7 04 24 d9 7e 10 f0 	movl   $0xf0107ed9,(%esp)
f010450f:	e8 51 fc ff ff       	call   f0104165 <cprintf>
	cprintf("  eip  0x%08x\n", tf->tf_eip);
f0104514:	8b 43 30             	mov    0x30(%ebx),%eax
f0104517:	89 44 24 04          	mov    %eax,0x4(%esp)
f010451b:	c7 04 24 da 80 10 f0 	movl   $0xf01080da,(%esp)
f0104522:	e8 3e fc ff ff       	call   f0104165 <cprintf>
	cprintf("  cs   0x----%04x\n", tf->tf_cs);
f0104527:	0f b7 43 34          	movzwl 0x34(%ebx),%eax
f010452b:	89 44 24 04          	mov    %eax,0x4(%esp)
f010452f:	c7 04 24 e9 80 10 f0 	movl   $0xf01080e9,(%esp)
f0104536:	e8 2a fc ff ff       	call   f0104165 <cprintf>
	cprintf("  flag 0x%08x\n", tf->tf_eflags);
f010453b:	8b 43 38             	mov    0x38(%ebx),%eax
f010453e:	89 44 24 04          	mov    %eax,0x4(%esp)
f0104542:	c7 04 24 fc 80 10 f0 	movl   $0xf01080fc,(%esp)
f0104549:	e8 17 fc ff ff       	call   f0104165 <cprintf>
	if ((tf->tf_cs & 3) != 0) {
f010454e:	f6 43 34 03          	testb  $0x3,0x34(%ebx)
f0104552:	74 27                	je     f010457b <print_trapframe+0x196>
		cprintf("  esp  0x%08x\n", tf->tf_esp);
f0104554:	8b 43 3c             	mov    0x3c(%ebx),%eax
f0104557:	89 44 24 04          	mov    %eax,0x4(%esp)
f010455b:	c7 04 24 0b 81 10 f0 	movl   $0xf010810b,(%esp)
f0104562:	e8 fe fb ff ff       	call   f0104165 <cprintf>
		cprintf("  ss   0x----%04x\n", tf->tf_ss);
f0104567:	0f b7 43 40          	movzwl 0x40(%ebx),%eax
f010456b:	89 44 24 04          	mov    %eax,0x4(%esp)
f010456f:	c7 04 24 1a 81 10 f0 	movl   $0xf010811a,(%esp)
f0104576:	e8 ea fb ff ff       	call   f0104165 <cprintf>
	}
}
f010457b:	83 c4 10             	add    $0x10,%esp
f010457e:	5b                   	pop    %ebx
f010457f:	5e                   	pop    %esi
f0104580:	5d                   	pop    %ebp
f0104581:	c3                   	ret    

f0104582 <page_fault_handler>:
}

// will not return
void
page_fault_handler(struct Trapframe *tf)
{
f0104582:	55                   	push   %ebp
f0104583:	89 e5                	mov    %esp,%ebp
f0104585:	57                   	push   %edi
f0104586:	56                   	push   %esi
f0104587:	53                   	push   %ebx
f0104588:	83 ec 2c             	sub    $0x2c,%esp
f010458b:	8b 5d 08             	mov    0x8(%ebp),%ebx
f010458e:	0f 20 d6             	mov    %cr2,%esi

	// Read processor's CR2 register to find the faulting address
	fault_va = rcr2();

	// Handle kernel-mode page faults.
	if (!(tf->tf_cs & 0x11)) {
f0104591:	f6 43 34 11          	testb  $0x11,0x34(%ebx)
f0104595:	75 1c                	jne    f01045b3 <page_fault_handler+0x31>
		panic("Kernel Page Fault.");
f0104597:	c7 44 24 08 2d 81 10 	movl   $0xf010812d,0x8(%esp)
f010459e:	f0 
f010459f:	c7 44 24 04 3c 01 00 	movl   $0x13c,0x4(%esp)
f01045a6:	00 
f01045a7:	c7 04 24 40 81 10 f0 	movl   $0xf0108140,(%esp)
f01045ae:	e8 8d ba ff ff       	call   f0100040 <_panic>
	//   user_mem_assert() and env_run() are useful here.
	//   To change what the user environment runs, modify 'curenv->env_tf'
	//   (the 'tf' variable points at 'curenv->env_tf').

	// LAB 4: Your code here.
	const uint32_t tf_esp_addr = (uint32_t)(tf->tf_esp); 		// trap-time esp
f01045b3:	8b 7b 3c             	mov    0x3c(%ebx),%edi

	if (!curenv->env_pgfault_upcall) {
f01045b6:	e8 e8 1f 00 00       	call   f01065a3 <cpunum>
f01045bb:	6b c0 74             	imul   $0x74,%eax,%eax
f01045be:	8b 80 28 40 20 f0    	mov    -0xfdfbfd8(%eax),%eax
f01045c4:	83 78 64 00          	cmpl   $0x0,0x64(%eax)
f01045c8:	75 50                	jne    f010461a <page_fault_handler+0x98>
		// Destroy the environment that caused the fault.
		cprintf("[%08x] user fault va %08x ip %08x\n",
f01045ca:	8b 43 30             	mov    0x30(%ebx),%eax
f01045cd:	89 45 e4             	mov    %eax,-0x1c(%ebp)
			curenv->env_id, fault_va, tf->tf_eip);
f01045d0:	e8 ce 1f 00 00       	call   f01065a3 <cpunum>
	// LAB 4: Your code here.
	const uint32_t tf_esp_addr = (uint32_t)(tf->tf_esp); 		// trap-time esp

	if (!curenv->env_pgfault_upcall) {
		// Destroy the environment that caused the fault.
		cprintf("[%08x] user fault va %08x ip %08x\n",
f01045d5:	8b 4d e4             	mov    -0x1c(%ebp),%ecx
f01045d8:	89 4c 24 0c          	mov    %ecx,0xc(%esp)
f01045dc:	89 74 24 08          	mov    %esi,0x8(%esp)
			curenv->env_id, fault_va, tf->tf_eip);
f01045e0:	6b c0 74             	imul   $0x74,%eax,%eax
	// LAB 4: Your code here.
	const uint32_t tf_esp_addr = (uint32_t)(tf->tf_esp); 		// trap-time esp

	if (!curenv->env_pgfault_upcall) {
		// Destroy the environment that caused the fault.
		cprintf("[%08x] user fault va %08x ip %08x\n",
f01045e3:	8b 80 28 40 20 f0    	mov    -0xfdfbfd8(%eax),%eax
f01045e9:	8b 40 48             	mov    0x48(%eax),%eax
f01045ec:	89 44 24 04          	mov    %eax,0x4(%esp)
f01045f0:	c7 04 24 04 83 10 f0 	movl   $0xf0108304,(%esp)
f01045f7:	e8 69 fb ff ff       	call   f0104165 <cprintf>
			curenv->env_id, fault_va, tf->tf_eip);
		print_trapframe(tf);
f01045fc:	89 1c 24             	mov    %ebx,(%esp)
f01045ff:	e8 e1 fd ff ff       	call   f01043e5 <print_trapframe>
		env_destroy(curenv);	// env_destroy will call shced_yeild
f0104604:	e8 9a 1f 00 00       	call   f01065a3 <cpunum>
f0104609:	6b c0 74             	imul   $0x74,%eax,%eax
f010460c:	8b 80 28 40 20 f0    	mov    -0xfdfbfd8(%eax),%eax
f0104612:	89 04 24             	mov    %eax,(%esp)
f0104615:	e8 80 f8 ff ff       	call   f0103e9a <env_destroy>
	}

	// !!! if user exception stack overflow, it will trigger a kernel page fautl.
	int in_user_ex_stack = ((tf_esp_addr < UXSTACKTOP) && (tf_esp_addr >= (UXSTACKTOP - PGSIZE)));
f010461a:	8d 87 00 10 40 11    	lea    0x11401000(%edi),%eax
	struct UTrapframe* utf = NULL;

	if (!in_user_ex_stack) {
		utf = (struct UTrapframe*)(UXSTACKTOP - sizeof(struct UTrapframe));
	} else {
		utf = (struct UTrapframe*)(tf_esp_addr - 4 - sizeof(struct UTrapframe));
f0104620:	83 ef 38             	sub    $0x38,%edi
f0104623:	3d ff 0f 00 00       	cmp    $0xfff,%eax
f0104628:	b8 cc ff bf ee       	mov    $0xeebfffcc,%eax
f010462d:	0f 46 c7             	cmovbe %edi,%eax
f0104630:	89 c7                	mov    %eax,%edi
f0104632:	89 45 e4             	mov    %eax,-0x1c(%ebp)
	}

	// check the utrap frame address valid
	user_mem_assert(curenv, (void*)utf, sizeof(struct UTrapframe), PTE_U | PTE_P | PTE_W);
f0104635:	e8 69 1f 00 00       	call   f01065a3 <cpunum>
f010463a:	c7 44 24 0c 07 00 00 	movl   $0x7,0xc(%esp)
f0104641:	00 
f0104642:	c7 44 24 08 34 00 00 	movl   $0x34,0x8(%esp)
f0104649:	00 
f010464a:	89 7c 24 04          	mov    %edi,0x4(%esp)
f010464e:	6b c0 74             	imul   $0x74,%eax,%eax
f0104651:	8b 80 28 40 20 f0    	mov    -0xfdfbfd8(%eax),%eax
f0104657:	89 04 24             	mov    %eax,(%esp)
f010465a:	e8 a0 f1 ff ff       	call   f01037ff <user_mem_assert>

	// setup user exception trapframe
	utf->utf_fault_va = fault_va;
f010465f:	89 37                	mov    %esi,(%edi)
	utf->utf_err = tf->tf_err;
f0104661:	8b 43 2c             	mov    0x2c(%ebx),%eax
f0104664:	89 47 04             	mov    %eax,0x4(%edi)
	utf->utf_regs = tf->tf_regs;
f0104667:	8d 7f 08             	lea    0x8(%edi),%edi
f010466a:	89 de                	mov    %ebx,%esi
f010466c:	b8 20 00 00 00       	mov    $0x20,%eax
f0104671:	f7 c7 01 00 00 00    	test   $0x1,%edi
f0104677:	74 03                	je     f010467c <page_fault_handler+0xfa>
f0104679:	a4                   	movsb  %ds:(%esi),%es:(%edi)
f010467a:	b0 1f                	mov    $0x1f,%al
f010467c:	f7 c7 02 00 00 00    	test   $0x2,%edi
f0104682:	74 05                	je     f0104689 <page_fault_handler+0x107>
f0104684:	66 a5                	movsw  %ds:(%esi),%es:(%edi)
f0104686:	83 e8 02             	sub    $0x2,%eax
f0104689:	89 c1                	mov    %eax,%ecx
f010468b:	c1 e9 02             	shr    $0x2,%ecx
f010468e:	f3 a5                	rep movsl %ds:(%esi),%es:(%edi)
f0104690:	ba 00 00 00 00       	mov    $0x0,%edx
f0104695:	a8 02                	test   $0x2,%al
f0104697:	74 0b                	je     f01046a4 <page_fault_handler+0x122>
f0104699:	0f b7 16             	movzwl (%esi),%edx
f010469c:	66 89 17             	mov    %dx,(%edi)
f010469f:	ba 02 00 00 00       	mov    $0x2,%edx
f01046a4:	a8 01                	test   $0x1,%al
f01046a6:	74 07                	je     f01046af <page_fault_handler+0x12d>
f01046a8:	0f b6 04 16          	movzbl (%esi,%edx,1),%eax
f01046ac:	88 04 17             	mov    %al,(%edi,%edx,1)
	utf->utf_eip = tf->tf_eip;
f01046af:	8b 43 30             	mov    0x30(%ebx),%eax
f01046b2:	8b 55 e4             	mov    -0x1c(%ebp),%edx
f01046b5:	89 42 28             	mov    %eax,0x28(%edx)
	utf->utf_esp = tf->tf_esp;
f01046b8:	8b 43 3c             	mov    0x3c(%ebx),%eax
f01046bb:	89 42 30             	mov    %eax,0x30(%edx)
	utf->utf_eflags = tf->tf_eflags;
f01046be:	8b 43 38             	mov    0x38(%ebx),%eax
f01046c1:	89 42 2c             	mov    %eax,0x2c(%edx)

	// modified kernel stack trapframe
	tf->tf_esp = (uintptr_t)utf;
f01046c4:	89 53 3c             	mov    %edx,0x3c(%ebx)
	tf->tf_eip = (uintptr_t)curenv->env_pgfault_upcall;
f01046c7:	e8 d7 1e 00 00       	call   f01065a3 <cpunum>
f01046cc:	6b c0 74             	imul   $0x74,%eax,%eax
f01046cf:	8b 80 28 40 20 f0    	mov    -0xfdfbfd8(%eax),%eax
f01046d5:	8b 40 64             	mov    0x64(%eax),%eax
f01046d8:	89 43 30             	mov    %eax,0x30(%ebx)

	// restore trap frame
	// and transfer to env_pgfault_upcall
	env_run(curenv);
f01046db:	e8 c3 1e 00 00       	call   f01065a3 <cpunum>
f01046e0:	6b c0 74             	imul   $0x74,%eax,%eax
f01046e3:	8b 80 28 40 20 f0    	mov    -0xfdfbfd8(%eax),%eax
f01046e9:	89 04 24             	mov    %eax,(%esp)
f01046ec:	e8 4a f8 ff ff       	call   f0103f3b <env_run>

f01046f1 <trap>:
	}
}

void
trap(struct Trapframe *tf)
{
f01046f1:	55                   	push   %ebp
f01046f2:	89 e5                	mov    %esp,%ebp
f01046f4:	57                   	push   %edi
f01046f5:	56                   	push   %esi
f01046f6:	83 ec 20             	sub    $0x20,%esp
f01046f9:	8b 75 08             	mov    0x8(%ebp),%esi
	// The environment may have set DF and some versions
	// of GCC rely on DF being clear
	asm volatile("cld" ::: "cc");
f01046fc:	fc                   	cld    

	// Halt the CPU if some other CPU has called panic()
	extern char *panicstr;
	if (panicstr)
f01046fd:	83 3d 80 3e 20 f0 00 	cmpl   $0x0,0xf0203e80
f0104704:	74 01                	je     f0104707 <trap+0x16>
		asm volatile("hlt");
f0104706:	f4                   	hlt    

	// Re-acqurie the big kernel lock if we were halted in
	// sched_yield()
	if (xchg(&thiscpu->cpu_status, CPU_STARTED) == CPU_HALTED)
f0104707:	e8 97 1e 00 00       	call   f01065a3 <cpunum>
f010470c:	6b d0 74             	imul   $0x74,%eax,%edx
f010470f:	81 c2 20 40 20 f0    	add    $0xf0204020,%edx
xchg(volatile uint32_t *addr, uint32_t newval)
{
	uint32_t result;

	// The + in "+m" denotes a read-modify-write operand.
	asm volatile("lock; xchgl %0, %1" :
f0104715:	b8 01 00 00 00       	mov    $0x1,%eax
f010471a:	f0 87 42 04          	lock xchg %eax,0x4(%edx)
f010471e:	83 f8 02             	cmp    $0x2,%eax
f0104721:	75 0c                	jne    f010472f <trap+0x3e>
extern struct spinlock kernel_lock;

static inline void
lock_kernel(void)
{
	spin_lock(&kernel_lock);
f0104723:	c7 04 24 80 14 12 f0 	movl   $0xf0121480,(%esp)
f010472a:	e8 f2 20 00 00       	call   f0106821 <spin_lock>

static __inline uint32_t
read_eflags(void)
{
	uint32_t eflags;
	__asm __volatile("pushfl; popl %0" : "=r" (eflags));
f010472f:	9c                   	pushf  
f0104730:	58                   	pop    %eax
		lock_kernel();

	// Check that interrupts are disabled.  If this assertion
	// fails, DO NOT be tempted to fix it by inserting a "cli" in
	// the interrupt path.
	assert(!(read_eflags() & FL_IF));
f0104731:	f6 c4 02             	test   $0x2,%ah
f0104734:	74 24                	je     f010475a <trap+0x69>
f0104736:	c7 44 24 0c 4c 81 10 	movl   $0xf010814c,0xc(%esp)
f010473d:	f0 
f010473e:	c7 44 24 08 d3 7b 10 	movl   $0xf0107bd3,0x8(%esp)
f0104745:	f0 
f0104746:	c7 44 24 04 09 01 00 	movl   $0x109,0x4(%esp)
f010474d:	00 
f010474e:	c7 04 24 40 81 10 f0 	movl   $0xf0108140,(%esp)
f0104755:	e8 e6 b8 ff ff       	call   f0100040 <_panic>

	if ((tf->tf_cs & 3) == 3) {
f010475a:	0f b7 46 34          	movzwl 0x34(%esi),%eax
f010475e:	83 e0 03             	and    $0x3,%eax
f0104761:	66 83 f8 03          	cmp    $0x3,%ax
f0104765:	0f 85 a7 00 00 00    	jne    f0104812 <trap+0x121>
		// Trapped from user mode.
		// Acquire the big kernel lock before doing any
		// serious kernel work.
		// LAB 4: Your code here.
		assert(curenv);
f010476b:	e8 33 1e 00 00       	call   f01065a3 <cpunum>
f0104770:	6b c0 74             	imul   $0x74,%eax,%eax
f0104773:	83 b8 28 40 20 f0 00 	cmpl   $0x0,-0xfdfbfd8(%eax)
f010477a:	75 24                	jne    f01047a0 <trap+0xaf>
f010477c:	c7 44 24 0c 65 81 10 	movl   $0xf0108165,0xc(%esp)
f0104783:	f0 
f0104784:	c7 44 24 08 d3 7b 10 	movl   $0xf0107bd3,0x8(%esp)
f010478b:	f0 
f010478c:	c7 44 24 04 10 01 00 	movl   $0x110,0x4(%esp)
f0104793:	00 
f0104794:	c7 04 24 40 81 10 f0 	movl   $0xf0108140,(%esp)
f010479b:	e8 a0 b8 ff ff       	call   f0100040 <_panic>
f01047a0:	c7 04 24 80 14 12 f0 	movl   $0xf0121480,(%esp)
f01047a7:	e8 75 20 00 00       	call   f0106821 <spin_lock>
		lock_kernel();
		// Garbage collect if current enviroment is a zombie
		if (curenv->env_status == ENV_DYING) {
f01047ac:	e8 f2 1d 00 00       	call   f01065a3 <cpunum>
f01047b1:	6b c0 74             	imul   $0x74,%eax,%eax
f01047b4:	8b 80 28 40 20 f0    	mov    -0xfdfbfd8(%eax),%eax
f01047ba:	83 78 54 01          	cmpl   $0x1,0x54(%eax)
f01047be:	75 2d                	jne    f01047ed <trap+0xfc>
			env_free(curenv);
f01047c0:	e8 de 1d 00 00       	call   f01065a3 <cpunum>
f01047c5:	6b c0 74             	imul   $0x74,%eax,%eax
f01047c8:	8b 80 28 40 20 f0    	mov    -0xfdfbfd8(%eax),%eax
f01047ce:	89 04 24             	mov    %eax,(%esp)
f01047d1:	e8 f9 f4 ff ff       	call   f0103ccf <env_free>
			curenv = NULL;
f01047d6:	e8 c8 1d 00 00       	call   f01065a3 <cpunum>
f01047db:	6b c0 74             	imul   $0x74,%eax,%eax
f01047de:	c7 80 28 40 20 f0 00 	movl   $0x0,-0xfdfbfd8(%eax)
f01047e5:	00 00 00 
			sched_yield();
f01047e8:	e8 fa 02 00 00       	call   f0104ae7 <sched_yield>
		}

		// Copy trap frame (which is currently on the stack)
		// into 'curenv->env_tf', so that running the environment
		// will restart at the trap point.
		curenv->env_tf = *tf;
f01047ed:	e8 b1 1d 00 00       	call   f01065a3 <cpunum>
f01047f2:	6b c0 74             	imul   $0x74,%eax,%eax
f01047f5:	8b 80 28 40 20 f0    	mov    -0xfdfbfd8(%eax),%eax
f01047fb:	b9 11 00 00 00       	mov    $0x11,%ecx
f0104800:	89 c7                	mov    %eax,%edi
f0104802:	f3 a5                	rep movsl %ds:(%esi),%es:(%edi)
		// The trapframe on the stack should be ignored from here on.
		tf = &curenv->env_tf;
f0104804:	e8 9a 1d 00 00       	call   f01065a3 <cpunum>
f0104809:	6b c0 74             	imul   $0x74,%eax,%eax
f010480c:	8b b0 28 40 20 f0    	mov    -0xfdfbfd8(%eax),%esi
	}

	// Record that tf is the last real trapframe so
	// print_trapframe can print some additional information.
	last_tf = tf;
f0104812:	89 35 60 3a 20 f0    	mov    %esi,0xf0203a60
}

static void
trap_dispatch(struct Trapframe *tf)
{
	switch (tf->tf_trapno) {
f0104818:	8b 46 28             	mov    0x28(%esi),%eax
f010481b:	83 f8 0e             	cmp    $0xe,%eax
f010481e:	74 20                	je     f0104840 <trap+0x14f>
f0104820:	83 f8 30             	cmp    $0x30,%eax
f0104823:	74 23                	je     f0104848 <trap+0x157>
f0104825:	83 f8 03             	cmp    $0x3,%eax
f0104828:	75 50                	jne    f010487a <trap+0x189>
		case T_BRKPT:
			monitor(tf);
f010482a:	89 34 24             	mov    %esi,(%esp)
f010482d:	e8 a6 c1 ff ff       	call   f01009d8 <monitor>
			cprintf("return from breakpoint....\n");
f0104832:	c7 04 24 6c 81 10 f0 	movl   $0xf010816c,(%esp)
f0104839:	e8 27 f9 ff ff       	call   f0104165 <cprintf>
f010483e:	eb 3a                	jmp    f010487a <trap+0x189>
			break;

		case T_PGFLT:
			// page_fault_handler will not return
			page_fault_handler(tf);
f0104840:	89 34 24             	mov    %esi,(%esp)
f0104843:	e8 3a fd ff ff       	call   f0104582 <page_fault_handler>

		case T_SYSCALL:
			syscall(tf->tf_regs.reg_eax,
f0104848:	8b 46 04             	mov    0x4(%esi),%eax
f010484b:	89 44 24 14          	mov    %eax,0x14(%esp)
f010484f:	8b 06                	mov    (%esi),%eax
f0104851:	89 44 24 10          	mov    %eax,0x10(%esp)
f0104855:	8b 46 10             	mov    0x10(%esi),%eax
f0104858:	89 44 24 0c          	mov    %eax,0xc(%esp)
f010485c:	8b 46 18             	mov    0x18(%esi),%eax
f010485f:	89 44 24 08          	mov    %eax,0x8(%esp)
f0104863:	8b 46 14             	mov    0x14(%esi),%eax
f0104866:	89 44 24 04          	mov    %eax,0x4(%esp)
f010486a:	8b 46 1c             	mov    0x1c(%esi),%eax
f010486d:	89 04 24             	mov    %eax,(%esp)
f0104870:	e8 b2 03 00 00       	call   f0104c27 <syscall>
							tf->tf_regs.reg_edx,
							tf->tf_regs.reg_ecx,
							tf->tf_regs.reg_ebx,
							tf->tf_regs.reg_edi,
							tf->tf_regs.reg_esi);
			asm volatile("movl %%eax, %0\n" : "=m"(tf->tf_regs.reg_eax) ::);
f0104875:	89 46 1c             	mov    %eax,0x1c(%esi)
f0104878:	eb 71                	jmp    f01048eb <trap+0x1fa>
	}

	// Handle spurious interrupts
	// The hardware sometimes raises these because of noise on the
	// IRQ line or other reasons. We don't care.
	if (tf->tf_trapno == IRQ_OFFSET + IRQ_SPURIOUS) {
f010487a:	8b 46 28             	mov    0x28(%esi),%eax
f010487d:	83 f8 27             	cmp    $0x27,%eax
f0104880:	75 16                	jne    f0104898 <trap+0x1a7>
		cprintf("Spurious interrupt on irq 7\n");
f0104882:	c7 04 24 88 81 10 f0 	movl   $0xf0108188,(%esp)
f0104889:	e8 d7 f8 ff ff       	call   f0104165 <cprintf>
		print_trapframe(tf);
f010488e:	89 34 24             	mov    %esi,(%esp)
f0104891:	e8 4f fb ff ff       	call   f01043e5 <print_trapframe>
f0104896:	eb 53                	jmp    f01048eb <trap+0x1fa>
	}

	// Handle clock interrupts. Don't forget to acknowledge the
	// interrupt using lapic_eoi() before calling the scheduler!
	// LAB 4: Your code here.
	if (tf->tf_trapno == IRQ_OFFSET + IRQ_TIMER) {
f0104898:	83 f8 20             	cmp    $0x20,%eax
f010489b:	75 0d                	jne    f01048aa <trap+0x1b9>
		lapic_eoi();
f010489d:	8d 76 00             	lea    0x0(%esi),%esi
f01048a0:	e8 4b 1e 00 00       	call   f01066f0 <lapic_eoi>
		sched_yield();
f01048a5:	e8 3d 02 00 00       	call   f0104ae7 <sched_yield>

	// Handle keyboard and serial interrupts.
	// LAB 5: Your code here.

	// Unexpected trap: The user process or the kernel has a bug.
	print_trapframe(tf);
f01048aa:	89 34 24             	mov    %esi,(%esp)
f01048ad:	e8 33 fb ff ff       	call   f01043e5 <print_trapframe>
	if (tf->tf_cs == GD_KT)
f01048b2:	66 83 7e 34 08       	cmpw   $0x8,0x34(%esi)
f01048b7:	75 1c                	jne    f01048d5 <trap+0x1e4>
		panic("unhandled trap in kernel");
f01048b9:	c7 44 24 08 a5 81 10 	movl   $0xf01081a5,0x8(%esp)
f01048c0:	f0 
f01048c1:	c7 44 24 04 ee 00 00 	movl   $0xee,0x4(%esp)
f01048c8:	00 
f01048c9:	c7 04 24 40 81 10 f0 	movl   $0xf0108140,(%esp)
f01048d0:	e8 6b b7 ff ff       	call   f0100040 <_panic>
	else {
		env_destroy(curenv);
f01048d5:	e8 c9 1c 00 00       	call   f01065a3 <cpunum>
f01048da:	6b c0 74             	imul   $0x74,%eax,%eax
f01048dd:	8b 80 28 40 20 f0    	mov    -0xfdfbfd8(%eax),%eax
f01048e3:	89 04 24             	mov    %eax,(%esp)
f01048e6:	e8 af f5 ff ff       	call   f0103e9a <env_destroy>
	trap_dispatch(tf);

	// If we made it to this point, then no other environment was
	// scheduled, so we should return to the current environment
	// if doing so makes sense.
	if (curenv && curenv->env_status == ENV_RUNNING)
f01048eb:	e8 b3 1c 00 00       	call   f01065a3 <cpunum>
f01048f0:	6b c0 74             	imul   $0x74,%eax,%eax
f01048f3:	83 b8 28 40 20 f0 00 	cmpl   $0x0,-0xfdfbfd8(%eax)
f01048fa:	74 2a                	je     f0104926 <trap+0x235>
f01048fc:	e8 a2 1c 00 00       	call   f01065a3 <cpunum>
f0104901:	6b c0 74             	imul   $0x74,%eax,%eax
f0104904:	8b 80 28 40 20 f0    	mov    -0xfdfbfd8(%eax),%eax
f010490a:	83 78 54 03          	cmpl   $0x3,0x54(%eax)
f010490e:	75 16                	jne    f0104926 <trap+0x235>
		env_run(curenv);
f0104910:	e8 8e 1c 00 00       	call   f01065a3 <cpunum>
f0104915:	6b c0 74             	imul   $0x74,%eax,%eax
f0104918:	8b 80 28 40 20 f0    	mov    -0xfdfbfd8(%eax),%eax
f010491e:	89 04 24             	mov    %eax,(%esp)
f0104921:	e8 15 f6 ff ff       	call   f0103f3b <env_run>
	else
		sched_yield();
f0104926:	e8 bc 01 00 00       	call   f0104ae7 <sched_yield>
f010492b:	90                   	nop

f010492c <divide_fault>:

/*
 * 0 ~ 7, 16, 18, 19 no error code
 */
.text
TRAPHANDLER_NOEC(divide_fault, T_DIVIDE);
f010492c:	6a 00                	push   $0x0
f010492e:	6a 00                	push   $0x0
f0104930:	e9 97 00 00 00       	jmp    f01049cc <_alltraps>
f0104935:	90                   	nop

f0104936 <debug_exception>:
TRAPHANDLER_NOEC(debug_exception, T_DEBUG);
f0104936:	6a 00                	push   $0x0
f0104938:	6a 01                	push   $0x1
f010493a:	e9 8d 00 00 00       	jmp    f01049cc <_alltraps>
f010493f:	90                   	nop

f0104940 <nmi_interrupt>:
TRAPHANDLER_NOEC(nmi_interrupt, T_NMI);
f0104940:	6a 00                	push   $0x0
f0104942:	6a 02                	push   $0x2
f0104944:	e9 83 00 00 00       	jmp    f01049cc <_alltraps>
f0104949:	90                   	nop

f010494a <breakpoint_trap>:
TRAPHANDLER_NOEC(breakpoint_trap, T_BRKPT);
f010494a:	6a 00                	push   $0x0
f010494c:	6a 03                	push   $0x3
f010494e:	eb 7c                	jmp    f01049cc <_alltraps>

f0104950 <overflow_trap>:
TRAPHANDLER_NOEC(overflow_trap, T_OFLOW);
f0104950:	6a 00                	push   $0x0
f0104952:	6a 04                	push   $0x4
f0104954:	eb 76                	jmp    f01049cc <_alltraps>

f0104956 <bounds_check_fault>:
TRAPHANDLER_NOEC(bounds_check_fault, T_BOUND);
f0104956:	6a 00                	push   $0x0
f0104958:	6a 05                	push   $0x5
f010495a:	eb 70                	jmp    f01049cc <_alltraps>

f010495c <invalid_opcode_fault>:
TRAPHANDLER_NOEC(invalid_opcode_fault, T_ILLOP);
f010495c:	6a 00                	push   $0x0
f010495e:	6a 06                	push   $0x6
f0104960:	eb 6a                	jmp    f01049cc <_alltraps>

f0104962 <device_not_available_fault>:
TRAPHANDLER_NOEC(device_not_available_fault, T_DEVICE);
f0104962:	6a 00                	push   $0x0
f0104964:	6a 07                	push   $0x7
f0104966:	eb 64                	jmp    f01049cc <_alltraps>

f0104968 <floating_point_error_fault>:
TRAPHANDLER_NOEC(floating_point_error_fault, T_FPERR);
f0104968:	6a 00                	push   $0x0
f010496a:	6a 10                	push   $0x10
f010496c:	eb 5e                	jmp    f01049cc <_alltraps>

f010496e <machine_check_fault>:
TRAPHANDLER_NOEC(machine_check_fault, T_MCHK);
f010496e:	6a 00                	push   $0x0
f0104970:	6a 12                	push   $0x12
f0104972:	eb 58                	jmp    f01049cc <_alltraps>

f0104974 <simd_fault>:
TRAPHANDLER_NOEC(simd_fault, T_SIMDERR);
f0104974:	6a 00                	push   $0x0
f0104976:	6a 13                	push   $0x13
f0104978:	eb 52                	jmp    f01049cc <_alltraps>

f010497a <double_fault_abort>:

/*
 * 8, 10 ~ 14, 17 with error code
 */
TRAPHANDLER(double_fault_abort, T_DBLFLT);
f010497a:	6a 08                	push   $0x8
f010497c:	eb 4e                	jmp    f01049cc <_alltraps>

f010497e <invalid_tss_fault>:
TRAPHANDLER(invalid_tss_fault, T_TSS);
f010497e:	6a 0a                	push   $0xa
f0104980:	eb 4a                	jmp    f01049cc <_alltraps>

f0104982 <segment_not_present_fault>:
TRAPHANDLER(segment_not_present_fault, T_SEGNP);
f0104982:	6a 0b                	push   $0xb
f0104984:	eb 46                	jmp    f01049cc <_alltraps>

f0104986 <stack_exception_fault>:
TRAPHANDLER(stack_exception_fault, T_STACK);
f0104986:	6a 0c                	push   $0xc
f0104988:	eb 42                	jmp    f01049cc <_alltraps>

f010498a <general_protection_fault>:
TRAPHANDLER(general_protection_fault, T_GPFLT);
f010498a:	6a 0d                	push   $0xd
f010498c:	eb 3e                	jmp    f01049cc <_alltraps>

f010498e <page_fault>:
TRAPHANDLER(page_fault, T_PGFLT);
f010498e:	6a 0e                	push   $0xe
f0104990:	eb 3a                	jmp    f01049cc <_alltraps>

f0104992 <align_check_fault>:
TRAPHANDLER(align_check_fault, T_ALIGN);
f0104992:	6a 11                	push   $0x11
f0104994:	eb 36                	jmp    f01049cc <_alltraps>

f0104996 <reserved_9>:

/*
 * System Reserved
 */
TRAPHANDLER_NOEC(reserved_9, T_COPROC);
f0104996:	6a 00                	push   $0x0
f0104998:	6a 09                	push   $0x9
f010499a:	eb 30                	jmp    f01049cc <_alltraps>

f010499c <reserved_15>:
TRAPHANDLER_NOEC(reserved_15, T_RES);
f010499c:	6a 00                	push   $0x0
f010499e:	6a 0f                	push   $0xf
f01049a0:	eb 2a                	jmp    f01049cc <_alltraps>

f01049a2 <syscall_trap>:

/*
 * System Call
 */
TRAPHANDLER_NOEC(syscall_trap, T_SYSCALL);
f01049a2:	6a 00                	push   $0x0
f01049a4:	6a 30                	push   $0x30
f01049a6:	eb 24                	jmp    f01049cc <_alltraps>

f01049a8 <timer_int>:

/*
 * External Interrupt
 */
TRAPHANDLER_NOEC(timer_int, IRQ_TIMER + IRQ_OFFSET);
f01049a8:	6a 00                	push   $0x0
f01049aa:	6a 20                	push   $0x20
f01049ac:	eb 1e                	jmp    f01049cc <_alltraps>

f01049ae <kbd_int>:
TRAPHANDLER_NOEC(kbd_int, IRQ_KBD + IRQ_OFFSET);
f01049ae:	6a 00                	push   $0x0
f01049b0:	6a 21                	push   $0x21
f01049b2:	eb 18                	jmp    f01049cc <_alltraps>

f01049b4 <serial_int>:
TRAPHANDLER_NOEC(serial_int, IRQ_SERIAL + IRQ_OFFSET);
f01049b4:	6a 00                	push   $0x0
f01049b6:	6a 24                	push   $0x24
f01049b8:	eb 12                	jmp    f01049cc <_alltraps>

f01049ba <spurious_int>:
TRAPHANDLER_NOEC(spurious_int, IRQ_SPURIOUS + IRQ_OFFSET);
f01049ba:	6a 00                	push   $0x0
f01049bc:	6a 27                	push   $0x27
f01049be:	eb 0c                	jmp    f01049cc <_alltraps>

f01049c0 <ide_int>:
TRAPHANDLER_NOEC(ide_int, IRQ_IDE + IRQ_OFFSET);
f01049c0:	6a 00                	push   $0x0
f01049c2:	6a 2e                	push   $0x2e
f01049c4:	eb 06                	jmp    f01049cc <_alltraps>

f01049c6 <error_int>:
TRAPHANDLER_NOEC(error_int, IRQ_ERROR + IRQ_OFFSET);
f01049c6:	6a 00                	push   $0x0
f01049c8:	6a 33                	push   $0x33
f01049ca:	eb 00                	jmp    f01049cc <_alltraps>

f01049cc <_alltraps>:

.text
_alltraps:
 	# setup the remaining part of the trap frame
 	pushl %ds
f01049cc:	1e                   	push   %ds
 	pushl %es
f01049cd:	06                   	push   %es
 	pushal
f01049ce:	60                   	pusha  

 	# Load GD_KD to ds and es
 	xor %ax, %ax
f01049cf:	66 31 c0             	xor    %ax,%ax
 	movw $GD_KD, %ax
f01049d2:	66 b8 10 00          	mov    $0x10,%ax
 	movw %ax, %ds
f01049d6:	8e d8                	mov    %eax,%ds
 	movw %ax, %es
f01049d8:	8e c0                	mov    %eax,%es

 	# Arugment passing and call trap
 	pushl %esp
f01049da:	54                   	push   %esp
 	call trap
f01049db:	e8 11 fd ff ff       	call   f01046f1 <trap>

 	# resotre
 	addl $0x04, %esp
f01049e0:	83 c4 04             	add    $0x4,%esp
 	popal
f01049e3:	61                   	popa   
 	popl %es
f01049e4:	07                   	pop    %es
 	popl %ds
f01049e5:	1f                   	pop    %ds
 	# ignore the trap number and 0 padding
 	addl $0x08, %esp
f01049e6:	83 c4 08             	add    $0x8,%esp
 	iret
f01049e9:	cf                   	iret   
f01049ea:	66 90                	xchg   %ax,%ax
f01049ec:	66 90                	xchg   %ax,%ax
f01049ee:	66 90                	xchg   %ax,%ax

f01049f0 <sched_halt>:
// Halt this CPU when there is nothing to do. Wait until the
// timer interrupt wakes it up. This function never returns.
//
void
sched_halt(void)
{
f01049f0:	55                   	push   %ebp
f01049f1:	89 e5                	mov    %esp,%ebp
f01049f3:	83 ec 18             	sub    $0x18,%esp
	int i;

	// For debugging and testing purposes, if there are no runnable
	// environments in the system, then drop into the kernel monitor.
	for (i = 0; i < NENV; i++) {
		if ((envs[i].env_status == ENV_RUNNABLE ||
f01049f6:	8b 15 4c 32 20 f0    	mov    0xf020324c,%edx
		     envs[i].env_status == ENV_RUNNING ||
f01049fc:	8b 42 54             	mov    0x54(%edx),%eax
f01049ff:	83 e8 01             	sub    $0x1,%eax
	int i;

	// For debugging and testing purposes, if there are no runnable
	// environments in the system, then drop into the kernel monitor.
	for (i = 0; i < NENV; i++) {
		if ((envs[i].env_status == ENV_RUNNABLE ||
f0104a02:	83 f8 02             	cmp    $0x2,%eax
f0104a05:	76 43                	jbe    f0104a4a <sched_halt+0x5a>
{
	int i;

	// For debugging and testing purposes, if there are no runnable
	// environments in the system, then drop into the kernel monitor.
	for (i = 0; i < NENV; i++) {
f0104a07:	b8 01 00 00 00       	mov    $0x1,%eax
		if ((envs[i].env_status == ENV_RUNNABLE ||
		     envs[i].env_status == ENV_RUNNING ||
f0104a0c:	8b 8a d0 00 00 00    	mov    0xd0(%edx),%ecx
f0104a12:	83 e9 01             	sub    $0x1,%ecx
	int i;

	// For debugging and testing purposes, if there are no runnable
	// environments in the system, then drop into the kernel monitor.
	for (i = 0; i < NENV; i++) {
		if ((envs[i].env_status == ENV_RUNNABLE ||
f0104a15:	83 f9 02             	cmp    $0x2,%ecx
f0104a18:	76 0f                	jbe    f0104a29 <sched_halt+0x39>
{
	int i;

	// For debugging and testing purposes, if there are no runnable
	// environments in the system, then drop into the kernel monitor.
	for (i = 0; i < NENV; i++) {
f0104a1a:	83 c0 01             	add    $0x1,%eax
f0104a1d:	83 c2 7c             	add    $0x7c,%edx
f0104a20:	3d 00 04 00 00       	cmp    $0x400,%eax
f0104a25:	75 e5                	jne    f0104a0c <sched_halt+0x1c>
f0104a27:	eb 07                	jmp    f0104a30 <sched_halt+0x40>
		if ((envs[i].env_status == ENV_RUNNABLE ||
		     envs[i].env_status == ENV_RUNNING ||
		     envs[i].env_status == ENV_DYING))
			break;
	}
	if (i == NENV) {
f0104a29:	3d 00 04 00 00       	cmp    $0x400,%eax
f0104a2e:	75 1a                	jne    f0104a4a <sched_halt+0x5a>
		cprintf("No runnable environments in the system!\n");
f0104a30:	c7 04 24 a8 83 10 f0 	movl   $0xf01083a8,(%esp)
f0104a37:	e8 29 f7 ff ff       	call   f0104165 <cprintf>
		while (1)
			monitor(NULL);
f0104a3c:	c7 04 24 00 00 00 00 	movl   $0x0,(%esp)
f0104a43:	e8 90 bf ff ff       	call   f01009d8 <monitor>
f0104a48:	eb f2                	jmp    f0104a3c <sched_halt+0x4c>
	}
	cprintf("CPU %d is halt.\n", cpunum());
f0104a4a:	e8 54 1b 00 00       	call   f01065a3 <cpunum>
f0104a4f:	89 44 24 04          	mov    %eax,0x4(%esp)
f0104a53:	c7 04 24 d1 83 10 f0 	movl   $0xf01083d1,(%esp)
f0104a5a:	e8 06 f7 ff ff       	call   f0104165 <cprintf>
	// Mark that no environment is running on this CPU
	curenv = NULL;
f0104a5f:	e8 3f 1b 00 00       	call   f01065a3 <cpunum>
f0104a64:	6b c0 74             	imul   $0x74,%eax,%eax
f0104a67:	c7 80 28 40 20 f0 00 	movl   $0x0,-0xfdfbfd8(%eax)
f0104a6e:	00 00 00 
	lcr3(PADDR(kern_pgdir));
f0104a71:	a1 8c 3e 20 f0       	mov    0xf0203e8c,%eax
#define PADDR(kva) _paddr(__FILE__, __LINE__, kva)

static inline physaddr_t
_paddr(const char *file, int line, void *kva)
{
	if ((uint32_t)kva < KERNBASE)
f0104a76:	3d ff ff ff ef       	cmp    $0xefffffff,%eax
f0104a7b:	77 20                	ja     f0104a9d <sched_halt+0xad>
		_panic(file, line, "PADDR called with invalid kva %08lx", kva);
f0104a7d:	89 44 24 0c          	mov    %eax,0xc(%esp)
f0104a81:	c7 44 24 08 08 6d 10 	movl   $0xf0106d08,0x8(%esp)
f0104a88:	f0 
f0104a89:	c7 44 24 04 4f 00 00 	movl   $0x4f,0x4(%esp)
f0104a90:	00 
f0104a91:	c7 04 24 e2 83 10 f0 	movl   $0xf01083e2,(%esp)
f0104a98:	e8 a3 b5 ff ff       	call   f0100040 <_panic>
	return (physaddr_t)kva - KERNBASE;
f0104a9d:	05 00 00 00 10       	add    $0x10000000,%eax
}

static __inline void
lcr3(uint32_t val)
{
	__asm __volatile("movl %0,%%cr3" : : "r" (val));
f0104aa2:	0f 22 d8             	mov    %eax,%cr3

	// Mark that this CPU is in the HALT state, so that when
	// timer interupts come in, we know we should re-acquire the
	// big kernel lock
	xchg(&thiscpu->cpu_status, CPU_HALTED);
f0104aa5:	e8 f9 1a 00 00       	call   f01065a3 <cpunum>
f0104aaa:	6b d0 74             	imul   $0x74,%eax,%edx
f0104aad:	81 c2 20 40 20 f0    	add    $0xf0204020,%edx
xchg(volatile uint32_t *addr, uint32_t newval)
{
	uint32_t result;

	// The + in "+m" denotes a read-modify-write operand.
	asm volatile("lock; xchgl %0, %1" :
f0104ab3:	b8 02 00 00 00       	mov    $0x2,%eax
f0104ab8:	f0 87 42 04          	lock xchg %eax,0x4(%edx)
}

static inline void
unlock_kernel(void)
{
	spin_unlock(&kernel_lock);
f0104abc:	c7 04 24 80 14 12 f0 	movl   $0xf0121480,(%esp)
f0104ac3:	e8 2f 1e 00 00       	call   f01068f7 <spin_unlock>

	// Normally we wouldn't need to do this, but QEMU only runs
	// one CPU at a time and has a long time-slice.  Without the
	// pause, this CPU is likely to reacquire the lock before
	// another CPU has even been given a chance to acquire it.
	asm volatile("pause");
f0104ac8:	f3 90                	pause  
		"movl %0, %%esp\n"
		"pushl $0\n"
		"pushl $0\n"
		"sti\n"
		"hlt\n"
	: : "a" (thiscpu->cpu_ts.ts_esp0));
f0104aca:	e8 d4 1a 00 00       	call   f01065a3 <cpunum>
f0104acf:	6b c0 74             	imul   $0x74,%eax,%eax

	// Release the big kernel lock as if we were "leaving" the kernel
	unlock_kernel();

	// Reset stack pointer, enable interrupts and then halt.
	asm volatile (
f0104ad2:	8b 80 30 40 20 f0    	mov    -0xfdfbfd0(%eax),%eax
f0104ad8:	bd 00 00 00 00       	mov    $0x0,%ebp
f0104add:	89 c4                	mov    %eax,%esp
f0104adf:	6a 00                	push   $0x0
f0104ae1:	6a 00                	push   $0x0
f0104ae3:	fb                   	sti    
f0104ae4:	f4                   	hlt    
		"pushl $0\n"
		"pushl $0\n"
		"sti\n"
		"hlt\n"
	: : "a" (thiscpu->cpu_ts.ts_esp0));
}
f0104ae5:	c9                   	leave  
f0104ae6:	c3                   	ret    

f0104ae7 <sched_yield>:
void sched_halt(void);

// Choose a user environment to run and run it.
void
sched_yield(void)
{
f0104ae7:	55                   	push   %ebp
f0104ae8:	89 e5                	mov    %esp,%ebp
f0104aea:	53                   	push   %ebx
f0104aeb:	83 ec 14             	sub    $0x14,%esp
	// another CPU (env_status == ENV_RUNNING). If there are
	// no runnable environments, simply drop through to the code
	// below to halt the cpu.

	// LAB 4: Your code here.
	int idx = curenv ? (curenv - envs + 1) % NENV : 0;
f0104aee:	e8 b0 1a 00 00       	call   f01065a3 <cpunum>
f0104af3:	6b c0 74             	imul   $0x74,%eax,%eax
f0104af6:	ba 00 00 00 00       	mov    $0x0,%edx
f0104afb:	83 b8 28 40 20 f0 00 	cmpl   $0x0,-0xfdfbfd8(%eax)
f0104b02:	74 32                	je     f0104b36 <sched_yield+0x4f>
f0104b04:	e8 9a 1a 00 00       	call   f01065a3 <cpunum>
f0104b09:	6b c0 74             	imul   $0x74,%eax,%eax
f0104b0c:	8b 90 28 40 20 f0    	mov    -0xfdfbfd8(%eax),%edx
f0104b12:	2b 15 4c 32 20 f0    	sub    0xf020324c,%edx
f0104b18:	c1 fa 02             	sar    $0x2,%edx
f0104b1b:	69 d2 df 7b ef bd    	imul   $0xbdef7bdf,%edx,%edx
f0104b21:	83 c2 01             	add    $0x1,%edx
f0104b24:	89 d0                	mov    %edx,%eax
f0104b26:	c1 f8 1f             	sar    $0x1f,%eax
f0104b29:	c1 e8 16             	shr    $0x16,%eax
f0104b2c:	01 c2                	add    %eax,%edx
f0104b2e:	81 e2 ff 03 00 00    	and    $0x3ff,%edx
f0104b34:	29 c2                	sub    %eax,%edx
	int cnt = 0;
	while (cnt < NENV) {
		if (envs[idx].env_status == ENV_RUNNABLE) {
f0104b36:	8b 1d 4c 32 20 f0    	mov    0xf020324c,%ebx
f0104b3c:	6b ca 7c             	imul   $0x7c,%edx,%ecx
f0104b3f:	01 d9                	add    %ebx,%ecx
f0104b41:	83 79 54 02          	cmpl   $0x2,0x54(%ecx)
f0104b45:	75 72                	jne    f0104bb9 <sched_yield+0xd2>
f0104b47:	eb 26                	jmp    f0104b6f <sched_yield+0x88>
f0104b49:	6b c8 7c             	imul   $0x7c,%eax,%ecx
f0104b4c:	01 d9                	add    %ebx,%ecx
f0104b4e:	83 79 54 02          	cmpl   $0x2,0x54(%ecx)
f0104b52:	74 1b                	je     f0104b6f <sched_yield+0x88>
			idle = envs + idx;
			break;
		}
		++cnt;
		idx = (idx + 1) % NENV;
f0104b54:	83 c0 01             	add    $0x1,%eax
f0104b57:	89 c1                	mov    %eax,%ecx
f0104b59:	c1 f9 1f             	sar    $0x1f,%ecx
f0104b5c:	c1 e9 16             	shr    $0x16,%ecx
f0104b5f:	01 c8                	add    %ecx,%eax
f0104b61:	25 ff 03 00 00       	and    $0x3ff,%eax
f0104b66:	29 c8                	sub    %ecx,%eax
	// below to halt the cpu.

	// LAB 4: Your code here.
	int idx = curenv ? (curenv - envs + 1) % NENV : 0;
	int cnt = 0;
	while (cnt < NENV) {
f0104b68:	83 ea 01             	sub    $0x1,%edx
f0104b6b:	75 dc                	jne    f0104b49 <sched_yield+0x62>
f0104b6d:	eb 04                	jmp    f0104b73 <sched_yield+0x8c>
		}
		++cnt;
		idx = (idx + 1) % NENV;
	}

	if (!idle && curenv && curenv->env_status == ENV_RUNNING) {
f0104b6f:	85 c9                	test   %ecx,%ecx
f0104b71:	75 37                	jne    f0104baa <sched_yield+0xc3>
f0104b73:	e8 2b 1a 00 00       	call   f01065a3 <cpunum>
f0104b78:	6b c0 74             	imul   $0x74,%eax,%eax
f0104b7b:	83 b8 28 40 20 f0 00 	cmpl   $0x0,-0xfdfbfd8(%eax)
f0104b82:	74 2e                	je     f0104bb2 <sched_yield+0xcb>
f0104b84:	e8 1a 1a 00 00       	call   f01065a3 <cpunum>
f0104b89:	6b c0 74             	imul   $0x74,%eax,%eax
f0104b8c:	8b 80 28 40 20 f0    	mov    -0xfdfbfd8(%eax),%eax
f0104b92:	83 78 54 03          	cmpl   $0x3,0x54(%eax)
f0104b96:	75 1a                	jne    f0104bb2 <sched_yield+0xcb>
		idle = curenv;
f0104b98:	e8 06 1a 00 00       	call   f01065a3 <cpunum>
f0104b9d:	6b c0 74             	imul   $0x74,%eax,%eax
f0104ba0:	8b 88 28 40 20 f0    	mov    -0xfdfbfd8(%eax),%ecx
	}

	if (idle) {
f0104ba6:	85 c9                	test   %ecx,%ecx
f0104ba8:	74 08                	je     f0104bb2 <sched_yield+0xcb>
		env_run(idle);
f0104baa:	89 0c 24             	mov    %ecx,(%esp)
f0104bad:	e8 89 f3 ff ff       	call   f0103f3b <env_run>
	}

	// sched_halt never returns
	sched_halt();
f0104bb2:	e8 39 fe ff ff       	call   f01049f0 <sched_halt>
f0104bb7:	eb 1f                	jmp    f0104bd8 <sched_yield+0xf1>
		if (envs[idx].env_status == ENV_RUNNABLE) {
			idle = envs + idx;
			break;
		}
		++cnt;
		idx = (idx + 1) % NENV;
f0104bb9:	83 c2 01             	add    $0x1,%edx
f0104bbc:	89 d1                	mov    %edx,%ecx
f0104bbe:	c1 f9 1f             	sar    $0x1f,%ecx
f0104bc1:	c1 e9 16             	shr    $0x16,%ecx
f0104bc4:	8d 04 0a             	lea    (%edx,%ecx,1),%eax
f0104bc7:	25 ff 03 00 00       	and    $0x3ff,%eax
f0104bcc:	29 c8                	sub    %ecx,%eax
f0104bce:	ba ff 03 00 00       	mov    $0x3ff,%edx
f0104bd3:	e9 71 ff ff ff       	jmp    f0104b49 <sched_yield+0x62>
		env_run(idle);
	}

	// sched_halt never returns
	sched_halt();
}
f0104bd8:	83 c4 14             	add    $0x14,%esp
f0104bdb:	5b                   	pop    %ebx
f0104bdc:	5d                   	pop    %ebp
f0104bdd:	c3                   	ret    
f0104bde:	66 90                	xchg   %ax,%ax

f0104be0 <check_perm>:
	e->env_pgfault_upcall = func;
	return 0;
}

// return 0 means ok, < 0 error
static int check_perm(int perm) {
f0104be0:	55                   	push   %ebp
f0104be1:	89 e5                	mov    %esp,%ebp
		 0,
		 0 
	};

	int i;
	for (i = 0; i < sizeof(perm_bit) / sizeof(int); ++i) {
f0104be3:	ba 00 00 00 00       	mov    $0x0,%edx
		switch (perm_bit[i]) {
f0104be8:	8b 0c 95 80 84 10 f0 	mov    -0xfef7b80(,%edx,4),%ecx
f0104bef:	83 f9 ff             	cmp    $0xffffffff,%ecx
f0104bf2:	74 0e                	je     f0104c02 <check_perm+0x22>
f0104bf4:	83 f9 01             	cmp    $0x1,%ecx
f0104bf7:	75 0e                	jne    f0104c07 <check_perm+0x27>
			case 1:
				if (!(perm & (1 << i))) {
f0104bf9:	0f a3 d0             	bt     %edx,%eax
f0104bfc:	72 09                	jb     f0104c07 <check_perm+0x27>
f0104bfe:	66 90                	xchg   %ax,%ax
f0104c00:	eb 10                	jmp    f0104c12 <check_perm+0x32>
					return -E_INVAL;
				}
				break;

			case -1:
				if (perm & (1 << i)) {
f0104c02:	0f a3 d0             	bt     %edx,%eax
f0104c05:	72 12                	jb     f0104c19 <check_perm+0x39>
		 0,
		 0 
	};

	int i;
	for (i = 0; i < sizeof(perm_bit) / sizeof(int); ++i) {
f0104c07:	83 c2 01             	add    $0x1,%edx
f0104c0a:	83 fa 0c             	cmp    $0xc,%edx
f0104c0d:	75 d9                	jne    f0104be8 <check_perm+0x8>
f0104c0f:	90                   	nop
f0104c10:	eb 0e                	jmp    f0104c20 <check_perm+0x40>
		switch (perm_bit[i]) {
			case 1:
				if (!(perm & (1 << i))) {
					return -E_INVAL;
f0104c12:	b8 fd ff ff ff       	mov    $0xfffffffd,%eax
f0104c17:	eb 0c                	jmp    f0104c25 <check_perm+0x45>
				}
				break;

			case -1:
				if (perm & (1 << i)) {
					return -E_INVAL;
f0104c19:	b8 fd ff ff ff       	mov    $0xfffffffd,%eax
f0104c1e:	eb 05                	jmp    f0104c25 <check_perm+0x45>
			default:
				break;
		}
	}

	return 0;
f0104c20:	b8 00 00 00 00       	mov    $0x0,%eax
}
f0104c25:	5d                   	pop    %ebp
f0104c26:	c3                   	ret    

f0104c27 <syscall>:
}

// Dispatches to the correct kernel function, passing the arguments.
int32_t
syscall(uint32_t syscallno, uint32_t a1, uint32_t a2, uint32_t a3, uint32_t a4, uint32_t a5)
{
f0104c27:	55                   	push   %ebp
f0104c28:	89 e5                	mov    %esp,%ebp
f0104c2a:	57                   	push   %edi
f0104c2b:	56                   	push   %esi
f0104c2c:	53                   	push   %ebx
f0104c2d:	83 ec 2c             	sub    $0x2c,%esp
f0104c30:	8b 45 08             	mov    0x8(%ebp),%eax
	// Call the function corresponding to the 'syscallno' parameter.
	// Return any appropriate return value.
	switch (syscallno) {
f0104c33:	83 f8 0d             	cmp    $0xd,%eax
f0104c36:	0f 87 75 05 00 00    	ja     f01051b1 <syscall+0x58a>
f0104c3c:	ff 24 85 40 84 10 f0 	jmp    *-0xfef7bc0(,%eax,4)
static void
sys_cputs(const char *s, size_t len)
{
	// Check that the user has permission to read memory [s, s+len).
	// Destroy the environment if not.
	user_mem_assert(curenv, s, len, PTE_P | PTE_U);
f0104c43:	e8 5b 19 00 00       	call   f01065a3 <cpunum>
f0104c48:	c7 44 24 0c 05 00 00 	movl   $0x5,0xc(%esp)
f0104c4f:	00 
f0104c50:	8b 7d 10             	mov    0x10(%ebp),%edi
f0104c53:	89 7c 24 08          	mov    %edi,0x8(%esp)
f0104c57:	8b 75 0c             	mov    0xc(%ebp),%esi
f0104c5a:	89 74 24 04          	mov    %esi,0x4(%esp)
f0104c5e:	6b c0 74             	imul   $0x74,%eax,%eax
f0104c61:	8b 80 28 40 20 f0    	mov    -0xfdfbfd8(%eax),%eax
f0104c67:	89 04 24             	mov    %eax,(%esp)
f0104c6a:	e8 90 eb ff ff       	call   f01037ff <user_mem_assert>

	// Print the string supplied by the user.
	cprintf("%.*s", len, s);
f0104c6f:	8b 45 0c             	mov    0xc(%ebp),%eax
f0104c72:	89 44 24 08          	mov    %eax,0x8(%esp)
f0104c76:	8b 45 10             	mov    0x10(%ebp),%eax
f0104c79:	89 44 24 04          	mov    %eax,0x4(%esp)
f0104c7d:	c7 04 24 ef 83 10 f0 	movl   $0xf01083ef,(%esp)
f0104c84:	e8 dc f4 ff ff       	call   f0104165 <cprintf>
	// Call the function corresponding to the 'syscallno' parameter.
	// Return any appropriate return value.
	switch (syscallno) {
		case SYS_cputs:
			sys_cputs((const char*)a1, a2);
			return 0;
f0104c89:	b8 00 00 00 00       	mov    $0x0,%eax
f0104c8e:	e9 2a 05 00 00       	jmp    f01051bd <syscall+0x596>
// Read a character from the system console without blocking.
// Returns the character, or 0 if there is no input waiting.
static int
sys_cgetc(void)
{
	return cons_getc();
f0104c93:	e8 e8 b9 ff ff       	call   f0100680 <cons_getc>
		case SYS_cputs:
			sys_cputs((const char*)a1, a2);
			return 0;

		case SYS_cgetc:
			return sys_cgetc();
f0104c98:	e9 20 05 00 00       	jmp    f01051bd <syscall+0x596>

// Returns the current environment's envid.
static envid_t
sys_getenvid(void)
{
	return curenv->env_id;
f0104c9d:	8d 76 00             	lea    0x0(%esi),%esi
f0104ca0:	e8 fe 18 00 00       	call   f01065a3 <cpunum>
f0104ca5:	6b c0 74             	imul   $0x74,%eax,%eax
f0104ca8:	8b 80 28 40 20 f0    	mov    -0xfdfbfd8(%eax),%eax
f0104cae:	8b 40 48             	mov    0x48(%eax),%eax

		case SYS_cgetc:
			return sys_cgetc();

		case SYS_getenvid:
			return sys_getenvid();
f0104cb1:	e9 07 05 00 00       	jmp    f01051bd <syscall+0x596>
sys_env_destroy(envid_t envid)
{
	int r;
	struct Env *e;

	if ((r = envid2env(envid, &e, 1)) < 0)
f0104cb6:	c7 44 24 08 01 00 00 	movl   $0x1,0x8(%esp)
f0104cbd:	00 
f0104cbe:	8d 45 e4             	lea    -0x1c(%ebp),%eax
f0104cc1:	89 44 24 04          	mov    %eax,0x4(%esp)
f0104cc5:	8b 45 0c             	mov    0xc(%ebp),%eax
f0104cc8:	89 04 24             	mov    %eax,(%esp)
f0104ccb:	e8 04 ec ff ff       	call   f01038d4 <envid2env>
		return r;
f0104cd0:	89 c2                	mov    %eax,%edx
sys_env_destroy(envid_t envid)
{
	int r;
	struct Env *e;

	if ((r = envid2env(envid, &e, 1)) < 0)
f0104cd2:	85 c0                	test   %eax,%eax
f0104cd4:	78 6e                	js     f0104d44 <syscall+0x11d>
		return r;
	if (e == curenv) {
f0104cd6:	e8 c8 18 00 00       	call   f01065a3 <cpunum>
f0104cdb:	8b 55 e4             	mov    -0x1c(%ebp),%edx
f0104cde:	6b c0 74             	imul   $0x74,%eax,%eax
f0104ce1:	39 90 28 40 20 f0    	cmp    %edx,-0xfdfbfd8(%eax)
f0104ce7:	75 23                	jne    f0104d0c <syscall+0xe5>
		cprintf("[%08x] exiting gracefully\n", curenv->env_id);
f0104ce9:	e8 b5 18 00 00       	call   f01065a3 <cpunum>
f0104cee:	6b c0 74             	imul   $0x74,%eax,%eax
f0104cf1:	8b 80 28 40 20 f0    	mov    -0xfdfbfd8(%eax),%eax
f0104cf7:	8b 40 48             	mov    0x48(%eax),%eax
f0104cfa:	89 44 24 04          	mov    %eax,0x4(%esp)
f0104cfe:	c7 04 24 f4 83 10 f0 	movl   $0xf01083f4,(%esp)
f0104d05:	e8 5b f4 ff ff       	call   f0104165 <cprintf>
f0104d0a:	eb 28                	jmp    f0104d34 <syscall+0x10d>
	} else {
		cprintf("[%08x] destroying %08x\n", curenv->env_id, e->env_id);
f0104d0c:	8b 5a 48             	mov    0x48(%edx),%ebx
f0104d0f:	e8 8f 18 00 00       	call   f01065a3 <cpunum>
f0104d14:	89 5c 24 08          	mov    %ebx,0x8(%esp)
f0104d18:	6b c0 74             	imul   $0x74,%eax,%eax
f0104d1b:	8b 80 28 40 20 f0    	mov    -0xfdfbfd8(%eax),%eax
f0104d21:	8b 40 48             	mov    0x48(%eax),%eax
f0104d24:	89 44 24 04          	mov    %eax,0x4(%esp)
f0104d28:	c7 04 24 0f 84 10 f0 	movl   $0xf010840f,(%esp)
f0104d2f:	e8 31 f4 ff ff       	call   f0104165 <cprintf>
	}
	env_destroy(e);
f0104d34:	8b 45 e4             	mov    -0x1c(%ebp),%eax
f0104d37:	89 04 24             	mov    %eax,(%esp)
f0104d3a:	e8 5b f1 ff ff       	call   f0103e9a <env_destroy>
	return 0;
f0104d3f:	ba 00 00 00 00       	mov    $0x0,%edx

		case SYS_getenvid:
			return sys_getenvid();

		case SYS_env_destroy:
			return sys_env_destroy(a1);
f0104d44:	89 d0                	mov    %edx,%eax
f0104d46:	e9 72 04 00 00       	jmp    f01051bd <syscall+0x596>

// Deschedule current environment and pick a different one to run.
static void
sys_yield(void)
{
	sched_yield();
f0104d4b:	e8 97 fd ff ff       	call   f0104ae7 <sched_yield>
	// status is set to ENV_NOT_RUNNABLE, and the register set is copied
	// from the current environment -- but tweaked so sys_exofork
	// will appear to return 0.
	// LAB 4: Your code here.
	struct Env* child_env;
	int err_code = env_alloc(&child_env, curenv->env_id);
f0104d50:	e8 4e 18 00 00       	call   f01065a3 <cpunum>
f0104d55:	6b c0 74             	imul   $0x74,%eax,%eax
f0104d58:	8b 80 28 40 20 f0    	mov    -0xfdfbfd8(%eax),%eax
f0104d5e:	8b 40 48             	mov    0x48(%eax),%eax
f0104d61:	89 44 24 04          	mov    %eax,0x4(%esp)
f0104d65:	8d 45 e4             	lea    -0x1c(%ebp),%eax
f0104d68:	89 04 24             	mov    %eax,(%esp)
f0104d6b:	e8 a1 ec ff ff       	call   f0103a11 <env_alloc>
	if (err_code < 0) {
		return err_code;
f0104d70:	89 c2                	mov    %eax,%edx
	// from the current environment -- but tweaked so sys_exofork
	// will appear to return 0.
	// LAB 4: Your code here.
	struct Env* child_env;
	int err_code = env_alloc(&child_env, curenv->env_id);
	if (err_code < 0) {
f0104d72:	85 c0                	test   %eax,%eax
f0104d74:	78 2e                	js     f0104da4 <syscall+0x17d>
		return err_code;
	}
	child_env->env_status = ENV_NOT_RUNNABLE;
f0104d76:	8b 5d e4             	mov    -0x1c(%ebp),%ebx
f0104d79:	c7 43 54 04 00 00 00 	movl   $0x4,0x54(%ebx)
	child_env->env_tf = curenv->env_tf;
f0104d80:	e8 1e 18 00 00       	call   f01065a3 <cpunum>
f0104d85:	6b c0 74             	imul   $0x74,%eax,%eax
f0104d88:	8b b0 28 40 20 f0    	mov    -0xfdfbfd8(%eax),%esi
f0104d8e:	b9 11 00 00 00       	mov    $0x11,%ecx
f0104d93:	89 df                	mov    %ebx,%edi
f0104d95:	f3 a5                	rep movsl %ds:(%esi),%es:(%edi)
	// when the child be scheded, it will restart from the trapframe
	// so we set the eax = 0, then its return value will be 0
	child_env->env_tf.tf_regs.reg_eax = 0; 
f0104d97:	8b 45 e4             	mov    -0x1c(%ebp),%eax
f0104d9a:	c7 40 1c 00 00 00 00 	movl   $0x0,0x1c(%eax)
	return child_env->env_id;
f0104da1:	8b 50 48             	mov    0x48(%eax),%edx

		case SYS_yield:
			sys_yield();

		case SYS_exofork:
			return sys_exofork();
f0104da4:	89 d0                	mov    %edx,%eax
f0104da6:	e9 12 04 00 00       	jmp    f01051bd <syscall+0x596>
//	-E_NO_MEM if there's no memory to allocate the new page,
//		or to allocate any necessary page tables.
static int
sys_page_alloc(envid_t envid, void *va, int perm)
{
	if (((uint32_t)va) >= UTOP) {
f0104dab:	81 7d 10 ff ff bf ee 	cmpl   $0xeebfffff,0x10(%ebp)
f0104db2:	77 75                	ja     f0104e29 <syscall+0x202>
		return -E_INVAL;
	}

	if (check_perm(perm) < 0) {
f0104db4:	8b 45 14             	mov    0x14(%ebp),%eax
f0104db7:	e8 24 fe ff ff       	call   f0104be0 <check_perm>
f0104dbc:	85 c0                	test   %eax,%eax
f0104dbe:	78 70                	js     f0104e30 <syscall+0x209>
		return -E_INVAL;
	}

	struct PageInfo* new_page = page_alloc(1);
f0104dc0:	c7 04 24 01 00 00 00 	movl   $0x1,(%esp)
f0104dc7:	e8 62 c4 ff ff       	call   f010122e <page_alloc>
f0104dcc:	89 c3                	mov    %eax,%ebx
	if (!new_page) {
f0104dce:	85 c0                	test   %eax,%eax
f0104dd0:	74 65                	je     f0104e37 <syscall+0x210>
		return -E_NO_MEM;
	}
	
	struct Env* e;
	int err_code = envid2env(envid, &e, 1);
f0104dd2:	c7 44 24 08 01 00 00 	movl   $0x1,0x8(%esp)
f0104dd9:	00 
f0104dda:	8d 45 e4             	lea    -0x1c(%ebp),%eax
f0104ddd:	89 44 24 04          	mov    %eax,0x4(%esp)
f0104de1:	8b 45 0c             	mov    0xc(%ebp),%eax
f0104de4:	89 04 24             	mov    %eax,(%esp)
f0104de7:	e8 e8 ea ff ff       	call   f01038d4 <envid2env>
	if (err_code < 0) {
		return err_code;
f0104dec:	89 c1                	mov    %eax,%ecx
		return -E_NO_MEM;
	}
	
	struct Env* e;
	int err_code = envid2env(envid, &e, 1);
	if (err_code < 0) {
f0104dee:	85 c0                	test   %eax,%eax
f0104df0:	78 4a                	js     f0104e3c <syscall+0x215>
		return err_code;
	}

	err_code = page_insert(e->env_pgdir, new_page, va, perm);
f0104df2:	8b 45 14             	mov    0x14(%ebp),%eax
f0104df5:	89 44 24 0c          	mov    %eax,0xc(%esp)
f0104df9:	8b 45 10             	mov    0x10(%ebp),%eax
f0104dfc:	89 44 24 08          	mov    %eax,0x8(%esp)
f0104e00:	89 5c 24 04          	mov    %ebx,0x4(%esp)
f0104e04:	8b 45 e4             	mov    -0x1c(%ebp),%eax
f0104e07:	8b 40 60             	mov    0x60(%eax),%eax
f0104e0a:	89 04 24             	mov    %eax,(%esp)
f0104e0d:	e8 7c c7 ff ff       	call   f010158e <page_insert>
f0104e12:	89 c6                	mov    %eax,%esi
	if (err_code < 0) {
		page_free(new_page);
		return err_code;
	}

	return 0;
f0104e14:	b9 00 00 00 00       	mov    $0x0,%ecx
	if (err_code < 0) {
		return err_code;
	}

	err_code = page_insert(e->env_pgdir, new_page, va, perm);
	if (err_code < 0) {
f0104e19:	85 c0                	test   %eax,%eax
f0104e1b:	79 1f                	jns    f0104e3c <syscall+0x215>
		page_free(new_page);
f0104e1d:	89 1c 24             	mov    %ebx,(%esp)
f0104e20:	e8 8e c4 ff ff       	call   f01012b3 <page_free>
		return err_code;
f0104e25:	89 f1                	mov    %esi,%ecx
f0104e27:	eb 13                	jmp    f0104e3c <syscall+0x215>
//		or to allocate any necessary page tables.
static int
sys_page_alloc(envid_t envid, void *va, int perm)
{
	if (((uint32_t)va) >= UTOP) {
		return -E_INVAL;
f0104e29:	b9 fd ff ff ff       	mov    $0xfffffffd,%ecx
f0104e2e:	eb 0c                	jmp    f0104e3c <syscall+0x215>
	}

	if (check_perm(perm) < 0) {
		return -E_INVAL;
f0104e30:	b9 fd ff ff ff       	mov    $0xfffffffd,%ecx
f0104e35:	eb 05                	jmp    f0104e3c <syscall+0x215>
	}

	struct PageInfo* new_page = page_alloc(1);
	if (!new_page) {
		return -E_NO_MEM;
f0104e37:	b9 fc ff ff ff       	mov    $0xfffffffc,%ecx

		case SYS_exofork:
			return sys_exofork();

		case SYS_page_alloc:
			return sys_page_alloc(a1, (void*)a2, a3);
f0104e3c:	89 c8                	mov    %ecx,%eax
f0104e3e:	e9 7a 03 00 00       	jmp    f01051bd <syscall+0x596>
sys_page_map(envid_t srcenvid, void *srcva,
	     envid_t dstenvid, void *dstva, int perm)
{
	struct Env* src_e;
	struct Env* dst_e;
	int err_code = envid2env(srcenvid, &src_e, 1);
f0104e43:	c7 44 24 08 01 00 00 	movl   $0x1,0x8(%esp)
f0104e4a:	00 
f0104e4b:	8d 45 dc             	lea    -0x24(%ebp),%eax
f0104e4e:	89 44 24 04          	mov    %eax,0x4(%esp)
f0104e52:	8b 45 0c             	mov    0xc(%ebp),%eax
f0104e55:	89 04 24             	mov    %eax,(%esp)
f0104e58:	e8 77 ea ff ff       	call   f01038d4 <envid2env>
	if (err_code < 0) {
		return err_code;
f0104e5d:	89 c2                	mov    %eax,%edx
	     envid_t dstenvid, void *dstva, int perm)
{
	struct Env* src_e;
	struct Env* dst_e;
	int err_code = envid2env(srcenvid, &src_e, 1);
	if (err_code < 0) {
f0104e5f:	85 c0                	test   %eax,%eax
f0104e61:	0f 88 d2 00 00 00    	js     f0104f39 <syscall+0x312>
		return err_code;
	}

	err_code = envid2env(dstenvid, &dst_e, 1);
f0104e67:	c7 44 24 08 01 00 00 	movl   $0x1,0x8(%esp)
f0104e6e:	00 
f0104e6f:	8d 45 e0             	lea    -0x20(%ebp),%eax
f0104e72:	89 44 24 04          	mov    %eax,0x4(%esp)
f0104e76:	8b 45 14             	mov    0x14(%ebp),%eax
f0104e79:	89 04 24             	mov    %eax,(%esp)
f0104e7c:	e8 53 ea ff ff       	call   f01038d4 <envid2env>
	if (err_code < 0) {
f0104e81:	85 c0                	test   %eax,%eax
f0104e83:	0f 88 8b 00 00 00    	js     f0104f14 <syscall+0x2ed>
		return err_code;
	}

	if (((uint32_t)srcva) >= UTOP || ((uint32_t)dstva) >= UTOP) {
f0104e89:	81 7d 10 ff ff bf ee 	cmpl   $0xeebfffff,0x10(%ebp)
f0104e90:	0f 87 82 00 00 00    	ja     f0104f18 <syscall+0x2f1>
f0104e96:	81 7d 18 ff ff bf ee 	cmpl   $0xeebfffff,0x18(%ebp)
f0104e9d:	77 79                	ja     f0104f18 <syscall+0x2f1>
f0104e9f:	8b 45 10             	mov    0x10(%ebp),%eax
f0104ea2:	0b 45 18             	or     0x18(%ebp),%eax
		return -E_INVAL;
	}

	if (!IS_PAGE_ALIGNED((uint32_t)srcva) || !IS_PAGE_ALIGNED((uint32_t)dstva)) {
f0104ea5:	a9 ff 0f 00 00       	test   $0xfff,%eax
f0104eaa:	75 73                	jne    f0104f1f <syscall+0x2f8>
		return -E_INVAL;
	}

	// find the page corresponding to srcva in src_e
	pte_t* src_pte;
	struct PageInfo* src_page = page_lookup(src_e->env_pgdir, srcva, &src_pte);
f0104eac:	8d 45 e4             	lea    -0x1c(%ebp),%eax
f0104eaf:	89 44 24 08          	mov    %eax,0x8(%esp)
f0104eb3:	8b 45 10             	mov    0x10(%ebp),%eax
f0104eb6:	89 44 24 04          	mov    %eax,0x4(%esp)
f0104eba:	8b 45 dc             	mov    -0x24(%ebp),%eax
f0104ebd:	8b 40 60             	mov    0x60(%eax),%eax
f0104ec0:	89 04 24             	mov    %eax,(%esp)
f0104ec3:	e8 f2 c5 ff ff       	call   f01014ba <page_lookup>
f0104ec8:	89 c3                	mov    %eax,%ebx
	if (!src_page) {
f0104eca:	85 c0                	test   %eax,%eax
f0104ecc:	74 58                	je     f0104f26 <syscall+0x2ff>
		return -E_INVAL;
	}

	if (check_perm(perm) < 0) {
f0104ece:	8b 45 1c             	mov    0x1c(%ebp),%eax
f0104ed1:	e8 0a fd ff ff       	call   f0104be0 <check_perm>
f0104ed6:	85 c0                	test   %eax,%eax
f0104ed8:	78 53                	js     f0104f2d <syscall+0x306>
		return -E_INVAL;
	}
	
	// the page is not writable but set write permission	
	if (!(*src_pte & PTE_W) && (perm & PTE_W)) {
f0104eda:	8b 45 e4             	mov    -0x1c(%ebp),%eax
f0104edd:	f6 00 02             	testb  $0x2,(%eax)
f0104ee0:	75 06                	jne    f0104ee8 <syscall+0x2c1>
f0104ee2:	f6 45 1c 02          	testb  $0x2,0x1c(%ebp)
f0104ee6:	75 4c                	jne    f0104f34 <syscall+0x30d>
		return -E_INVAL;
	}

	// map
	err_code = page_insert(dst_e->env_pgdir, src_page, dstva, perm);
f0104ee8:	8b 45 1c             	mov    0x1c(%ebp),%eax
f0104eeb:	89 44 24 0c          	mov    %eax,0xc(%esp)
f0104eef:	8b 45 18             	mov    0x18(%ebp),%eax
f0104ef2:	89 44 24 08          	mov    %eax,0x8(%esp)
f0104ef6:	89 5c 24 04          	mov    %ebx,0x4(%esp)
f0104efa:	8b 45 e0             	mov    -0x20(%ebp),%eax
f0104efd:	8b 40 60             	mov    0x60(%eax),%eax
f0104f00:	89 04 24             	mov    %eax,(%esp)
f0104f03:	e8 86 c6 ff ff       	call   f010158e <page_insert>
f0104f08:	85 c0                	test   %eax,%eax
f0104f0a:	ba 00 00 00 00       	mov    $0x0,%edx
f0104f0f:	0f 4e d0             	cmovle %eax,%edx
f0104f12:	eb 25                	jmp    f0104f39 <syscall+0x312>
		return err_code;
	}

	err_code = envid2env(dstenvid, &dst_e, 1);
	if (err_code < 0) {
		return err_code;
f0104f14:	89 c2                	mov    %eax,%edx
f0104f16:	eb 21                	jmp    f0104f39 <syscall+0x312>
	}

	if (((uint32_t)srcva) >= UTOP || ((uint32_t)dstva) >= UTOP) {
		return -E_INVAL;
f0104f18:	ba fd ff ff ff       	mov    $0xfffffffd,%edx
f0104f1d:	eb 1a                	jmp    f0104f39 <syscall+0x312>
	}

	if (!IS_PAGE_ALIGNED((uint32_t)srcva) || !IS_PAGE_ALIGNED((uint32_t)dstva)) {
		return -E_INVAL;
f0104f1f:	ba fd ff ff ff       	mov    $0xfffffffd,%edx
f0104f24:	eb 13                	jmp    f0104f39 <syscall+0x312>

	// find the page corresponding to srcva in src_e
	pte_t* src_pte;
	struct PageInfo* src_page = page_lookup(src_e->env_pgdir, srcva, &src_pte);
	if (!src_page) {
		return -E_INVAL;
f0104f26:	ba fd ff ff ff       	mov    $0xfffffffd,%edx
f0104f2b:	eb 0c                	jmp    f0104f39 <syscall+0x312>
	}

	if (check_perm(perm) < 0) {
		return -E_INVAL;
f0104f2d:	ba fd ff ff ff       	mov    $0xfffffffd,%edx
f0104f32:	eb 05                	jmp    f0104f39 <syscall+0x312>
	}
	
	// the page is not writable but set write permission	
	if (!(*src_pte & PTE_W) && (perm & PTE_W)) {
		return -E_INVAL;
f0104f34:	ba fd ff ff ff       	mov    $0xfffffffd,%edx

		case SYS_page_alloc:
			return sys_page_alloc(a1, (void*)a2, a3);

		case SYS_page_map:
			return sys_page_map(a1, (void*)a2, a3, (void*)a4, a5);
f0104f39:	89 d0                	mov    %edx,%eax
f0104f3b:	e9 7d 02 00 00       	jmp    f01051bd <syscall+0x596>
//	-E_INVAL if va >= UTOP, or va is not page-aligned.
static int
sys_page_unmap(envid_t envid, void *va)
{
	struct Env* e;
	int err_code = envid2env(envid, &e, 1);
f0104f40:	c7 44 24 08 01 00 00 	movl   $0x1,0x8(%esp)
f0104f47:	00 
f0104f48:	8d 45 e4             	lea    -0x1c(%ebp),%eax
f0104f4b:	89 44 24 04          	mov    %eax,0x4(%esp)
f0104f4f:	8b 45 0c             	mov    0xc(%ebp),%eax
f0104f52:	89 04 24             	mov    %eax,(%esp)
f0104f55:	e8 7a e9 ff ff       	call   f01038d4 <envid2env>
	if (err_code < 0) {
f0104f5a:	85 c0                	test   %eax,%eax
f0104f5c:	0f 88 5b 02 00 00    	js     f01051bd <syscall+0x596>
		return err_code;
	}

	if (((uint32_t)va) >= UTOP) {
f0104f62:	81 7d 10 ff ff bf ee 	cmpl   $0xeebfffff,0x10(%ebp)
f0104f69:	77 28                	ja     f0104f93 <syscall+0x36c>
		return -E_INVAL;
	}

	if (!IS_PAGE_ALIGNED((uint32_t)va)) {
f0104f6b:	f7 45 10 ff 0f 00 00 	testl  $0xfff,0x10(%ebp)
f0104f72:	75 29                	jne    f0104f9d <syscall+0x376>
		return -E_INVAL;
	}

	page_remove(e->env_pgdir, va);
f0104f74:	8b 45 10             	mov    0x10(%ebp),%eax
f0104f77:	89 44 24 04          	mov    %eax,0x4(%esp)
f0104f7b:	8b 45 e4             	mov    -0x1c(%ebp),%eax
f0104f7e:	8b 40 60             	mov    0x60(%eax),%eax
f0104f81:	89 04 24             	mov    %eax,(%esp)
f0104f84:	e8 bc c5 ff ff       	call   f0101545 <page_remove>

	return 0;
f0104f89:	b8 00 00 00 00       	mov    $0x0,%eax
f0104f8e:	e9 2a 02 00 00       	jmp    f01051bd <syscall+0x596>
	if (err_code < 0) {
		return err_code;
	}

	if (((uint32_t)va) >= UTOP) {
		return -E_INVAL;
f0104f93:	b8 fd ff ff ff       	mov    $0xfffffffd,%eax
f0104f98:	e9 20 02 00 00       	jmp    f01051bd <syscall+0x596>
	}

	if (!IS_PAGE_ALIGNED((uint32_t)va)) {
		return -E_INVAL;
f0104f9d:	b8 fd ff ff ff       	mov    $0xfffffffd,%eax

		case SYS_page_map:
			return sys_page_map(a1, (void*)a2, a3, (void*)a4, a5);

		case SYS_page_unmap:
			return sys_page_unmap(a1, (void*)a2);
f0104fa2:	e9 16 02 00 00       	jmp    f01051bd <syscall+0x596>
	// envid to a struct Env.
	// You should set envid2env's third argument to 1, which will
	// check whether the current environment has permission to set
	// envid's status.

	if (status != ENV_RUNNABLE && status != ENV_NOT_RUNNABLE) {
f0104fa7:	83 7d 10 04          	cmpl   $0x4,0x10(%ebp)
f0104fab:	74 06                	je     f0104fb3 <syscall+0x38c>
f0104fad:	83 7d 10 02          	cmpl   $0x2,0x10(%ebp)
f0104fb1:	75 35                	jne    f0104fe8 <syscall+0x3c1>
		return -E_INVAL;
	}

	struct Env* e;
	int err_code = envid2env(envid, &e, 1);
f0104fb3:	c7 44 24 08 01 00 00 	movl   $0x1,0x8(%esp)
f0104fba:	00 
f0104fbb:	8d 45 e4             	lea    -0x1c(%ebp),%eax
f0104fbe:	89 44 24 04          	mov    %eax,0x4(%esp)
f0104fc2:	8b 45 0c             	mov    0xc(%ebp),%eax
f0104fc5:	89 04 24             	mov    %eax,(%esp)
f0104fc8:	e8 07 e9 ff ff       	call   f01038d4 <envid2env>
	if (err_code < 0) {
f0104fcd:	85 c0                	test   %eax,%eax
f0104fcf:	0f 88 e8 01 00 00    	js     f01051bd <syscall+0x596>
		return err_code;
	}

	e->env_status = status;
f0104fd5:	8b 45 e4             	mov    -0x1c(%ebp),%eax
f0104fd8:	8b 4d 10             	mov    0x10(%ebp),%ecx
f0104fdb:	89 48 54             	mov    %ecx,0x54(%eax)
	return 0;
f0104fde:	b8 00 00 00 00       	mov    $0x0,%eax
f0104fe3:	e9 d5 01 00 00       	jmp    f01051bd <syscall+0x596>
	// You should set envid2env's third argument to 1, which will
	// check whether the current environment has permission to set
	// envid's status.

	if (status != ENV_RUNNABLE && status != ENV_NOT_RUNNABLE) {
		return -E_INVAL;
f0104fe8:	b8 fd ff ff ff       	mov    $0xfffffffd,%eax
f0104fed:	e9 cb 01 00 00       	jmp    f01051bd <syscall+0x596>
//		or the caller doesn't have permission to change envid.
static int
sys_env_set_pgfault_upcall(envid_t envid, void *func)
{
	struct Env* e;
	int err_code = envid2env(envid, &e, 1);
f0104ff2:	c7 44 24 08 01 00 00 	movl   $0x1,0x8(%esp)
f0104ff9:	00 
f0104ffa:	8d 45 e4             	lea    -0x1c(%ebp),%eax
f0104ffd:	89 44 24 04          	mov    %eax,0x4(%esp)
f0105001:	8b 45 0c             	mov    0xc(%ebp),%eax
f0105004:	89 04 24             	mov    %eax,(%esp)
f0105007:	e8 c8 e8 ff ff       	call   f01038d4 <envid2env>
	if (err_code < 0) {
f010500c:	85 c0                	test   %eax,%eax
f010500e:	0f 88 a9 01 00 00    	js     f01051bd <syscall+0x596>
		return err_code;
	}
	e->env_pgfault_upcall = func;
f0105014:	8b 45 e4             	mov    -0x1c(%ebp),%eax
f0105017:	8b 7d 10             	mov    0x10(%ebp),%edi
f010501a:	89 78 64             	mov    %edi,0x64(%eax)
	return 0;
f010501d:	b8 00 00 00 00       	mov    $0x0,%eax
f0105022:	e9 96 01 00 00       	jmp    f01051bd <syscall+0x596>
{
	// LAB 4: Your code here.
	int err_code;
	struct Env* target_e;

	if ((err_code = envid2env(envid, &target_e, 0)) < 0) {
f0105027:	c7 44 24 08 00 00 00 	movl   $0x0,0x8(%esp)
f010502e:	00 
f010502f:	8d 45 e0             	lea    -0x20(%ebp),%eax
f0105032:	89 44 24 04          	mov    %eax,0x4(%esp)
f0105036:	8b 45 0c             	mov    0xc(%ebp),%eax
f0105039:	89 04 24             	mov    %eax,(%esp)
f010503c:	e8 93 e8 ff ff       	call   f01038d4 <envid2env>
f0105041:	85 c0                	test   %eax,%eax
f0105043:	0f 88 11 01 00 00    	js     f010515a <syscall+0x533>
		return -E_BAD_ENV;
	}

	if (!target_e->env_ipc_recving) {
f0105049:	8b 45 e0             	mov    -0x20(%ebp),%eax
f010504c:	80 78 68 00          	cmpb   $0x0,0x68(%eax)
f0105050:	0f 84 0b 01 00 00    	je     f0105161 <syscall+0x53a>
		return -E_IPC_NOT_RECV;
	}


	if (((uint32_t)srcva) < UTOP &&
f0105056:	81 7d 14 ff ff bf ee 	cmpl   $0xeebfffff,0x14(%ebp)
f010505d:	0f 87 b8 00 00 00    	ja     f010511b <syscall+0x4f4>
f0105063:	81 78 6c ff ff bf ee 	cmpl   $0xeebfffff,0x6c(%eax)
f010506a:	0f 87 ab 00 00 00    	ja     f010511b <syscall+0x4f4>
			((uint32_t)target_e->env_ipc_dstva) < UTOP) {

		if (!IS_PAGE_ALIGNED((uint32_t)srcva)) {
			return -E_INVAL;
f0105070:	b8 fd ff ff ff       	mov    $0xfffffffd,%eax


	if (((uint32_t)srcva) < UTOP &&
			((uint32_t)target_e->env_ipc_dstva) < UTOP) {

		if (!IS_PAGE_ALIGNED((uint32_t)srcva)) {
f0105075:	f7 45 14 ff 0f 00 00 	testl  $0xfff,0x14(%ebp)
f010507c:	0f 85 3b 01 00 00    	jne    f01051bd <syscall+0x596>
			return -E_INVAL;
		}

		if (check_perm(perm) < 0) {
f0105082:	8b 45 18             	mov    0x18(%ebp),%eax
f0105085:	e8 56 fb ff ff       	call   f0104be0 <check_perm>
f010508a:	89 c2                	mov    %eax,%edx
			return -E_INVAL;
f010508c:	b8 fd ff ff ff       	mov    $0xfffffffd,%eax

		if (!IS_PAGE_ALIGNED((uint32_t)srcva)) {
			return -E_INVAL;
		}

		if (check_perm(perm) < 0) {
f0105091:	85 d2                	test   %edx,%edx
f0105093:	0f 88 24 01 00 00    	js     f01051bd <syscall+0x596>
			return -E_INVAL;
		}

		struct PageInfo* src_page = NULL;
		pte_t* pte = NULL;
f0105099:	c7 45 e4 00 00 00 00 	movl   $0x0,-0x1c(%ebp)
		if (!(src_page = page_lookup(curenv->env_pgdir, srcva, &pte))) {
f01050a0:	e8 fe 14 00 00       	call   f01065a3 <cpunum>
f01050a5:	8d 55 e4             	lea    -0x1c(%ebp),%edx
f01050a8:	89 54 24 08          	mov    %edx,0x8(%esp)
f01050ac:	8b 75 14             	mov    0x14(%ebp),%esi
f01050af:	89 74 24 04          	mov    %esi,0x4(%esp)
f01050b3:	6b c0 74             	imul   $0x74,%eax,%eax
f01050b6:	8b 80 28 40 20 f0    	mov    -0xfdfbfd8(%eax),%eax
f01050bc:	8b 40 60             	mov    0x60(%eax),%eax
f01050bf:	89 04 24             	mov    %eax,(%esp)
f01050c2:	e8 f3 c3 ff ff       	call   f01014ba <page_lookup>
f01050c7:	89 c2                	mov    %eax,%edx
f01050c9:	85 c0                	test   %eax,%eax
f01050cb:	74 44                	je     f0105111 <syscall+0x4ea>
			return -E_INVAL;
		}

		if ((perm & PTE_W) && !(*pte & PTE_W)) {
f01050cd:	f6 45 18 02          	testb  $0x2,0x18(%ebp)
f01050d1:	74 11                	je     f01050e4 <syscall+0x4bd>
			return -E_INVAL;
f01050d3:	b8 fd ff ff ff       	mov    $0xfffffffd,%eax
		pte_t* pte = NULL;
		if (!(src_page = page_lookup(curenv->env_pgdir, srcva, &pte))) {
			return -E_INVAL;
		}

		if ((perm & PTE_W) && !(*pte & PTE_W)) {
f01050d8:	8b 4d e4             	mov    -0x1c(%ebp),%ecx
f01050db:	f6 01 02             	testb  $0x2,(%ecx)
f01050de:	0f 84 d9 00 00 00    	je     f01051bd <syscall+0x596>
			return -E_INVAL;
		}

		// try page mapping
		if (target_e->env_ipc_dstva) {
f01050e4:	8b 45 e0             	mov    -0x20(%ebp),%eax
f01050e7:	8b 48 6c             	mov    0x6c(%eax),%ecx
f01050ea:	85 c9                	test   %ecx,%ecx
f01050ec:	74 2d                	je     f010511b <syscall+0x4f4>
			// map
			if ((err_code = page_insert(target_e->env_pgdir,
f01050ee:	8b 75 18             	mov    0x18(%ebp),%esi
f01050f1:	89 74 24 0c          	mov    %esi,0xc(%esp)
f01050f5:	89 4c 24 08          	mov    %ecx,0x8(%esp)
f01050f9:	89 54 24 04          	mov    %edx,0x4(%esp)
f01050fd:	8b 40 60             	mov    0x60(%eax),%eax
f0105100:	89 04 24             	mov    %eax,(%esp)
f0105103:	e8 86 c4 ff ff       	call   f010158e <page_insert>
f0105108:	85 c0                	test   %eax,%eax
f010510a:	79 0f                	jns    f010511b <syscall+0x4f4>
f010510c:	e9 ac 00 00 00       	jmp    f01051bd <syscall+0x596>
		}

		struct PageInfo* src_page = NULL;
		pte_t* pte = NULL;
		if (!(src_page = page_lookup(curenv->env_pgdir, srcva, &pte))) {
			return -E_INVAL;
f0105111:	b8 fd ff ff ff       	mov    $0xfffffffd,%eax
f0105116:	e9 a2 00 00 00       	jmp    f01051bd <syscall+0x596>
			}
		}
	}

	// update
	target_e->env_ipc_value = value;
f010511b:	8b 5d e0             	mov    -0x20(%ebp),%ebx
f010511e:	8b 45 10             	mov    0x10(%ebp),%eax
f0105121:	89 43 70             	mov    %eax,0x70(%ebx)
	target_e->env_ipc_from = curenv->env_id;
f0105124:	e8 7a 14 00 00       	call   f01065a3 <cpunum>
f0105129:	6b c0 74             	imul   $0x74,%eax,%eax
f010512c:	8b 80 28 40 20 f0    	mov    -0xfdfbfd8(%eax),%eax
f0105132:	8b 40 48             	mov    0x48(%eax),%eax
f0105135:	89 43 74             	mov    %eax,0x74(%ebx)
	target_e->env_ipc_recving = 0;
f0105138:	8b 45 e0             	mov    -0x20(%ebp),%eax
f010513b:	c6 40 68 00          	movb   $0x0,0x68(%eax)
	target_e->env_status = ENV_RUNNABLE;
f010513f:	c7 40 54 02 00 00 00 	movl   $0x2,0x54(%eax)
	target_e->env_tf.tf_regs.reg_eax = 0;
f0105146:	c7 40 1c 00 00 00 00 	movl   $0x0,0x1c(%eax)
	target_e->env_ipc_perm = perm;
f010514d:	8b 7d 18             	mov    0x18(%ebp),%edi
f0105150:	89 78 78             	mov    %edi,0x78(%eax)

	return 0;
f0105153:	b8 00 00 00 00       	mov    $0x0,%eax
f0105158:	eb 63                	jmp    f01051bd <syscall+0x596>
	// LAB 4: Your code here.
	int err_code;
	struct Env* target_e;

	if ((err_code = envid2env(envid, &target_e, 0)) < 0) {
		return -E_BAD_ENV;
f010515a:	b8 fe ff ff ff       	mov    $0xfffffffe,%eax
f010515f:	eb 5c                	jmp    f01051bd <syscall+0x596>
	}

	if (!target_e->env_ipc_recving) {
		return -E_IPC_NOT_RECV;
f0105161:	b8 f9 ff ff ff       	mov    $0xfffffff9,%eax

		case SYS_env_set_pgfault_upcall:
			return sys_env_set_pgfault_upcall(a1, (void*)a2);

		case SYS_ipc_try_send:
			return sys_ipc_try_send(a1, a2, (void*)a3, a4);
f0105166:	eb 55                	jmp    f01051bd <syscall+0x596>
//	-E_INVAL if dstva < UTOP but dstva is not page-aligned.
static int
sys_ipc_recv(void *dstva)
{

	if (!IS_PAGE_ALIGNED((uint32_t)dstva)) {
f0105168:	f7 45 0c ff 0f 00 00 	testl  $0xfff,0xc(%ebp)
f010516f:	75 47                	jne    f01051b8 <syscall+0x591>
		return -E_INVAL;
	}

	curenv->env_ipc_recving = 1;
f0105171:	e8 2d 14 00 00       	call   f01065a3 <cpunum>
f0105176:	6b c0 74             	imul   $0x74,%eax,%eax
f0105179:	8b 80 28 40 20 f0    	mov    -0xfdfbfd8(%eax),%eax
f010517f:	c6 40 68 01          	movb   $0x1,0x68(%eax)
	curenv->env_ipc_dstva = dstva;
f0105183:	e8 1b 14 00 00       	call   f01065a3 <cpunum>
f0105188:	6b c0 74             	imul   $0x74,%eax,%eax
f010518b:	8b 80 28 40 20 f0    	mov    -0xfdfbfd8(%eax),%eax
f0105191:	8b 75 0c             	mov    0xc(%ebp),%esi
f0105194:	89 70 6c             	mov    %esi,0x6c(%eax)
	curenv->env_status = ENV_NOT_RUNNABLE;
f0105197:	e8 07 14 00 00       	call   f01065a3 <cpunum>
f010519c:	6b c0 74             	imul   $0x74,%eax,%eax
f010519f:	8b 80 28 40 20 f0    	mov    -0xfdfbfd8(%eax),%eax
f01051a5:	c7 40 54 04 00 00 00 	movl   $0x4,0x54(%eax)
	sched_yield();
f01051ac:	e8 36 f9 ff ff       	call   f0104ae7 <sched_yield>
			return sys_ipc_try_send(a1, a2, (void*)a3, a4);

		case SYS_ipc_recv:
			return sys_ipc_recv((void*)a1);
	}
	return 0;
f01051b1:	b8 00 00 00 00       	mov    $0x0,%eax
f01051b6:	eb 05                	jmp    f01051bd <syscall+0x596>

		case SYS_ipc_try_send:
			return sys_ipc_try_send(a1, a2, (void*)a3, a4);

		case SYS_ipc_recv:
			return sys_ipc_recv((void*)a1);
f01051b8:	b8 fd ff ff ff       	mov    $0xfffffffd,%eax
	}
	return 0;
}
f01051bd:	83 c4 2c             	add    $0x2c,%esp
f01051c0:	5b                   	pop    %ebx
f01051c1:	5e                   	pop    %esi
f01051c2:	5f                   	pop    %edi
f01051c3:	5d                   	pop    %ebp
f01051c4:	c3                   	ret    

f01051c5 <stab_binsearch>:
//	will exit setting left = 118, right = 554.
//
static void
stab_binsearch(const struct Stab *stabs, int *region_left, int *region_right,
	       int type, uintptr_t addr)
{
f01051c5:	55                   	push   %ebp
f01051c6:	89 e5                	mov    %esp,%ebp
f01051c8:	57                   	push   %edi
f01051c9:	56                   	push   %esi
f01051ca:	53                   	push   %ebx
f01051cb:	83 ec 14             	sub    $0x14,%esp
f01051ce:	89 45 ec             	mov    %eax,-0x14(%ebp)
f01051d1:	89 55 e4             	mov    %edx,-0x1c(%ebp)
f01051d4:	89 4d e0             	mov    %ecx,-0x20(%ebp)
f01051d7:	8b 75 08             	mov    0x8(%ebp),%esi
	int l = *region_left, r = *region_right, any_matches = 0;
f01051da:	8b 1a                	mov    (%edx),%ebx
f01051dc:	8b 01                	mov    (%ecx),%eax
f01051de:	89 45 f0             	mov    %eax,-0x10(%ebp)

	while (l <= r) {
f01051e1:	39 c3                	cmp    %eax,%ebx
f01051e3:	0f 8f 9a 00 00 00    	jg     f0105283 <stab_binsearch+0xbe>
//
static void
stab_binsearch(const struct Stab *stabs, int *region_left, int *region_right,
	       int type, uintptr_t addr)
{
	int l = *region_left, r = *region_right, any_matches = 0;
f01051e9:	c7 45 e8 00 00 00 00 	movl   $0x0,-0x18(%ebp)

	while (l <= r) {
		int true_m = (l + r) / 2, m = true_m;
f01051f0:	8b 45 f0             	mov    -0x10(%ebp),%eax
f01051f3:	01 d8                	add    %ebx,%eax
f01051f5:	89 c7                	mov    %eax,%edi
f01051f7:	c1 ef 1f             	shr    $0x1f,%edi
f01051fa:	01 c7                	add    %eax,%edi
f01051fc:	d1 ff                	sar    %edi

		// search for earliest stab with right type
		while (m >= l && stabs[m].n_type != type)
f01051fe:	39 df                	cmp    %ebx,%edi
f0105200:	0f 8c c4 00 00 00    	jl     f01052ca <stab_binsearch+0x105>
f0105206:	8d 04 7f             	lea    (%edi,%edi,2),%eax
f0105209:	8b 4d ec             	mov    -0x14(%ebp),%ecx
f010520c:	8d 14 81             	lea    (%ecx,%eax,4),%edx
f010520f:	0f b6 42 04          	movzbl 0x4(%edx),%eax
f0105213:	39 f0                	cmp    %esi,%eax
f0105215:	0f 84 b4 00 00 00    	je     f01052cf <stab_binsearch+0x10a>
	       int type, uintptr_t addr)
{
	int l = *region_left, r = *region_right, any_matches = 0;

	while (l <= r) {
		int true_m = (l + r) / 2, m = true_m;
f010521b:	89 f8                	mov    %edi,%eax

		// search for earliest stab with right type
		while (m >= l && stabs[m].n_type != type)
			m--;
f010521d:	83 e8 01             	sub    $0x1,%eax

	while (l <= r) {
		int true_m = (l + r) / 2, m = true_m;

		// search for earliest stab with right type
		while (m >= l && stabs[m].n_type != type)
f0105220:	39 d8                	cmp    %ebx,%eax
f0105222:	0f 8c a2 00 00 00    	jl     f01052ca <stab_binsearch+0x105>
f0105228:	0f b6 4a f8          	movzbl -0x8(%edx),%ecx
f010522c:	83 ea 0c             	sub    $0xc,%edx
f010522f:	39 f1                	cmp    %esi,%ecx
f0105231:	75 ea                	jne    f010521d <stab_binsearch+0x58>
f0105233:	e9 99 00 00 00       	jmp    f01052d1 <stab_binsearch+0x10c>
		}

		// actual binary search
		any_matches = 1;
		if (stabs[m].n_value < addr) {
			*region_left = m;
f0105238:	8b 5d e4             	mov    -0x1c(%ebp),%ebx
f010523b:	89 03                	mov    %eax,(%ebx)
			l = true_m + 1;
f010523d:	8d 5f 01             	lea    0x1(%edi),%ebx
			l = true_m + 1;
			continue;
		}

		// actual binary search
		any_matches = 1;
f0105240:	c7 45 e8 01 00 00 00 	movl   $0x1,-0x18(%ebp)
f0105247:	eb 2b                	jmp    f0105274 <stab_binsearch+0xaf>
		if (stabs[m].n_value < addr) {
			*region_left = m;
			l = true_m + 1;
		} else if (stabs[m].n_value > addr) {
f0105249:	3b 55 0c             	cmp    0xc(%ebp),%edx
f010524c:	76 14                	jbe    f0105262 <stab_binsearch+0x9d>
			*region_right = m - 1;
f010524e:	83 e8 01             	sub    $0x1,%eax
f0105251:	89 45 f0             	mov    %eax,-0x10(%ebp)
f0105254:	8b 7d e0             	mov    -0x20(%ebp),%edi
f0105257:	89 07                	mov    %eax,(%edi)
			l = true_m + 1;
			continue;
		}

		// actual binary search
		any_matches = 1;
f0105259:	c7 45 e8 01 00 00 00 	movl   $0x1,-0x18(%ebp)
f0105260:	eb 12                	jmp    f0105274 <stab_binsearch+0xaf>
			*region_right = m - 1;
			r = m - 1;
		} else {
			// exact match for 'addr', but continue loop to find
			// *region_right
			*region_left = m;
f0105262:	8b 7d e4             	mov    -0x1c(%ebp),%edi
f0105265:	89 07                	mov    %eax,(%edi)
			l = m;
			addr++;
f0105267:	83 45 0c 01          	addl   $0x1,0xc(%ebp)
f010526b:	89 c3                	mov    %eax,%ebx
			l = true_m + 1;
			continue;
		}

		// actual binary search
		any_matches = 1;
f010526d:	c7 45 e8 01 00 00 00 	movl   $0x1,-0x18(%ebp)
stab_binsearch(const struct Stab *stabs, int *region_left, int *region_right,
	       int type, uintptr_t addr)
{
	int l = *region_left, r = *region_right, any_matches = 0;

	while (l <= r) {
f0105274:	3b 5d f0             	cmp    -0x10(%ebp),%ebx
f0105277:	0f 8e 73 ff ff ff    	jle    f01051f0 <stab_binsearch+0x2b>
			l = m;
			addr++;
		}
	}

	if (!any_matches)
f010527d:	83 7d e8 00          	cmpl   $0x0,-0x18(%ebp)
f0105281:	75 0f                	jne    f0105292 <stab_binsearch+0xcd>
		*region_right = *region_left - 1;
f0105283:	8b 45 e4             	mov    -0x1c(%ebp),%eax
f0105286:	8b 00                	mov    (%eax),%eax
f0105288:	83 e8 01             	sub    $0x1,%eax
f010528b:	8b 75 e0             	mov    -0x20(%ebp),%esi
f010528e:	89 06                	mov    %eax,(%esi)
f0105290:	eb 57                	jmp    f01052e9 <stab_binsearch+0x124>
	else {
		// find rightmost region containing 'addr'
		for (l = *region_right;
f0105292:	8b 45 e0             	mov    -0x20(%ebp),%eax
f0105295:	8b 00                	mov    (%eax),%eax
		     l > *region_left && stabs[l].n_type != type;
f0105297:	8b 7d e4             	mov    -0x1c(%ebp),%edi
f010529a:	8b 0f                	mov    (%edi),%ecx

	if (!any_matches)
		*region_right = *region_left - 1;
	else {
		// find rightmost region containing 'addr'
		for (l = *region_right;
f010529c:	39 c8                	cmp    %ecx,%eax
f010529e:	7e 23                	jle    f01052c3 <stab_binsearch+0xfe>
		     l > *region_left && stabs[l].n_type != type;
f01052a0:	8d 14 40             	lea    (%eax,%eax,2),%edx
f01052a3:	8b 7d ec             	mov    -0x14(%ebp),%edi
f01052a6:	8d 14 97             	lea    (%edi,%edx,4),%edx
f01052a9:	0f b6 5a 04          	movzbl 0x4(%edx),%ebx
f01052ad:	39 f3                	cmp    %esi,%ebx
f01052af:	74 12                	je     f01052c3 <stab_binsearch+0xfe>
		     l--)
f01052b1:	83 e8 01             	sub    $0x1,%eax

	if (!any_matches)
		*region_right = *region_left - 1;
	else {
		// find rightmost region containing 'addr'
		for (l = *region_right;
f01052b4:	39 c8                	cmp    %ecx,%eax
f01052b6:	7e 0b                	jle    f01052c3 <stab_binsearch+0xfe>
		     l > *region_left && stabs[l].n_type != type;
f01052b8:	0f b6 5a f8          	movzbl -0x8(%edx),%ebx
f01052bc:	83 ea 0c             	sub    $0xc,%edx
f01052bf:	39 f3                	cmp    %esi,%ebx
f01052c1:	75 ee                	jne    f01052b1 <stab_binsearch+0xec>
		     l--)
			/* do nothing */;
		*region_left = l;
f01052c3:	8b 75 e4             	mov    -0x1c(%ebp),%esi
f01052c6:	89 06                	mov    %eax,(%esi)
f01052c8:	eb 1f                	jmp    f01052e9 <stab_binsearch+0x124>

		// search for earliest stab with right type
		while (m >= l && stabs[m].n_type != type)
			m--;
		if (m < l) {	// no match in [l, m]
			l = true_m + 1;
f01052ca:	8d 5f 01             	lea    0x1(%edi),%ebx
			continue;
f01052cd:	eb a5                	jmp    f0105274 <stab_binsearch+0xaf>
	       int type, uintptr_t addr)
{
	int l = *region_left, r = *region_right, any_matches = 0;

	while (l <= r) {
		int true_m = (l + r) / 2, m = true_m;
f01052cf:	89 f8                	mov    %edi,%eax
			continue;
		}

		// actual binary search
		any_matches = 1;
		if (stabs[m].n_value < addr) {
f01052d1:	8d 14 40             	lea    (%eax,%eax,2),%edx
f01052d4:	8b 4d ec             	mov    -0x14(%ebp),%ecx
f01052d7:	8b 54 91 08          	mov    0x8(%ecx,%edx,4),%edx
f01052db:	3b 55 0c             	cmp    0xc(%ebp),%edx
f01052de:	0f 82 54 ff ff ff    	jb     f0105238 <stab_binsearch+0x73>
f01052e4:	e9 60 ff ff ff       	jmp    f0105249 <stab_binsearch+0x84>
		     l > *region_left && stabs[l].n_type != type;
		     l--)
			/* do nothing */;
		*region_left = l;
	}
}
f01052e9:	83 c4 14             	add    $0x14,%esp
f01052ec:	5b                   	pop    %ebx
f01052ed:	5e                   	pop    %esi
f01052ee:	5f                   	pop    %edi
f01052ef:	5d                   	pop    %ebp
f01052f0:	c3                   	ret    

f01052f1 <debuginfo_eip>:
//	negative if not.  But even if it returns negative it has stored some
//	information into '*info'.
//
int
debuginfo_eip(uintptr_t addr, struct Eipdebuginfo *info)
{
f01052f1:	55                   	push   %ebp
f01052f2:	89 e5                	mov    %esp,%ebp
f01052f4:	57                   	push   %edi
f01052f5:	56                   	push   %esi
f01052f6:	53                   	push   %ebx
f01052f7:	83 ec 4c             	sub    $0x4c,%esp
f01052fa:	8b 75 08             	mov    0x8(%ebp),%esi
f01052fd:	8b 5d 0c             	mov    0xc(%ebp),%ebx
	const struct Stab *stabs, *stab_end;
	const char *stabstr, *stabstr_end;
	int lfile, rfile, lfun, rfun, lline, rline;

	// Initialize *info
	info->eip_file = "<unknown>";
f0105300:	c7 03 b0 84 10 f0    	movl   $0xf01084b0,(%ebx)
	info->eip_line = 0;
f0105306:	c7 43 04 00 00 00 00 	movl   $0x0,0x4(%ebx)
	info->eip_fn_name = "<unknown>";
f010530d:	c7 43 08 b0 84 10 f0 	movl   $0xf01084b0,0x8(%ebx)
	info->eip_fn_namelen = 9;
f0105314:	c7 43 0c 09 00 00 00 	movl   $0x9,0xc(%ebx)
	info->eip_fn_addr = addr;
f010531b:	89 73 10             	mov    %esi,0x10(%ebx)
	info->eip_fn_narg = 0;
f010531e:	c7 43 14 00 00 00 00 	movl   $0x0,0x14(%ebx)

	// Find the relevant set of stabs
	if (addr >= ULIM) {
f0105325:	81 fe ff ff 7f ef    	cmp    $0xef7fffff,%esi
f010532b:	0f 87 cf 00 00 00    	ja     f0105400 <debuginfo_eip+0x10f>
		// USTABDATA.
		const struct UserStabData *usd = (const struct UserStabData *) USTABDATA;

		// Make sure this memory is valid.
		// Return -1 if it is not.  Hint: Call user_mem_check.
		if (user_mem_check(curenv, (const void *)usd,
f0105331:	e8 6d 12 00 00       	call   f01065a3 <cpunum>
f0105336:	c7 44 24 0c 05 00 00 	movl   $0x5,0xc(%esp)
f010533d:	00 
f010533e:	c7 44 24 08 10 00 00 	movl   $0x10,0x8(%esp)
f0105345:	00 
f0105346:	c7 44 24 04 00 00 20 	movl   $0x200000,0x4(%esp)
f010534d:	00 
f010534e:	6b c0 74             	imul   $0x74,%eax,%eax
f0105351:	8b 80 28 40 20 f0    	mov    -0xfdfbfd8(%eax),%eax
f0105357:	89 04 24             	mov    %eax,(%esp)
f010535a:	e8 72 e3 ff ff       	call   f01036d1 <user_mem_check>
f010535f:	85 c0                	test   %eax,%eax
f0105361:	0f 88 78 02 00 00    	js     f01055df <debuginfo_eip+0x2ee>
				sizeof(struct UserStabData), PTE_U | PTE_P) < 0) {
			return -1;
		}

		stabs = usd->stabs;
f0105367:	a1 00 00 20 00       	mov    0x200000,%eax
		stab_end = usd->stab_end;
f010536c:	8b 3d 04 00 20 00    	mov    0x200004,%edi
		stabstr = usd->stabstr;
f0105372:	8b 15 08 00 20 00    	mov    0x200008,%edx
f0105378:	89 55 c0             	mov    %edx,-0x40(%ebp)
		stabstr_end = usd->stabstr_end;
f010537b:	8b 0d 0c 00 20 00    	mov    0x20000c,%ecx
f0105381:	89 4d bc             	mov    %ecx,-0x44(%ebp)

		// Make sure the STABS and string table memory is valid.
		// LAB 3: Your code here.
		if (user_mem_check(curenv, (const void *)stabs,
f0105384:	89 f9                	mov    %edi,%ecx
f0105386:	89 45 c4             	mov    %eax,-0x3c(%ebp)
f0105389:	29 c1                	sub    %eax,%ecx
f010538b:	89 4d b8             	mov    %ecx,-0x48(%ebp)
f010538e:	e8 10 12 00 00       	call   f01065a3 <cpunum>
f0105393:	c7 44 24 0c 05 00 00 	movl   $0x5,0xc(%esp)
f010539a:	00 
f010539b:	8b 4d b8             	mov    -0x48(%ebp),%ecx
f010539e:	89 4c 24 08          	mov    %ecx,0x8(%esp)
f01053a2:	8b 55 c4             	mov    -0x3c(%ebp),%edx
f01053a5:	89 54 24 04          	mov    %edx,0x4(%esp)
f01053a9:	6b c0 74             	imul   $0x74,%eax,%eax
f01053ac:	8b 80 28 40 20 f0    	mov    -0xfdfbfd8(%eax),%eax
f01053b2:	89 04 24             	mov    %eax,(%esp)
f01053b5:	e8 17 e3 ff ff       	call   f01036d1 <user_mem_check>
f01053ba:	85 c0                	test   %eax,%eax
f01053bc:	0f 88 24 02 00 00    	js     f01055e6 <debuginfo_eip+0x2f5>
				(uintptr_t)stab_end  - (uintptr_t)stabs, PTE_U | PTE_P) < 0) {
			return -1;
		}

		if (user_mem_check(curenv, (const void *)stabstr,
f01053c2:	8b 4d bc             	mov    -0x44(%ebp),%ecx
f01053c5:	2b 4d c0             	sub    -0x40(%ebp),%ecx
f01053c8:	89 4d b8             	mov    %ecx,-0x48(%ebp)
f01053cb:	e8 d3 11 00 00       	call   f01065a3 <cpunum>
f01053d0:	c7 44 24 0c 05 00 00 	movl   $0x5,0xc(%esp)
f01053d7:	00 
f01053d8:	8b 4d b8             	mov    -0x48(%ebp),%ecx
f01053db:	89 4c 24 08          	mov    %ecx,0x8(%esp)
f01053df:	8b 55 c0             	mov    -0x40(%ebp),%edx
f01053e2:	89 54 24 04          	mov    %edx,0x4(%esp)
f01053e6:	6b c0 74             	imul   $0x74,%eax,%eax
f01053e9:	8b 80 28 40 20 f0    	mov    -0xfdfbfd8(%eax),%eax
f01053ef:	89 04 24             	mov    %eax,(%esp)
f01053f2:	e8 da e2 ff ff       	call   f01036d1 <user_mem_check>
f01053f7:	85 c0                	test   %eax,%eax
f01053f9:	79 1f                	jns    f010541a <debuginfo_eip+0x129>
f01053fb:	e9 ed 01 00 00       	jmp    f01055ed <debuginfo_eip+0x2fc>
	// Find the relevant set of stabs
	if (addr >= ULIM) {
		stabs = __STAB_BEGIN__;
		stab_end = __STAB_END__;
		stabstr = __STABSTR_BEGIN__;
		stabstr_end = __STABSTR_END__;
f0105400:	c7 45 bc bf 6d 11 f0 	movl   $0xf0116dbf,-0x44(%ebp)

	// Find the relevant set of stabs
	if (addr >= ULIM) {
		stabs = __STAB_BEGIN__;
		stab_end = __STAB_END__;
		stabstr = __STABSTR_BEGIN__;
f0105407:	c7 45 c0 d5 35 11 f0 	movl   $0xf01135d5,-0x40(%ebp)
	info->eip_fn_narg = 0;

	// Find the relevant set of stabs
	if (addr >= ULIM) {
		stabs = __STAB_BEGIN__;
		stab_end = __STAB_END__;
f010540e:	bf d4 35 11 f0       	mov    $0xf01135d4,%edi
	info->eip_fn_addr = addr;
	info->eip_fn_narg = 0;

	// Find the relevant set of stabs
	if (addr >= ULIM) {
		stabs = __STAB_BEGIN__;
f0105413:	c7 45 c4 50 8a 10 f0 	movl   $0xf0108a50,-0x3c(%ebp)
			return -1;
		}
	}

	// String table validity checks
	if (stabstr_end <= stabstr || stabstr_end[-1] != 0)
f010541a:	8b 45 bc             	mov    -0x44(%ebp),%eax
f010541d:	39 45 c0             	cmp    %eax,-0x40(%ebp)
f0105420:	0f 83 ce 01 00 00    	jae    f01055f4 <debuginfo_eip+0x303>
f0105426:	80 78 ff 00          	cmpb   $0x0,-0x1(%eax)
f010542a:	0f 85 cb 01 00 00    	jne    f01055fb <debuginfo_eip+0x30a>
	// 'eip'.  First, we find the basic source file containing 'eip'.
	// Then, we look in that source file for the function.  Then we look
	// for the line number.

	// Search the entire set of stabs for the source file (type N_SO).
	lfile = 0;
f0105430:	c7 45 e4 00 00 00 00 	movl   $0x0,-0x1c(%ebp)
	rfile = (stab_end - stabs) - 1;
f0105437:	2b 7d c4             	sub    -0x3c(%ebp),%edi
f010543a:	c1 ff 02             	sar    $0x2,%edi
f010543d:	69 c7 ab aa aa aa    	imul   $0xaaaaaaab,%edi,%eax
f0105443:	83 e8 01             	sub    $0x1,%eax
f0105446:	89 45 e0             	mov    %eax,-0x20(%ebp)
	stab_binsearch(stabs, &lfile, &rfile, N_SO, addr);
f0105449:	89 74 24 04          	mov    %esi,0x4(%esp)
f010544d:	c7 04 24 64 00 00 00 	movl   $0x64,(%esp)
f0105454:	8d 4d e0             	lea    -0x20(%ebp),%ecx
f0105457:	8d 55 e4             	lea    -0x1c(%ebp),%edx
f010545a:	8b 7d c4             	mov    -0x3c(%ebp),%edi
f010545d:	89 f8                	mov    %edi,%eax
f010545f:	e8 61 fd ff ff       	call   f01051c5 <stab_binsearch>
	if (lfile == 0)
f0105464:	8b 45 e4             	mov    -0x1c(%ebp),%eax
f0105467:	85 c0                	test   %eax,%eax
f0105469:	0f 84 93 01 00 00    	je     f0105602 <debuginfo_eip+0x311>
		return -1;

	// Search within that file's stabs for the function definition
	// (N_FUN).
	lfun = lfile;
f010546f:	89 45 dc             	mov    %eax,-0x24(%ebp)
	rfun = rfile;
f0105472:	8b 45 e0             	mov    -0x20(%ebp),%eax
f0105475:	89 45 d8             	mov    %eax,-0x28(%ebp)
	stab_binsearch(stabs, &lfun, &rfun, N_FUN, addr);
f0105478:	89 74 24 04          	mov    %esi,0x4(%esp)
f010547c:	c7 04 24 24 00 00 00 	movl   $0x24,(%esp)
f0105483:	8d 4d d8             	lea    -0x28(%ebp),%ecx
f0105486:	8d 55 dc             	lea    -0x24(%ebp),%edx
f0105489:	89 f8                	mov    %edi,%eax
f010548b:	e8 35 fd ff ff       	call   f01051c5 <stab_binsearch>

	if (lfun <= rfun) {
f0105490:	8b 45 dc             	mov    -0x24(%ebp),%eax
f0105493:	8b 7d d8             	mov    -0x28(%ebp),%edi
f0105496:	39 f8                	cmp    %edi,%eax
f0105498:	7f 32                	jg     f01054cc <debuginfo_eip+0x1db>
		// stabs[lfun] points to the function name
		// in the string table, but check bounds just in case.
		if (stabs[lfun].n_strx < stabstr_end - stabstr)
f010549a:	8d 14 40             	lea    (%eax,%eax,2),%edx
f010549d:	8b 4d c4             	mov    -0x3c(%ebp),%ecx
f01054a0:	8d 14 91             	lea    (%ecx,%edx,4),%edx
f01054a3:	8b 0a                	mov    (%edx),%ecx
f01054a5:	89 4d b8             	mov    %ecx,-0x48(%ebp)
f01054a8:	8b 4d bc             	mov    -0x44(%ebp),%ecx
f01054ab:	2b 4d c0             	sub    -0x40(%ebp),%ecx
f01054ae:	39 4d b8             	cmp    %ecx,-0x48(%ebp)
f01054b1:	73 09                	jae    f01054bc <debuginfo_eip+0x1cb>
			info->eip_fn_name = stabstr + stabs[lfun].n_strx;
f01054b3:	8b 4d b8             	mov    -0x48(%ebp),%ecx
f01054b6:	03 4d c0             	add    -0x40(%ebp),%ecx
f01054b9:	89 4b 08             	mov    %ecx,0x8(%ebx)
		info->eip_fn_addr = stabs[lfun].n_value;
f01054bc:	8b 52 08             	mov    0x8(%edx),%edx
f01054bf:	89 53 10             	mov    %edx,0x10(%ebx)
		addr -= info->eip_fn_addr;
f01054c2:	29 d6                	sub    %edx,%esi
		// Search within the function definition for the line number.
		lline = lfun;
f01054c4:	89 45 d4             	mov    %eax,-0x2c(%ebp)
		rline = rfun;
f01054c7:	89 7d d0             	mov    %edi,-0x30(%ebp)
f01054ca:	eb 0f                	jmp    f01054db <debuginfo_eip+0x1ea>
	} else {
		// Couldn't find function stab!  Maybe we're in an assembly
		// file.  Search the whole file for the line number.
		info->eip_fn_addr = addr;
f01054cc:	89 73 10             	mov    %esi,0x10(%ebx)
		lline = lfile;
f01054cf:	8b 45 e4             	mov    -0x1c(%ebp),%eax
f01054d2:	89 45 d4             	mov    %eax,-0x2c(%ebp)
		rline = rfile;
f01054d5:	8b 45 e0             	mov    -0x20(%ebp),%eax
f01054d8:	89 45 d0             	mov    %eax,-0x30(%ebp)
	}
	// Ignore stuff after the colon.
	info->eip_fn_namelen = strfind(info->eip_fn_name, ':') - info->eip_fn_name;
f01054db:	c7 44 24 04 3a 00 00 	movl   $0x3a,0x4(%esp)
f01054e2:	00 
f01054e3:	8b 43 08             	mov    0x8(%ebx),%eax
f01054e6:	89 04 24             	mov    %eax,(%esp)
f01054e9:	e8 f1 09 00 00       	call   f0105edf <strfind>
f01054ee:	2b 43 08             	sub    0x8(%ebx),%eax
f01054f1:	89 43 0c             	mov    %eax,0xc(%ebx)
	// Hint:
	//	There's a particular stabs type used for line numbers.
	//	Look at the STABS documentation and <inc/stab.h> to find
	//	which one.
	// Your code here.
	stab_binsearch(stabs, &lline, &rline, N_SLINE, addr);
f01054f4:	89 74 24 04          	mov    %esi,0x4(%esp)
f01054f8:	c7 04 24 44 00 00 00 	movl   $0x44,(%esp)
f01054ff:	8d 4d d0             	lea    -0x30(%ebp),%ecx
f0105502:	8d 55 d4             	lea    -0x2c(%ebp),%edx
f0105505:	8b 75 c4             	mov    -0x3c(%ebp),%esi
f0105508:	89 f0                	mov    %esi,%eax
f010550a:	e8 b6 fc ff ff       	call   f01051c5 <stab_binsearch>
	if (lline > rline) {
f010550f:	8b 45 d4             	mov    -0x2c(%ebp),%eax
f0105512:	3b 45 d0             	cmp    -0x30(%ebp),%eax
f0105515:	0f 8f ee 00 00 00    	jg     f0105609 <debuginfo_eip+0x318>
		return -1;
	}
	info->eip_line = stabs[lline].n_desc;
f010551b:	8d 04 40             	lea    (%eax,%eax,2),%eax
f010551e:	0f b7 44 86 06       	movzwl 0x6(%esi,%eax,4),%eax
f0105523:	89 43 04             	mov    %eax,0x4(%ebx)
	// Search backwards from the line number for the relevant filename
	// stab.
	// We can't just use the "lfile" stab because inlined functions
	// can interpolate code from a different file!
	// Such included source files use the N_SOL stab type.
	while (lline >= lfile
f0105526:	8b 4d d4             	mov    -0x2c(%ebp),%ecx
f0105529:	8b 7d e4             	mov    -0x1c(%ebp),%edi
f010552c:	39 f9                	cmp    %edi,%ecx
f010552e:	7c 62                	jl     f0105592 <debuginfo_eip+0x2a1>
	       && stabs[lline].n_type != N_SOL
f0105530:	8d 04 49             	lea    (%ecx,%ecx,2),%eax
f0105533:	c1 e0 02             	shl    $0x2,%eax
f0105536:	8d 14 06             	lea    (%esi,%eax,1),%edx
f0105539:	89 55 b8             	mov    %edx,-0x48(%ebp)
f010553c:	0f b6 52 04          	movzbl 0x4(%edx),%edx
f0105540:	80 fa 84             	cmp    $0x84,%dl
f0105543:	74 35                	je     f010557a <debuginfo_eip+0x289>
f0105545:	8d 44 06 f4          	lea    -0xc(%esi,%eax,1),%eax
f0105549:	8b 75 b8             	mov    -0x48(%ebp),%esi
f010554c:	eb 1a                	jmp    f0105568 <debuginfo_eip+0x277>
	       && (stabs[lline].n_type != N_SO || !stabs[lline].n_value))
		lline--;
f010554e:	83 e9 01             	sub    $0x1,%ecx
	// Search backwards from the line number for the relevant filename
	// stab.
	// We can't just use the "lfile" stab because inlined functions
	// can interpolate code from a different file!
	// Such included source files use the N_SOL stab type.
	while (lline >= lfile
f0105551:	39 f9                	cmp    %edi,%ecx
f0105553:	7c 3d                	jl     f0105592 <debuginfo_eip+0x2a1>
	       && stabs[lline].n_type != N_SOL
f0105555:	89 c6                	mov    %eax,%esi
f0105557:	83 e8 0c             	sub    $0xc,%eax
f010555a:	0f b6 50 10          	movzbl 0x10(%eax),%edx
f010555e:	80 fa 84             	cmp    $0x84,%dl
f0105561:	75 05                	jne    f0105568 <debuginfo_eip+0x277>
f0105563:	89 4d d4             	mov    %ecx,-0x2c(%ebp)
f0105566:	eb 12                	jmp    f010557a <debuginfo_eip+0x289>
	       && (stabs[lline].n_type != N_SO || !stabs[lline].n_value))
f0105568:	80 fa 64             	cmp    $0x64,%dl
f010556b:	75 e1                	jne    f010554e <debuginfo_eip+0x25d>
f010556d:	83 7e 08 00          	cmpl   $0x0,0x8(%esi)
f0105571:	74 db                	je     f010554e <debuginfo_eip+0x25d>
f0105573:	89 4d d4             	mov    %ecx,-0x2c(%ebp)
		lline--;
	if (lline >= lfile && stabs[lline].n_strx < stabstr_end - stabstr)
f0105576:	39 cf                	cmp    %ecx,%edi
f0105578:	7f 18                	jg     f0105592 <debuginfo_eip+0x2a1>
f010557a:	8d 04 49             	lea    (%ecx,%ecx,2),%eax
f010557d:	8b 7d c4             	mov    -0x3c(%ebp),%edi
f0105580:	8b 04 87             	mov    (%edi,%eax,4),%eax
f0105583:	8b 55 bc             	mov    -0x44(%ebp),%edx
f0105586:	2b 55 c0             	sub    -0x40(%ebp),%edx
f0105589:	39 d0                	cmp    %edx,%eax
f010558b:	73 05                	jae    f0105592 <debuginfo_eip+0x2a1>
		info->eip_file = stabstr + stabs[lline].n_strx;
f010558d:	03 45 c0             	add    -0x40(%ebp),%eax
f0105590:	89 03                	mov    %eax,(%ebx)


	// Set eip_fn_narg to the number of arguments taken by the function,
	// or 0 if there was no containing function.
	if (lfun < rfun)
f0105592:	8b 55 dc             	mov    -0x24(%ebp),%edx
f0105595:	8b 75 d8             	mov    -0x28(%ebp),%esi
		for (lline = lfun + 1;
		     lline < rfun && stabs[lline].n_type == N_PSYM;
		     lline++)
			info->eip_fn_narg++;

	return 0;
f0105598:	b8 00 00 00 00       	mov    $0x0,%eax
		info->eip_file = stabstr + stabs[lline].n_strx;


	// Set eip_fn_narg to the number of arguments taken by the function,
	// or 0 if there was no containing function.
	if (lfun < rfun)
f010559d:	39 f2                	cmp    %esi,%edx
f010559f:	0f 8d 85 00 00 00    	jge    f010562a <debuginfo_eip+0x339>
		for (lline = lfun + 1;
f01055a5:	8d 42 01             	lea    0x1(%edx),%eax
f01055a8:	89 45 d4             	mov    %eax,-0x2c(%ebp)
f01055ab:	39 c6                	cmp    %eax,%esi
f01055ad:	7e 61                	jle    f0105610 <debuginfo_eip+0x31f>
		     lline < rfun && stabs[lline].n_type == N_PSYM;
f01055af:	8d 0c 40             	lea    (%eax,%eax,2),%ecx
f01055b2:	c1 e1 02             	shl    $0x2,%ecx
f01055b5:	8b 7d c4             	mov    -0x3c(%ebp),%edi
f01055b8:	80 7c 0f 04 a0       	cmpb   $0xa0,0x4(%edi,%ecx,1)
f01055bd:	75 58                	jne    f0105617 <debuginfo_eip+0x326>
f01055bf:	8d 42 02             	lea    0x2(%edx),%eax
f01055c2:	8d 54 0f f4          	lea    -0xc(%edi,%ecx,1),%edx
		     lline++)
			info->eip_fn_narg++;
f01055c6:	83 43 14 01          	addl   $0x1,0x14(%ebx)


	// Set eip_fn_narg to the number of arguments taken by the function,
	// or 0 if there was no containing function.
	if (lfun < rfun)
		for (lline = lfun + 1;
f01055ca:	39 f0                	cmp    %esi,%eax
f01055cc:	74 50                	je     f010561e <debuginfo_eip+0x32d>
		     lline < rfun && stabs[lline].n_type == N_PSYM;
f01055ce:	0f b6 4a 1c          	movzbl 0x1c(%edx),%ecx
f01055d2:	83 c0 01             	add    $0x1,%eax
f01055d5:	83 c2 0c             	add    $0xc,%edx
f01055d8:	80 f9 a0             	cmp    $0xa0,%cl
f01055db:	74 e9                	je     f01055c6 <debuginfo_eip+0x2d5>
f01055dd:	eb 46                	jmp    f0105625 <debuginfo_eip+0x334>

		// Make sure this memory is valid.
		// Return -1 if it is not.  Hint: Call user_mem_check.
		if (user_mem_check(curenv, (const void *)usd,
				sizeof(struct UserStabData), PTE_U | PTE_P) < 0) {
			return -1;
f01055df:	b8 ff ff ff ff       	mov    $0xffffffff,%eax
f01055e4:	eb 44                	jmp    f010562a <debuginfo_eip+0x339>

		// Make sure the STABS and string table memory is valid.
		// LAB 3: Your code here.
		if (user_mem_check(curenv, (const void *)stabs,
				(uintptr_t)stab_end  - (uintptr_t)stabs, PTE_U | PTE_P) < 0) {
			return -1;
f01055e6:	b8 ff ff ff ff       	mov    $0xffffffff,%eax
f01055eb:	eb 3d                	jmp    f010562a <debuginfo_eip+0x339>
		}

		if (user_mem_check(curenv, (const void *)stabstr,
				(uintptr_t)stabstr_end - (uintptr_t)stabstr, PTE_U | PTE_P) < 0) {
			return -1;
f01055ed:	b8 ff ff ff ff       	mov    $0xffffffff,%eax
f01055f2:	eb 36                	jmp    f010562a <debuginfo_eip+0x339>
		}
	}

	// String table validity checks
	if (stabstr_end <= stabstr || stabstr_end[-1] != 0)
		return -1;
f01055f4:	b8 ff ff ff ff       	mov    $0xffffffff,%eax
f01055f9:	eb 2f                	jmp    f010562a <debuginfo_eip+0x339>
f01055fb:	b8 ff ff ff ff       	mov    $0xffffffff,%eax
f0105600:	eb 28                	jmp    f010562a <debuginfo_eip+0x339>
	// Search the entire set of stabs for the source file (type N_SO).
	lfile = 0;
	rfile = (stab_end - stabs) - 1;
	stab_binsearch(stabs, &lfile, &rfile, N_SO, addr);
	if (lfile == 0)
		return -1;
f0105602:	b8 ff ff ff ff       	mov    $0xffffffff,%eax
f0105607:	eb 21                	jmp    f010562a <debuginfo_eip+0x339>
	//	Look at the STABS documentation and <inc/stab.h> to find
	//	which one.
	// Your code here.
	stab_binsearch(stabs, &lline, &rline, N_SLINE, addr);
	if (lline > rline) {
		return -1;
f0105609:	b8 ff ff ff ff       	mov    $0xffffffff,%eax
f010560e:	eb 1a                	jmp    f010562a <debuginfo_eip+0x339>
		for (lline = lfun + 1;
		     lline < rfun && stabs[lline].n_type == N_PSYM;
		     lline++)
			info->eip_fn_narg++;

	return 0;
f0105610:	b8 00 00 00 00       	mov    $0x0,%eax
f0105615:	eb 13                	jmp    f010562a <debuginfo_eip+0x339>
f0105617:	b8 00 00 00 00       	mov    $0x0,%eax
f010561c:	eb 0c                	jmp    f010562a <debuginfo_eip+0x339>
f010561e:	b8 00 00 00 00       	mov    $0x0,%eax
f0105623:	eb 05                	jmp    f010562a <debuginfo_eip+0x339>
f0105625:	b8 00 00 00 00       	mov    $0x0,%eax
}
f010562a:	83 c4 4c             	add    $0x4c,%esp
f010562d:	5b                   	pop    %ebx
f010562e:	5e                   	pop    %esi
f010562f:	5f                   	pop    %edi
f0105630:	5d                   	pop    %ebp
f0105631:	c3                   	ret    
f0105632:	66 90                	xchg   %ax,%ax
f0105634:	66 90                	xchg   %ax,%ax
f0105636:	66 90                	xchg   %ax,%ax
f0105638:	66 90                	xchg   %ax,%ax
f010563a:	66 90                	xchg   %ax,%ax
f010563c:	66 90                	xchg   %ax,%ax
f010563e:	66 90                	xchg   %ax,%ax

f0105640 <printnum>:
 * using specified putch function and associated pointer putdat.
 */
static void
printnum(void (*putch)(int, void*), void *putdat,
	 unsigned long long num, unsigned base, int width, int padc)
{
f0105640:	55                   	push   %ebp
f0105641:	89 e5                	mov    %esp,%ebp
f0105643:	57                   	push   %edi
f0105644:	56                   	push   %esi
f0105645:	53                   	push   %ebx
f0105646:	83 ec 3c             	sub    $0x3c,%esp
f0105649:	89 45 e4             	mov    %eax,-0x1c(%ebp)
f010564c:	89 d7                	mov    %edx,%edi
f010564e:	8b 45 08             	mov    0x8(%ebp),%eax
f0105651:	89 45 e0             	mov    %eax,-0x20(%ebp)
f0105654:	8b 75 0c             	mov    0xc(%ebp),%esi
f0105657:	89 75 d4             	mov    %esi,-0x2c(%ebp)
f010565a:	8b 45 10             	mov    0x10(%ebp),%eax
	// first recursively print all preceding (more significant) digits
	if (num >= base) {
f010565d:	b9 00 00 00 00       	mov    $0x0,%ecx
f0105662:	89 45 d8             	mov    %eax,-0x28(%ebp)
f0105665:	89 4d dc             	mov    %ecx,-0x24(%ebp)
f0105668:	39 f1                	cmp    %esi,%ecx
f010566a:	72 14                	jb     f0105680 <printnum+0x40>
f010566c:	3b 45 e0             	cmp    -0x20(%ebp),%eax
f010566f:	76 0f                	jbe    f0105680 <printnum+0x40>
		printnum(putch, putdat, num / base, base, width - 1, padc);
	} else {
		// print any needed pad characters before first digit
		while (--width > 0)
f0105671:	8b 45 14             	mov    0x14(%ebp),%eax
f0105674:	8d 70 ff             	lea    -0x1(%eax),%esi
f0105677:	8b 5d e4             	mov    -0x1c(%ebp),%ebx
f010567a:	85 f6                	test   %esi,%esi
f010567c:	7f 60                	jg     f01056de <printnum+0x9e>
f010567e:	eb 72                	jmp    f01056f2 <printnum+0xb2>
printnum(void (*putch)(int, void*), void *putdat,
	 unsigned long long num, unsigned base, int width, int padc)
{
	// first recursively print all preceding (more significant) digits
	if (num >= base) {
		printnum(putch, putdat, num / base, base, width - 1, padc);
f0105680:	8b 4d 18             	mov    0x18(%ebp),%ecx
f0105683:	89 4c 24 10          	mov    %ecx,0x10(%esp)
f0105687:	8b 4d 14             	mov    0x14(%ebp),%ecx
f010568a:	8d 51 ff             	lea    -0x1(%ecx),%edx
f010568d:	89 54 24 0c          	mov    %edx,0xc(%esp)
f0105691:	89 44 24 08          	mov    %eax,0x8(%esp)
f0105695:	8b 44 24 08          	mov    0x8(%esp),%eax
f0105699:	8b 54 24 0c          	mov    0xc(%esp),%edx
f010569d:	89 c3                	mov    %eax,%ebx
f010569f:	89 d6                	mov    %edx,%esi
f01056a1:	8b 55 d8             	mov    -0x28(%ebp),%edx
f01056a4:	8b 4d dc             	mov    -0x24(%ebp),%ecx
f01056a7:	89 54 24 08          	mov    %edx,0x8(%esp)
f01056ab:	89 4c 24 0c          	mov    %ecx,0xc(%esp)
f01056af:	8b 45 e0             	mov    -0x20(%ebp),%eax
f01056b2:	89 04 24             	mov    %eax,(%esp)
f01056b5:	8b 45 d4             	mov    -0x2c(%ebp),%eax
f01056b8:	89 44 24 04          	mov    %eax,0x4(%esp)
f01056bc:	e8 5f 13 00 00       	call   f0106a20 <__udivdi3>
f01056c1:	89 d9                	mov    %ebx,%ecx
f01056c3:	89 4c 24 08          	mov    %ecx,0x8(%esp)
f01056c7:	89 74 24 0c          	mov    %esi,0xc(%esp)
f01056cb:	89 04 24             	mov    %eax,(%esp)
f01056ce:	89 54 24 04          	mov    %edx,0x4(%esp)
f01056d2:	89 fa                	mov    %edi,%edx
f01056d4:	8b 45 e4             	mov    -0x1c(%ebp),%eax
f01056d7:	e8 64 ff ff ff       	call   f0105640 <printnum>
f01056dc:	eb 14                	jmp    f01056f2 <printnum+0xb2>
	} else {
		// print any needed pad characters before first digit
		while (--width > 0)
			putch(padc, putdat);
f01056de:	89 7c 24 04          	mov    %edi,0x4(%esp)
f01056e2:	8b 45 18             	mov    0x18(%ebp),%eax
f01056e5:	89 04 24             	mov    %eax,(%esp)
f01056e8:	ff d3                	call   *%ebx
	// first recursively print all preceding (more significant) digits
	if (num >= base) {
		printnum(putch, putdat, num / base, base, width - 1, padc);
	} else {
		// print any needed pad characters before first digit
		while (--width > 0)
f01056ea:	83 ee 01             	sub    $0x1,%esi
f01056ed:	75 ef                	jne    f01056de <printnum+0x9e>
f01056ef:	89 5d e4             	mov    %ebx,-0x1c(%ebp)
			putch(padc, putdat);
	}

	// then print this (the least significant) digit
	putch("0123456789abcdef"[num % base], putdat);
f01056f2:	89 7c 24 04          	mov    %edi,0x4(%esp)
f01056f6:	8b 7c 24 04          	mov    0x4(%esp),%edi
f01056fa:	8b 45 d8             	mov    -0x28(%ebp),%eax
f01056fd:	8b 55 dc             	mov    -0x24(%ebp),%edx
f0105700:	89 44 24 08          	mov    %eax,0x8(%esp)
f0105704:	89 54 24 0c          	mov    %edx,0xc(%esp)
f0105708:	8b 45 e0             	mov    -0x20(%ebp),%eax
f010570b:	89 04 24             	mov    %eax,(%esp)
f010570e:	8b 45 d4             	mov    -0x2c(%ebp),%eax
f0105711:	89 44 24 04          	mov    %eax,0x4(%esp)
f0105715:	e8 36 14 00 00       	call   f0106b50 <__umoddi3>
f010571a:	89 7c 24 04          	mov    %edi,0x4(%esp)
f010571e:	0f be 80 ba 84 10 f0 	movsbl -0xfef7b46(%eax),%eax
f0105725:	89 04 24             	mov    %eax,(%esp)
f0105728:	8b 45 e4             	mov    -0x1c(%ebp),%eax
f010572b:	ff d0                	call   *%eax
}
f010572d:	83 c4 3c             	add    $0x3c,%esp
f0105730:	5b                   	pop    %ebx
f0105731:	5e                   	pop    %esi
f0105732:	5f                   	pop    %edi
f0105733:	5d                   	pop    %ebp
f0105734:	c3                   	ret    

f0105735 <getuint>:

// Get an unsigned int of various possible sizes from a varargs list,
// depending on the lflag parameter.
static unsigned long long
getuint(va_list *ap, int lflag)
{
f0105735:	55                   	push   %ebp
f0105736:	89 e5                	mov    %esp,%ebp
	if (lflag >= 2)
f0105738:	83 fa 01             	cmp    $0x1,%edx
f010573b:	7e 0e                	jle    f010574b <getuint+0x16>
		return va_arg(*ap, unsigned long long);
f010573d:	8b 10                	mov    (%eax),%edx
f010573f:	8d 4a 08             	lea    0x8(%edx),%ecx
f0105742:	89 08                	mov    %ecx,(%eax)
f0105744:	8b 02                	mov    (%edx),%eax
f0105746:	8b 52 04             	mov    0x4(%edx),%edx
f0105749:	eb 22                	jmp    f010576d <getuint+0x38>
	else if (lflag)
f010574b:	85 d2                	test   %edx,%edx
f010574d:	74 10                	je     f010575f <getuint+0x2a>
		return va_arg(*ap, unsigned long);
f010574f:	8b 10                	mov    (%eax),%edx
f0105751:	8d 4a 04             	lea    0x4(%edx),%ecx
f0105754:	89 08                	mov    %ecx,(%eax)
f0105756:	8b 02                	mov    (%edx),%eax
f0105758:	ba 00 00 00 00       	mov    $0x0,%edx
f010575d:	eb 0e                	jmp    f010576d <getuint+0x38>
	else
		return va_arg(*ap, unsigned int);
f010575f:	8b 10                	mov    (%eax),%edx
f0105761:	8d 4a 04             	lea    0x4(%edx),%ecx
f0105764:	89 08                	mov    %ecx,(%eax)
f0105766:	8b 02                	mov    (%edx),%eax
f0105768:	ba 00 00 00 00       	mov    $0x0,%edx
}
f010576d:	5d                   	pop    %ebp
f010576e:	c3                   	ret    

f010576f <sprintputch>:
	int cnt;
};

static void
sprintputch(int ch, struct sprintbuf *b)
{
f010576f:	55                   	push   %ebp
f0105770:	89 e5                	mov    %esp,%ebp
f0105772:	8b 45 0c             	mov    0xc(%ebp),%eax
	b->cnt++;
f0105775:	83 40 08 01          	addl   $0x1,0x8(%eax)
	if (b->buf < b->ebuf)
f0105779:	8b 10                	mov    (%eax),%edx
f010577b:	3b 50 04             	cmp    0x4(%eax),%edx
f010577e:	73 0a                	jae    f010578a <sprintputch+0x1b>
		*b->buf++ = ch;
f0105780:	8d 4a 01             	lea    0x1(%edx),%ecx
f0105783:	89 08                	mov    %ecx,(%eax)
f0105785:	8b 45 08             	mov    0x8(%ebp),%eax
f0105788:	88 02                	mov    %al,(%edx)
}
f010578a:	5d                   	pop    %ebp
f010578b:	c3                   	ret    

f010578c <printfmt>:
	}
}

void
printfmt(void (*putch)(int, void*), void *putdat, const char *fmt, ...)
{
f010578c:	55                   	push   %ebp
f010578d:	89 e5                	mov    %esp,%ebp
f010578f:	83 ec 18             	sub    $0x18,%esp
	va_list ap;

	va_start(ap, fmt);
f0105792:	8d 45 14             	lea    0x14(%ebp),%eax
	vprintfmt(putch, putdat, fmt, ap);
f0105795:	89 44 24 0c          	mov    %eax,0xc(%esp)
f0105799:	8b 45 10             	mov    0x10(%ebp),%eax
f010579c:	89 44 24 08          	mov    %eax,0x8(%esp)
f01057a0:	8b 45 0c             	mov    0xc(%ebp),%eax
f01057a3:	89 44 24 04          	mov    %eax,0x4(%esp)
f01057a7:	8b 45 08             	mov    0x8(%ebp),%eax
f01057aa:	89 04 24             	mov    %eax,(%esp)
f01057ad:	e8 02 00 00 00       	call   f01057b4 <vprintfmt>
	va_end(ap);
}
f01057b2:	c9                   	leave  
f01057b3:	c3                   	ret    

f01057b4 <vprintfmt>:
// Main function to format and print a string.
void printfmt(void (*putch)(int, void*), void *putdat, const char *fmt, ...);

void
vprintfmt(void (*putch)(int, void*), void *putdat, const char *fmt, va_list ap)
{
f01057b4:	55                   	push   %ebp
f01057b5:	89 e5                	mov    %esp,%ebp
f01057b7:	57                   	push   %edi
f01057b8:	56                   	push   %esi
f01057b9:	53                   	push   %ebx
f01057ba:	83 ec 3c             	sub    $0x3c,%esp
f01057bd:	8b 7d 0c             	mov    0xc(%ebp),%edi
f01057c0:	8b 5d 10             	mov    0x10(%ebp),%ebx
f01057c3:	eb 18                	jmp    f01057dd <vprintfmt+0x29>
	int base, lflag, width, precision, altflag;
	char padc;

	while (1) {
		while ((ch = *(unsigned char *) fmt++) != '%') {
			if (ch == '\0')
f01057c5:	85 c0                	test   %eax,%eax
f01057c7:	0f 84 c3 03 00 00    	je     f0105b90 <vprintfmt+0x3dc>
				return;
			putch(ch, putdat);
f01057cd:	89 7c 24 04          	mov    %edi,0x4(%esp)
f01057d1:	89 04 24             	mov    %eax,(%esp)
f01057d4:	ff 55 08             	call   *0x8(%ebp)
	unsigned long long num;
	int base, lflag, width, precision, altflag;
	char padc;

	while (1) {
		while ((ch = *(unsigned char *) fmt++) != '%') {
f01057d7:	89 f3                	mov    %esi,%ebx
f01057d9:	eb 02                	jmp    f01057dd <vprintfmt+0x29>
			break;

		// unrecognized escape sequence - just print it literally
		default:
			putch('%', putdat);
			for (fmt--; fmt[-1] != '%'; fmt--)
f01057db:	89 f3                	mov    %esi,%ebx
	unsigned long long num;
	int base, lflag, width, precision, altflag;
	char padc;

	while (1) {
		while ((ch = *(unsigned char *) fmt++) != '%') {
f01057dd:	8d 73 01             	lea    0x1(%ebx),%esi
f01057e0:	0f b6 03             	movzbl (%ebx),%eax
f01057e3:	83 f8 25             	cmp    $0x25,%eax
f01057e6:	75 dd                	jne    f01057c5 <vprintfmt+0x11>
f01057e8:	c6 45 e3 20          	movb   $0x20,-0x1d(%ebp)
f01057ec:	c7 45 d8 00 00 00 00 	movl   $0x0,-0x28(%ebp)
f01057f3:	c7 45 d4 ff ff ff ff 	movl   $0xffffffff,-0x2c(%ebp)
f01057fa:	c7 45 e4 ff ff ff ff 	movl   $0xffffffff,-0x1c(%ebp)
f0105801:	ba 00 00 00 00       	mov    $0x0,%edx
f0105806:	eb 1d                	jmp    f0105825 <vprintfmt+0x71>
		width = -1;
		precision = -1;
		lflag = 0;
		altflag = 0;
	reswitch:
		switch (ch = *(unsigned char *) fmt++) {
f0105808:	89 de                	mov    %ebx,%esi

		// flag to pad on the right
		case '-':
			padc = '-';
f010580a:	c6 45 e3 2d          	movb   $0x2d,-0x1d(%ebp)
f010580e:	eb 15                	jmp    f0105825 <vprintfmt+0x71>
		width = -1;
		precision = -1;
		lflag = 0;
		altflag = 0;
	reswitch:
		switch (ch = *(unsigned char *) fmt++) {
f0105810:	89 de                	mov    %ebx,%esi
			padc = '-';
			goto reswitch;

		// flag to pad with 0's instead of spaces
		case '0':
			padc = '0';
f0105812:	c6 45 e3 30          	movb   $0x30,-0x1d(%ebp)
f0105816:	eb 0d                	jmp    f0105825 <vprintfmt+0x71>
			altflag = 1;
			goto reswitch;

		process_precision:
			if (width < 0)
				width = precision, precision = -1;
f0105818:	8b 45 d4             	mov    -0x2c(%ebp),%eax
f010581b:	89 45 e4             	mov    %eax,-0x1c(%ebp)
f010581e:	c7 45 d4 ff ff ff ff 	movl   $0xffffffff,-0x2c(%ebp)
		width = -1;
		precision = -1;
		lflag = 0;
		altflag = 0;
	reswitch:
		switch (ch = *(unsigned char *) fmt++) {
f0105825:	8d 5e 01             	lea    0x1(%esi),%ebx
f0105828:	0f b6 06             	movzbl (%esi),%eax
f010582b:	0f b6 c8             	movzbl %al,%ecx
f010582e:	83 e8 23             	sub    $0x23,%eax
f0105831:	3c 55                	cmp    $0x55,%al
f0105833:	0f 87 2f 03 00 00    	ja     f0105b68 <vprintfmt+0x3b4>
f0105839:	0f b6 c0             	movzbl %al,%eax
f010583c:	ff 24 85 00 86 10 f0 	jmp    *-0xfef7a00(,%eax,4)
		case '6':
		case '7':
		case '8':
		case '9':
			for (precision = 0; ; ++fmt) {
				precision = precision * 10 + ch - '0';
f0105843:	8d 41 d0             	lea    -0x30(%ecx),%eax
f0105846:	89 45 d4             	mov    %eax,-0x2c(%ebp)
				ch = *fmt;
f0105849:	0f be 46 01          	movsbl 0x1(%esi),%eax
				if (ch < '0' || ch > '9')
f010584d:	8d 48 d0             	lea    -0x30(%eax),%ecx
f0105850:	83 f9 09             	cmp    $0x9,%ecx
f0105853:	77 50                	ja     f01058a5 <vprintfmt+0xf1>
		width = -1;
		precision = -1;
		lflag = 0;
		altflag = 0;
	reswitch:
		switch (ch = *(unsigned char *) fmt++) {
f0105855:	89 de                	mov    %ebx,%esi
f0105857:	8b 4d d4             	mov    -0x2c(%ebp),%ecx
		case '5':
		case '6':
		case '7':
		case '8':
		case '9':
			for (precision = 0; ; ++fmt) {
f010585a:	83 c6 01             	add    $0x1,%esi
				precision = precision * 10 + ch - '0';
f010585d:	8d 0c 89             	lea    (%ecx,%ecx,4),%ecx
f0105860:	8d 4c 48 d0          	lea    -0x30(%eax,%ecx,2),%ecx
				ch = *fmt;
f0105864:	0f be 06             	movsbl (%esi),%eax
				if (ch < '0' || ch > '9')
f0105867:	8d 58 d0             	lea    -0x30(%eax),%ebx
f010586a:	83 fb 09             	cmp    $0x9,%ebx
f010586d:	76 eb                	jbe    f010585a <vprintfmt+0xa6>
f010586f:	89 4d d4             	mov    %ecx,-0x2c(%ebp)
f0105872:	eb 33                	jmp    f01058a7 <vprintfmt+0xf3>
					break;
			}
			goto process_precision;

		case '*':
			precision = va_arg(ap, int);
f0105874:	8b 45 14             	mov    0x14(%ebp),%eax
f0105877:	8d 48 04             	lea    0x4(%eax),%ecx
f010587a:	89 4d 14             	mov    %ecx,0x14(%ebp)
f010587d:	8b 00                	mov    (%eax),%eax
f010587f:	89 45 d4             	mov    %eax,-0x2c(%ebp)
		width = -1;
		precision = -1;
		lflag = 0;
		altflag = 0;
	reswitch:
		switch (ch = *(unsigned char *) fmt++) {
f0105882:	89 de                	mov    %ebx,%esi
			}
			goto process_precision;

		case '*':
			precision = va_arg(ap, int);
			goto process_precision;
f0105884:	eb 21                	jmp    f01058a7 <vprintfmt+0xf3>
f0105886:	8b 4d e4             	mov    -0x1c(%ebp),%ecx
f0105889:	85 c9                	test   %ecx,%ecx
f010588b:	b8 00 00 00 00       	mov    $0x0,%eax
f0105890:	0f 49 c1             	cmovns %ecx,%eax
f0105893:	89 45 e4             	mov    %eax,-0x1c(%ebp)
		width = -1;
		precision = -1;
		lflag = 0;
		altflag = 0;
	reswitch:
		switch (ch = *(unsigned char *) fmt++) {
f0105896:	89 de                	mov    %ebx,%esi
f0105898:	eb 8b                	jmp    f0105825 <vprintfmt+0x71>
f010589a:	89 de                	mov    %ebx,%esi
			if (width < 0)
				width = 0;
			goto reswitch;

		case '#':
			altflag = 1;
f010589c:	c7 45 d8 01 00 00 00 	movl   $0x1,-0x28(%ebp)
			goto reswitch;
f01058a3:	eb 80                	jmp    f0105825 <vprintfmt+0x71>
		width = -1;
		precision = -1;
		lflag = 0;
		altflag = 0;
	reswitch:
		switch (ch = *(unsigned char *) fmt++) {
f01058a5:	89 de                	mov    %ebx,%esi
		case '#':
			altflag = 1;
			goto reswitch;

		process_precision:
			if (width < 0)
f01058a7:	83 7d e4 00          	cmpl   $0x0,-0x1c(%ebp)
f01058ab:	0f 89 74 ff ff ff    	jns    f0105825 <vprintfmt+0x71>
f01058b1:	e9 62 ff ff ff       	jmp    f0105818 <vprintfmt+0x64>
				width = precision, precision = -1;
			goto reswitch;

		// long flag (doubled for long long)
		case 'l':
			lflag++;
f01058b6:	83 c2 01             	add    $0x1,%edx
		width = -1;
		precision = -1;
		lflag = 0;
		altflag = 0;
	reswitch:
		switch (ch = *(unsigned char *) fmt++) {
f01058b9:	89 de                	mov    %ebx,%esi
			goto reswitch;

		// long flag (doubled for long long)
		case 'l':
			lflag++;
			goto reswitch;
f01058bb:	e9 65 ff ff ff       	jmp    f0105825 <vprintfmt+0x71>

		// character
		case 'c':
			putch(va_arg(ap, int), putdat);
f01058c0:	8b 45 14             	mov    0x14(%ebp),%eax
f01058c3:	8d 50 04             	lea    0x4(%eax),%edx
f01058c6:	89 55 14             	mov    %edx,0x14(%ebp)
f01058c9:	89 7c 24 04          	mov    %edi,0x4(%esp)
f01058cd:	8b 00                	mov    (%eax),%eax
f01058cf:	89 04 24             	mov    %eax,(%esp)
f01058d2:	ff 55 08             	call   *0x8(%ebp)
			break;
f01058d5:	e9 03 ff ff ff       	jmp    f01057dd <vprintfmt+0x29>

		// error message
		case 'e':
			err = va_arg(ap, int);
f01058da:	8b 45 14             	mov    0x14(%ebp),%eax
f01058dd:	8d 50 04             	lea    0x4(%eax),%edx
f01058e0:	89 55 14             	mov    %edx,0x14(%ebp)
f01058e3:	8b 00                	mov    (%eax),%eax
f01058e5:	99                   	cltd   
f01058e6:	31 d0                	xor    %edx,%eax
f01058e8:	29 d0                	sub    %edx,%eax
			if (err < 0)
				err = -err;
			if (err >= MAXERROR || (p = error_string[err]) == NULL)
f01058ea:	83 f8 0f             	cmp    $0xf,%eax
f01058ed:	7f 0b                	jg     f01058fa <vprintfmt+0x146>
f01058ef:	8b 14 85 60 87 10 f0 	mov    -0xfef78a0(,%eax,4),%edx
f01058f6:	85 d2                	test   %edx,%edx
f01058f8:	75 20                	jne    f010591a <vprintfmt+0x166>
				printfmt(putch, putdat, "error %d", err);
f01058fa:	89 44 24 0c          	mov    %eax,0xc(%esp)
f01058fe:	c7 44 24 08 d2 84 10 	movl   $0xf01084d2,0x8(%esp)
f0105905:	f0 
f0105906:	89 7c 24 04          	mov    %edi,0x4(%esp)
f010590a:	8b 45 08             	mov    0x8(%ebp),%eax
f010590d:	89 04 24             	mov    %eax,(%esp)
f0105910:	e8 77 fe ff ff       	call   f010578c <printfmt>
f0105915:	e9 c3 fe ff ff       	jmp    f01057dd <vprintfmt+0x29>
			else
				printfmt(putch, putdat, "%s", p);
f010591a:	89 54 24 0c          	mov    %edx,0xc(%esp)
f010591e:	c7 44 24 08 e5 7b 10 	movl   $0xf0107be5,0x8(%esp)
f0105925:	f0 
f0105926:	89 7c 24 04          	mov    %edi,0x4(%esp)
f010592a:	8b 45 08             	mov    0x8(%ebp),%eax
f010592d:	89 04 24             	mov    %eax,(%esp)
f0105930:	e8 57 fe ff ff       	call   f010578c <printfmt>
f0105935:	e9 a3 fe ff ff       	jmp    f01057dd <vprintfmt+0x29>
		width = -1;
		precision = -1;
		lflag = 0;
		altflag = 0;
	reswitch:
		switch (ch = *(unsigned char *) fmt++) {
f010593a:	8b 4d d4             	mov    -0x2c(%ebp),%ecx
f010593d:	8b 75 e4             	mov    -0x1c(%ebp),%esi
				printfmt(putch, putdat, "%s", p);
			break;

		// string
		case 's':
			if ((p = va_arg(ap, char *)) == NULL)
f0105940:	8b 45 14             	mov    0x14(%ebp),%eax
f0105943:	8d 50 04             	lea    0x4(%eax),%edx
f0105946:	89 55 14             	mov    %edx,0x14(%ebp)
f0105949:	8b 00                	mov    (%eax),%eax
				p = "(null)";
f010594b:	85 c0                	test   %eax,%eax
f010594d:	ba cb 84 10 f0       	mov    $0xf01084cb,%edx
f0105952:	0f 45 d0             	cmovne %eax,%edx
f0105955:	89 55 d0             	mov    %edx,-0x30(%ebp)
			if (width > 0 && padc != '-')
f0105958:	80 7d e3 2d          	cmpb   $0x2d,-0x1d(%ebp)
f010595c:	74 04                	je     f0105962 <vprintfmt+0x1ae>
f010595e:	85 f6                	test   %esi,%esi
f0105960:	7f 19                	jg     f010597b <vprintfmt+0x1c7>
				for (width -= strnlen(p, precision); width > 0; width--)
					putch(padc, putdat);
			for (; (ch = *p++) != '\0' && (precision < 0 || --precision >= 0); width--)
f0105962:	8b 45 d0             	mov    -0x30(%ebp),%eax
f0105965:	8d 70 01             	lea    0x1(%eax),%esi
f0105968:	0f b6 10             	movzbl (%eax),%edx
f010596b:	0f be c2             	movsbl %dl,%eax
f010596e:	85 c0                	test   %eax,%eax
f0105970:	0f 85 95 00 00 00    	jne    f0105a0b <vprintfmt+0x257>
f0105976:	e9 85 00 00 00       	jmp    f0105a00 <vprintfmt+0x24c>
		// string
		case 's':
			if ((p = va_arg(ap, char *)) == NULL)
				p = "(null)";
			if (width > 0 && padc != '-')
				for (width -= strnlen(p, precision); width > 0; width--)
f010597b:	89 4c 24 04          	mov    %ecx,0x4(%esp)
f010597f:	8b 45 d0             	mov    -0x30(%ebp),%eax
f0105982:	89 04 24             	mov    %eax,(%esp)
f0105985:	e8 98 03 00 00       	call   f0105d22 <strnlen>
f010598a:	29 c6                	sub    %eax,%esi
f010598c:	89 f0                	mov    %esi,%eax
f010598e:	89 75 e4             	mov    %esi,-0x1c(%ebp)
f0105991:	85 f6                	test   %esi,%esi
f0105993:	7e cd                	jle    f0105962 <vprintfmt+0x1ae>
					putch(padc, putdat);
f0105995:	0f be 75 e3          	movsbl -0x1d(%ebp),%esi
f0105999:	89 5d 10             	mov    %ebx,0x10(%ebp)
f010599c:	89 c3                	mov    %eax,%ebx
f010599e:	89 7c 24 04          	mov    %edi,0x4(%esp)
f01059a2:	89 34 24             	mov    %esi,(%esp)
f01059a5:	ff 55 08             	call   *0x8(%ebp)
		// string
		case 's':
			if ((p = va_arg(ap, char *)) == NULL)
				p = "(null)";
			if (width > 0 && padc != '-')
				for (width -= strnlen(p, precision); width > 0; width--)
f01059a8:	83 eb 01             	sub    $0x1,%ebx
f01059ab:	75 f1                	jne    f010599e <vprintfmt+0x1ea>
f01059ad:	89 5d e4             	mov    %ebx,-0x1c(%ebp)
f01059b0:	8b 5d 10             	mov    0x10(%ebp),%ebx
f01059b3:	eb ad                	jmp    f0105962 <vprintfmt+0x1ae>
					putch(padc, putdat);
			for (; (ch = *p++) != '\0' && (precision < 0 || --precision >= 0); width--)
				if (altflag && (ch < ' ' || ch > '~'))
f01059b5:	83 7d d8 00          	cmpl   $0x0,-0x28(%ebp)
f01059b9:	74 1e                	je     f01059d9 <vprintfmt+0x225>
f01059bb:	0f be d2             	movsbl %dl,%edx
f01059be:	83 ea 20             	sub    $0x20,%edx
f01059c1:	83 fa 5e             	cmp    $0x5e,%edx
f01059c4:	76 13                	jbe    f01059d9 <vprintfmt+0x225>
					putch('?', putdat);
f01059c6:	8b 45 0c             	mov    0xc(%ebp),%eax
f01059c9:	89 44 24 04          	mov    %eax,0x4(%esp)
f01059cd:	c7 04 24 3f 00 00 00 	movl   $0x3f,(%esp)
f01059d4:	ff 55 08             	call   *0x8(%ebp)
f01059d7:	eb 0d                	jmp    f01059e6 <vprintfmt+0x232>
				else
					putch(ch, putdat);
f01059d9:	8b 4d 0c             	mov    0xc(%ebp),%ecx
f01059dc:	89 4c 24 04          	mov    %ecx,0x4(%esp)
f01059e0:	89 04 24             	mov    %eax,(%esp)
f01059e3:	ff 55 08             	call   *0x8(%ebp)
			if ((p = va_arg(ap, char *)) == NULL)
				p = "(null)";
			if (width > 0 && padc != '-')
				for (width -= strnlen(p, precision); width > 0; width--)
					putch(padc, putdat);
			for (; (ch = *p++) != '\0' && (precision < 0 || --precision >= 0); width--)
f01059e6:	83 ef 01             	sub    $0x1,%edi
f01059e9:	83 c6 01             	add    $0x1,%esi
f01059ec:	0f b6 56 ff          	movzbl -0x1(%esi),%edx
f01059f0:	0f be c2             	movsbl %dl,%eax
f01059f3:	85 c0                	test   %eax,%eax
f01059f5:	75 20                	jne    f0105a17 <vprintfmt+0x263>
f01059f7:	89 7d e4             	mov    %edi,-0x1c(%ebp)
f01059fa:	8b 7d 0c             	mov    0xc(%ebp),%edi
f01059fd:	8b 5d 10             	mov    0x10(%ebp),%ebx
				if (altflag && (ch < ' ' || ch > '~'))
					putch('?', putdat);
				else
					putch(ch, putdat);
			for (; width > 0; width--)
f0105a00:	83 7d e4 00          	cmpl   $0x0,-0x1c(%ebp)
f0105a04:	7f 25                	jg     f0105a2b <vprintfmt+0x277>
f0105a06:	e9 d2 fd ff ff       	jmp    f01057dd <vprintfmt+0x29>
f0105a0b:	89 7d 0c             	mov    %edi,0xc(%ebp)
f0105a0e:	8b 7d e4             	mov    -0x1c(%ebp),%edi
f0105a11:	89 5d 10             	mov    %ebx,0x10(%ebp)
f0105a14:	8b 5d d4             	mov    -0x2c(%ebp),%ebx
			if ((p = va_arg(ap, char *)) == NULL)
				p = "(null)";
			if (width > 0 && padc != '-')
				for (width -= strnlen(p, precision); width > 0; width--)
					putch(padc, putdat);
			for (; (ch = *p++) != '\0' && (precision < 0 || --precision >= 0); width--)
f0105a17:	85 db                	test   %ebx,%ebx
f0105a19:	78 9a                	js     f01059b5 <vprintfmt+0x201>
f0105a1b:	83 eb 01             	sub    $0x1,%ebx
f0105a1e:	79 95                	jns    f01059b5 <vprintfmt+0x201>
f0105a20:	89 7d e4             	mov    %edi,-0x1c(%ebp)
f0105a23:	8b 7d 0c             	mov    0xc(%ebp),%edi
f0105a26:	8b 5d 10             	mov    0x10(%ebp),%ebx
f0105a29:	eb d5                	jmp    f0105a00 <vprintfmt+0x24c>
f0105a2b:	8b 75 08             	mov    0x8(%ebp),%esi
f0105a2e:	89 5d 10             	mov    %ebx,0x10(%ebp)
f0105a31:	8b 5d e4             	mov    -0x1c(%ebp),%ebx
				if (altflag && (ch < ' ' || ch > '~'))
					putch('?', putdat);
				else
					putch(ch, putdat);
			for (; width > 0; width--)
				putch(' ', putdat);
f0105a34:	89 7c 24 04          	mov    %edi,0x4(%esp)
f0105a38:	c7 04 24 20 00 00 00 	movl   $0x20,(%esp)
f0105a3f:	ff d6                	call   *%esi
			for (; (ch = *p++) != '\0' && (precision < 0 || --precision >= 0); width--)
				if (altflag && (ch < ' ' || ch > '~'))
					putch('?', putdat);
				else
					putch(ch, putdat);
			for (; width > 0; width--)
f0105a41:	83 eb 01             	sub    $0x1,%ebx
f0105a44:	75 ee                	jne    f0105a34 <vprintfmt+0x280>
f0105a46:	8b 5d 10             	mov    0x10(%ebp),%ebx
f0105a49:	e9 8f fd ff ff       	jmp    f01057dd <vprintfmt+0x29>
// Same as getuint but signed - can't use getuint
// because of sign extension
static long long
getint(va_list *ap, int lflag)
{
	if (lflag >= 2)
f0105a4e:	83 fa 01             	cmp    $0x1,%edx
f0105a51:	7e 16                	jle    f0105a69 <vprintfmt+0x2b5>
		return va_arg(*ap, long long);
f0105a53:	8b 45 14             	mov    0x14(%ebp),%eax
f0105a56:	8d 50 08             	lea    0x8(%eax),%edx
f0105a59:	89 55 14             	mov    %edx,0x14(%ebp)
f0105a5c:	8b 50 04             	mov    0x4(%eax),%edx
f0105a5f:	8b 00                	mov    (%eax),%eax
f0105a61:	89 45 d8             	mov    %eax,-0x28(%ebp)
f0105a64:	89 55 dc             	mov    %edx,-0x24(%ebp)
f0105a67:	eb 32                	jmp    f0105a9b <vprintfmt+0x2e7>
	else if (lflag)
f0105a69:	85 d2                	test   %edx,%edx
f0105a6b:	74 18                	je     f0105a85 <vprintfmt+0x2d1>
		return va_arg(*ap, long);
f0105a6d:	8b 45 14             	mov    0x14(%ebp),%eax
f0105a70:	8d 50 04             	lea    0x4(%eax),%edx
f0105a73:	89 55 14             	mov    %edx,0x14(%ebp)
f0105a76:	8b 30                	mov    (%eax),%esi
f0105a78:	89 75 d8             	mov    %esi,-0x28(%ebp)
f0105a7b:	89 f0                	mov    %esi,%eax
f0105a7d:	c1 f8 1f             	sar    $0x1f,%eax
f0105a80:	89 45 dc             	mov    %eax,-0x24(%ebp)
f0105a83:	eb 16                	jmp    f0105a9b <vprintfmt+0x2e7>
	else
		return va_arg(*ap, int);
f0105a85:	8b 45 14             	mov    0x14(%ebp),%eax
f0105a88:	8d 50 04             	lea    0x4(%eax),%edx
f0105a8b:	89 55 14             	mov    %edx,0x14(%ebp)
f0105a8e:	8b 30                	mov    (%eax),%esi
f0105a90:	89 75 d8             	mov    %esi,-0x28(%ebp)
f0105a93:	89 f0                	mov    %esi,%eax
f0105a95:	c1 f8 1f             	sar    $0x1f,%eax
f0105a98:	89 45 dc             	mov    %eax,-0x24(%ebp)
				putch(' ', putdat);
			break;

		// (signed) decimal
		case 'd':
			num = getint(&ap, lflag);
f0105a9b:	8b 45 d8             	mov    -0x28(%ebp),%eax
f0105a9e:	8b 55 dc             	mov    -0x24(%ebp),%edx
			if ((long long) num < 0) {
				putch('-', putdat);
				num = -(long long) num;
			}
			base = 10;
f0105aa1:	b9 0a 00 00 00       	mov    $0xa,%ecx
			break;

		// (signed) decimal
		case 'd':
			num = getint(&ap, lflag);
			if ((long long) num < 0) {
f0105aa6:	83 7d dc 00          	cmpl   $0x0,-0x24(%ebp)
f0105aaa:	0f 89 80 00 00 00    	jns    f0105b30 <vprintfmt+0x37c>
				putch('-', putdat);
f0105ab0:	89 7c 24 04          	mov    %edi,0x4(%esp)
f0105ab4:	c7 04 24 2d 00 00 00 	movl   $0x2d,(%esp)
f0105abb:	ff 55 08             	call   *0x8(%ebp)
				num = -(long long) num;
f0105abe:	8b 45 d8             	mov    -0x28(%ebp),%eax
f0105ac1:	8b 55 dc             	mov    -0x24(%ebp),%edx
f0105ac4:	f7 d8                	neg    %eax
f0105ac6:	83 d2 00             	adc    $0x0,%edx
f0105ac9:	f7 da                	neg    %edx
			}
			base = 10;
f0105acb:	b9 0a 00 00 00       	mov    $0xa,%ecx
f0105ad0:	eb 5e                	jmp    f0105b30 <vprintfmt+0x37c>
			goto number;

		// unsigned decimal
		case 'u':
			num = getuint(&ap, lflag);
f0105ad2:	8d 45 14             	lea    0x14(%ebp),%eax
f0105ad5:	e8 5b fc ff ff       	call   f0105735 <getuint>
			base = 10;
f0105ada:	b9 0a 00 00 00       	mov    $0xa,%ecx
			goto number;
f0105adf:	eb 4f                	jmp    f0105b30 <vprintfmt+0x37c>

		// (unsigned) octal
		case 'o':
			// Replace this with your code.
			num = getuint(&ap, lflag);
f0105ae1:	8d 45 14             	lea    0x14(%ebp),%eax
f0105ae4:	e8 4c fc ff ff       	call   f0105735 <getuint>
			base = 8;
f0105ae9:	b9 08 00 00 00       	mov    $0x8,%ecx
			goto number;
f0105aee:	eb 40                	jmp    f0105b30 <vprintfmt+0x37c>

		// pointer
		case 'p':
			putch('0', putdat);
f0105af0:	89 7c 24 04          	mov    %edi,0x4(%esp)
f0105af4:	c7 04 24 30 00 00 00 	movl   $0x30,(%esp)
f0105afb:	ff 55 08             	call   *0x8(%ebp)
			putch('x', putdat);
f0105afe:	89 7c 24 04          	mov    %edi,0x4(%esp)
f0105b02:	c7 04 24 78 00 00 00 	movl   $0x78,(%esp)
f0105b09:	ff 55 08             	call   *0x8(%ebp)
			num = (unsigned long long)
				(uintptr_t) va_arg(ap, void *);
f0105b0c:	8b 45 14             	mov    0x14(%ebp),%eax
f0105b0f:	8d 50 04             	lea    0x4(%eax),%edx
f0105b12:	89 55 14             	mov    %edx,0x14(%ebp)

		// pointer
		case 'p':
			putch('0', putdat);
			putch('x', putdat);
			num = (unsigned long long)
f0105b15:	8b 00                	mov    (%eax),%eax
f0105b17:	ba 00 00 00 00       	mov    $0x0,%edx
				(uintptr_t) va_arg(ap, void *);
			base = 16;
f0105b1c:	b9 10 00 00 00       	mov    $0x10,%ecx
			goto number;
f0105b21:	eb 0d                	jmp    f0105b30 <vprintfmt+0x37c>

		// (unsigned) hexadecimal
		case 'x':
			num = getuint(&ap, lflag);
f0105b23:	8d 45 14             	lea    0x14(%ebp),%eax
f0105b26:	e8 0a fc ff ff       	call   f0105735 <getuint>
			base = 16;
f0105b2b:	b9 10 00 00 00       	mov    $0x10,%ecx
		number:
			printnum(putch, putdat, num, base, width, padc);
f0105b30:	0f be 75 e3          	movsbl -0x1d(%ebp),%esi
f0105b34:	89 74 24 10          	mov    %esi,0x10(%esp)
f0105b38:	8b 75 e4             	mov    -0x1c(%ebp),%esi
f0105b3b:	89 74 24 0c          	mov    %esi,0xc(%esp)
f0105b3f:	89 4c 24 08          	mov    %ecx,0x8(%esp)
f0105b43:	89 04 24             	mov    %eax,(%esp)
f0105b46:	89 54 24 04          	mov    %edx,0x4(%esp)
f0105b4a:	89 fa                	mov    %edi,%edx
f0105b4c:	8b 45 08             	mov    0x8(%ebp),%eax
f0105b4f:	e8 ec fa ff ff       	call   f0105640 <printnum>
			break;
f0105b54:	e9 84 fc ff ff       	jmp    f01057dd <vprintfmt+0x29>

		// escaped '%' character
		case '%':
			putch(ch, putdat);
f0105b59:	89 7c 24 04          	mov    %edi,0x4(%esp)
f0105b5d:	89 0c 24             	mov    %ecx,(%esp)
f0105b60:	ff 55 08             	call   *0x8(%ebp)
			break;
f0105b63:	e9 75 fc ff ff       	jmp    f01057dd <vprintfmt+0x29>

		// unrecognized escape sequence - just print it literally
		default:
			putch('%', putdat);
f0105b68:	89 7c 24 04          	mov    %edi,0x4(%esp)
f0105b6c:	c7 04 24 25 00 00 00 	movl   $0x25,(%esp)
f0105b73:	ff 55 08             	call   *0x8(%ebp)
			for (fmt--; fmt[-1] != '%'; fmt--)
f0105b76:	80 7e ff 25          	cmpb   $0x25,-0x1(%esi)
f0105b7a:	0f 84 5b fc ff ff    	je     f01057db <vprintfmt+0x27>
f0105b80:	89 f3                	mov    %esi,%ebx
f0105b82:	83 eb 01             	sub    $0x1,%ebx
f0105b85:	80 7b ff 25          	cmpb   $0x25,-0x1(%ebx)
f0105b89:	75 f7                	jne    f0105b82 <vprintfmt+0x3ce>
f0105b8b:	e9 4d fc ff ff       	jmp    f01057dd <vprintfmt+0x29>
				/* do nothing */;
			break;
		}
	}
}
f0105b90:	83 c4 3c             	add    $0x3c,%esp
f0105b93:	5b                   	pop    %ebx
f0105b94:	5e                   	pop    %esi
f0105b95:	5f                   	pop    %edi
f0105b96:	5d                   	pop    %ebp
f0105b97:	c3                   	ret    

f0105b98 <vsnprintf>:
		*b->buf++ = ch;
}

int
vsnprintf(char *buf, int n, const char *fmt, va_list ap)
{
f0105b98:	55                   	push   %ebp
f0105b99:	89 e5                	mov    %esp,%ebp
f0105b9b:	83 ec 28             	sub    $0x28,%esp
f0105b9e:	8b 45 08             	mov    0x8(%ebp),%eax
f0105ba1:	8b 55 0c             	mov    0xc(%ebp),%edx
	struct sprintbuf b = {buf, buf+n-1, 0};
f0105ba4:	89 45 ec             	mov    %eax,-0x14(%ebp)
f0105ba7:	8d 4c 10 ff          	lea    -0x1(%eax,%edx,1),%ecx
f0105bab:	89 4d f0             	mov    %ecx,-0x10(%ebp)
f0105bae:	c7 45 f4 00 00 00 00 	movl   $0x0,-0xc(%ebp)

	if (buf == NULL || n < 1)
f0105bb5:	85 c0                	test   %eax,%eax
f0105bb7:	74 30                	je     f0105be9 <vsnprintf+0x51>
f0105bb9:	85 d2                	test   %edx,%edx
f0105bbb:	7e 2c                	jle    f0105be9 <vsnprintf+0x51>
		return -E_INVAL;

	// print the string to the buffer
	vprintfmt((void*)sprintputch, &b, fmt, ap);
f0105bbd:	8b 45 14             	mov    0x14(%ebp),%eax
f0105bc0:	89 44 24 0c          	mov    %eax,0xc(%esp)
f0105bc4:	8b 45 10             	mov    0x10(%ebp),%eax
f0105bc7:	89 44 24 08          	mov    %eax,0x8(%esp)
f0105bcb:	8d 45 ec             	lea    -0x14(%ebp),%eax
f0105bce:	89 44 24 04          	mov    %eax,0x4(%esp)
f0105bd2:	c7 04 24 6f 57 10 f0 	movl   $0xf010576f,(%esp)
f0105bd9:	e8 d6 fb ff ff       	call   f01057b4 <vprintfmt>

	// null terminate the buffer
	*b.buf = '\0';
f0105bde:	8b 45 ec             	mov    -0x14(%ebp),%eax
f0105be1:	c6 00 00             	movb   $0x0,(%eax)

	return b.cnt;
f0105be4:	8b 45 f4             	mov    -0xc(%ebp),%eax
f0105be7:	eb 05                	jmp    f0105bee <vsnprintf+0x56>
vsnprintf(char *buf, int n, const char *fmt, va_list ap)
{
	struct sprintbuf b = {buf, buf+n-1, 0};

	if (buf == NULL || n < 1)
		return -E_INVAL;
f0105be9:	b8 fd ff ff ff       	mov    $0xfffffffd,%eax

	// null terminate the buffer
	*b.buf = '\0';

	return b.cnt;
}
f0105bee:	c9                   	leave  
f0105bef:	c3                   	ret    

f0105bf0 <snprintf>:

int
snprintf(char *buf, int n, const char *fmt, ...)
{
f0105bf0:	55                   	push   %ebp
f0105bf1:	89 e5                	mov    %esp,%ebp
f0105bf3:	83 ec 18             	sub    $0x18,%esp
	va_list ap;
	int rc;

	va_start(ap, fmt);
f0105bf6:	8d 45 14             	lea    0x14(%ebp),%eax
	rc = vsnprintf(buf, n, fmt, ap);
f0105bf9:	89 44 24 0c          	mov    %eax,0xc(%esp)
f0105bfd:	8b 45 10             	mov    0x10(%ebp),%eax
f0105c00:	89 44 24 08          	mov    %eax,0x8(%esp)
f0105c04:	8b 45 0c             	mov    0xc(%ebp),%eax
f0105c07:	89 44 24 04          	mov    %eax,0x4(%esp)
f0105c0b:	8b 45 08             	mov    0x8(%ebp),%eax
f0105c0e:	89 04 24             	mov    %eax,(%esp)
f0105c11:	e8 82 ff ff ff       	call   f0105b98 <vsnprintf>
	va_end(ap);

	return rc;
}
f0105c16:	c9                   	leave  
f0105c17:	c3                   	ret    
f0105c18:	66 90                	xchg   %ax,%ax
f0105c1a:	66 90                	xchg   %ax,%ax
f0105c1c:	66 90                	xchg   %ax,%ax
f0105c1e:	66 90                	xchg   %ax,%ax

f0105c20 <readline>:
#define BUFLEN 1024
static char buf[BUFLEN];

char *
readline(const char *prompt)
{
f0105c20:	55                   	push   %ebp
f0105c21:	89 e5                	mov    %esp,%ebp
f0105c23:	57                   	push   %edi
f0105c24:	56                   	push   %esi
f0105c25:	53                   	push   %ebx
f0105c26:	83 ec 1c             	sub    $0x1c,%esp
f0105c29:	8b 45 08             	mov    0x8(%ebp),%eax
	int i, c, echoing;

#if JOS_KERNEL
	if (prompt != NULL)
f0105c2c:	85 c0                	test   %eax,%eax
f0105c2e:	74 10                	je     f0105c40 <readline+0x20>
		cprintf("%s", prompt);
f0105c30:	89 44 24 04          	mov    %eax,0x4(%esp)
f0105c34:	c7 04 24 e5 7b 10 f0 	movl   $0xf0107be5,(%esp)
f0105c3b:	e8 25 e5 ff ff       	call   f0104165 <cprintf>
	if (prompt != NULL)
		fprintf(1, "%s", prompt);
#endif

	i = 0;
	echoing = iscons(0);
f0105c40:	c7 04 24 00 00 00 00 	movl   $0x0,(%esp)
f0105c47:	e8 c0 ab ff ff       	call   f010080c <iscons>
f0105c4c:	89 c7                	mov    %eax,%edi
#else
	if (prompt != NULL)
		fprintf(1, "%s", prompt);
#endif

	i = 0;
f0105c4e:	be 00 00 00 00       	mov    $0x0,%esi
	echoing = iscons(0);
	while (1) {
		c = getchar();
f0105c53:	e8 a3 ab ff ff       	call   f01007fb <getchar>
f0105c58:	89 c3                	mov    %eax,%ebx
		if (c < 0) {
f0105c5a:	85 c0                	test   %eax,%eax
f0105c5c:	79 25                	jns    f0105c83 <readline+0x63>
			if (c != -E_EOF)
				cprintf("read error: %e\n", c);
			return NULL;
f0105c5e:	b8 00 00 00 00       	mov    $0x0,%eax
	i = 0;
	echoing = iscons(0);
	while (1) {
		c = getchar();
		if (c < 0) {
			if (c != -E_EOF)
f0105c63:	83 fb f8             	cmp    $0xfffffff8,%ebx
f0105c66:	0f 84 89 00 00 00    	je     f0105cf5 <readline+0xd5>
				cprintf("read error: %e\n", c);
f0105c6c:	89 5c 24 04          	mov    %ebx,0x4(%esp)
f0105c70:	c7 04 24 bf 87 10 f0 	movl   $0xf01087bf,(%esp)
f0105c77:	e8 e9 e4 ff ff       	call   f0104165 <cprintf>
			return NULL;
f0105c7c:	b8 00 00 00 00       	mov    $0x0,%eax
f0105c81:	eb 72                	jmp    f0105cf5 <readline+0xd5>
		} else if ((c == '\b' || c == '\x7f') && i > 0) {
f0105c83:	83 f8 7f             	cmp    $0x7f,%eax
f0105c86:	74 05                	je     f0105c8d <readline+0x6d>
f0105c88:	83 f8 08             	cmp    $0x8,%eax
f0105c8b:	75 1a                	jne    f0105ca7 <readline+0x87>
f0105c8d:	85 f6                	test   %esi,%esi
f0105c8f:	90                   	nop
f0105c90:	7e 15                	jle    f0105ca7 <readline+0x87>
			if (echoing)
f0105c92:	85 ff                	test   %edi,%edi
f0105c94:	74 0c                	je     f0105ca2 <readline+0x82>
				cputchar('\b');
f0105c96:	c7 04 24 08 00 00 00 	movl   $0x8,(%esp)
f0105c9d:	e8 49 ab ff ff       	call   f01007eb <cputchar>
			i--;
f0105ca2:	83 ee 01             	sub    $0x1,%esi
f0105ca5:	eb ac                	jmp    f0105c53 <readline+0x33>
		} else if (c >= ' ' && i < BUFLEN-1) {
f0105ca7:	81 fe fe 03 00 00    	cmp    $0x3fe,%esi
f0105cad:	7f 1c                	jg     f0105ccb <readline+0xab>
f0105caf:	83 fb 1f             	cmp    $0x1f,%ebx
f0105cb2:	7e 17                	jle    f0105ccb <readline+0xab>
			if (echoing)
f0105cb4:	85 ff                	test   %edi,%edi
f0105cb6:	74 08                	je     f0105cc0 <readline+0xa0>
				cputchar(c);
f0105cb8:	89 1c 24             	mov    %ebx,(%esp)
f0105cbb:	e8 2b ab ff ff       	call   f01007eb <cputchar>
			buf[i++] = c;
f0105cc0:	88 9e 80 3a 20 f0    	mov    %bl,-0xfdfc580(%esi)
f0105cc6:	8d 76 01             	lea    0x1(%esi),%esi
f0105cc9:	eb 88                	jmp    f0105c53 <readline+0x33>
		} else if (c == '\n' || c == '\r') {
f0105ccb:	83 fb 0d             	cmp    $0xd,%ebx
f0105cce:	74 09                	je     f0105cd9 <readline+0xb9>
f0105cd0:	83 fb 0a             	cmp    $0xa,%ebx
f0105cd3:	0f 85 7a ff ff ff    	jne    f0105c53 <readline+0x33>
			if (echoing)
f0105cd9:	85 ff                	test   %edi,%edi
f0105cdb:	74 0c                	je     f0105ce9 <readline+0xc9>
				cputchar('\n');
f0105cdd:	c7 04 24 0a 00 00 00 	movl   $0xa,(%esp)
f0105ce4:	e8 02 ab ff ff       	call   f01007eb <cputchar>
			buf[i] = 0;
f0105ce9:	c6 86 80 3a 20 f0 00 	movb   $0x0,-0xfdfc580(%esi)
			return buf;
f0105cf0:	b8 80 3a 20 f0       	mov    $0xf0203a80,%eax
		}
	}
}
f0105cf5:	83 c4 1c             	add    $0x1c,%esp
f0105cf8:	5b                   	pop    %ebx
f0105cf9:	5e                   	pop    %esi
f0105cfa:	5f                   	pop    %edi
f0105cfb:	5d                   	pop    %ebp
f0105cfc:	c3                   	ret    
f0105cfd:	66 90                	xchg   %ax,%ax
f0105cff:	90                   	nop

f0105d00 <strlen>:
// Primespipe runs 3x faster this way.
#define ASM 1

int
strlen(const char *s)
{
f0105d00:	55                   	push   %ebp
f0105d01:	89 e5                	mov    %esp,%ebp
f0105d03:	8b 55 08             	mov    0x8(%ebp),%edx
	int n;

	for (n = 0; *s != '\0'; s++)
f0105d06:	80 3a 00             	cmpb   $0x0,(%edx)
f0105d09:	74 10                	je     f0105d1b <strlen+0x1b>
f0105d0b:	b8 00 00 00 00       	mov    $0x0,%eax
		n++;
f0105d10:	83 c0 01             	add    $0x1,%eax
int
strlen(const char *s)
{
	int n;

	for (n = 0; *s != '\0'; s++)
f0105d13:	80 3c 02 00          	cmpb   $0x0,(%edx,%eax,1)
f0105d17:	75 f7                	jne    f0105d10 <strlen+0x10>
f0105d19:	eb 05                	jmp    f0105d20 <strlen+0x20>
f0105d1b:	b8 00 00 00 00       	mov    $0x0,%eax
		n++;
	return n;
}
f0105d20:	5d                   	pop    %ebp
f0105d21:	c3                   	ret    

f0105d22 <strnlen>:

int
strnlen(const char *s, size_t size)
{
f0105d22:	55                   	push   %ebp
f0105d23:	89 e5                	mov    %esp,%ebp
f0105d25:	53                   	push   %ebx
f0105d26:	8b 5d 08             	mov    0x8(%ebp),%ebx
f0105d29:	8b 4d 0c             	mov    0xc(%ebp),%ecx
	int n;

	for (n = 0; size > 0 && *s != '\0'; s++, size--)
f0105d2c:	85 c9                	test   %ecx,%ecx
f0105d2e:	74 1c                	je     f0105d4c <strnlen+0x2a>
f0105d30:	80 3b 00             	cmpb   $0x0,(%ebx)
f0105d33:	74 1e                	je     f0105d53 <strnlen+0x31>
f0105d35:	ba 01 00 00 00       	mov    $0x1,%edx
		n++;
f0105d3a:	89 d0                	mov    %edx,%eax
int
strnlen(const char *s, size_t size)
{
	int n;

	for (n = 0; size > 0 && *s != '\0'; s++, size--)
f0105d3c:	39 ca                	cmp    %ecx,%edx
f0105d3e:	74 18                	je     f0105d58 <strnlen+0x36>
f0105d40:	83 c2 01             	add    $0x1,%edx
f0105d43:	80 7c 13 ff 00       	cmpb   $0x0,-0x1(%ebx,%edx,1)
f0105d48:	75 f0                	jne    f0105d3a <strnlen+0x18>
f0105d4a:	eb 0c                	jmp    f0105d58 <strnlen+0x36>
f0105d4c:	b8 00 00 00 00       	mov    $0x0,%eax
f0105d51:	eb 05                	jmp    f0105d58 <strnlen+0x36>
f0105d53:	b8 00 00 00 00       	mov    $0x0,%eax
		n++;
	return n;
}
f0105d58:	5b                   	pop    %ebx
f0105d59:	5d                   	pop    %ebp
f0105d5a:	c3                   	ret    

f0105d5b <strcpy>:

char *
strcpy(char *dst, const char *src)
{
f0105d5b:	55                   	push   %ebp
f0105d5c:	89 e5                	mov    %esp,%ebp
f0105d5e:	53                   	push   %ebx
f0105d5f:	8b 45 08             	mov    0x8(%ebp),%eax
f0105d62:	8b 4d 0c             	mov    0xc(%ebp),%ecx
	char *ret;

	ret = dst;
	while ((*dst++ = *src++) != '\0')
f0105d65:	89 c2                	mov    %eax,%edx
f0105d67:	83 c2 01             	add    $0x1,%edx
f0105d6a:	83 c1 01             	add    $0x1,%ecx
f0105d6d:	0f b6 59 ff          	movzbl -0x1(%ecx),%ebx
f0105d71:	88 5a ff             	mov    %bl,-0x1(%edx)
f0105d74:	84 db                	test   %bl,%bl
f0105d76:	75 ef                	jne    f0105d67 <strcpy+0xc>
		/* do nothing */;
	return ret;
}
f0105d78:	5b                   	pop    %ebx
f0105d79:	5d                   	pop    %ebp
f0105d7a:	c3                   	ret    

f0105d7b <strcat>:

char *
strcat(char *dst, const char *src)
{
f0105d7b:	55                   	push   %ebp
f0105d7c:	89 e5                	mov    %esp,%ebp
f0105d7e:	53                   	push   %ebx
f0105d7f:	83 ec 08             	sub    $0x8,%esp
f0105d82:	8b 5d 08             	mov    0x8(%ebp),%ebx
	int len = strlen(dst);
f0105d85:	89 1c 24             	mov    %ebx,(%esp)
f0105d88:	e8 73 ff ff ff       	call   f0105d00 <strlen>
	strcpy(dst + len, src);
f0105d8d:	8b 55 0c             	mov    0xc(%ebp),%edx
f0105d90:	89 54 24 04          	mov    %edx,0x4(%esp)
f0105d94:	01 d8                	add    %ebx,%eax
f0105d96:	89 04 24             	mov    %eax,(%esp)
f0105d99:	e8 bd ff ff ff       	call   f0105d5b <strcpy>
	return dst;
}
f0105d9e:	89 d8                	mov    %ebx,%eax
f0105da0:	83 c4 08             	add    $0x8,%esp
f0105da3:	5b                   	pop    %ebx
f0105da4:	5d                   	pop    %ebp
f0105da5:	c3                   	ret    

f0105da6 <strncpy>:

char *
strncpy(char *dst, const char *src, size_t size) {
f0105da6:	55                   	push   %ebp
f0105da7:	89 e5                	mov    %esp,%ebp
f0105da9:	56                   	push   %esi
f0105daa:	53                   	push   %ebx
f0105dab:	8b 75 08             	mov    0x8(%ebp),%esi
f0105dae:	8b 55 0c             	mov    0xc(%ebp),%edx
f0105db1:	8b 5d 10             	mov    0x10(%ebp),%ebx
	size_t i;
	char *ret;

	ret = dst;
	for (i = 0; i < size; i++) {
f0105db4:	85 db                	test   %ebx,%ebx
f0105db6:	74 17                	je     f0105dcf <strncpy+0x29>
f0105db8:	01 f3                	add    %esi,%ebx
f0105dba:	89 f1                	mov    %esi,%ecx
		*dst++ = *src;
f0105dbc:	83 c1 01             	add    $0x1,%ecx
f0105dbf:	0f b6 02             	movzbl (%edx),%eax
f0105dc2:	88 41 ff             	mov    %al,-0x1(%ecx)
		// If strlen(src) < size, null-pad 'dst' out to 'size' chars
		if (*src != '\0')
			src++;
f0105dc5:	80 3a 01             	cmpb   $0x1,(%edx)
f0105dc8:	83 da ff             	sbb    $0xffffffff,%edx
strncpy(char *dst, const char *src, size_t size) {
	size_t i;
	char *ret;

	ret = dst;
	for (i = 0; i < size; i++) {
f0105dcb:	39 d9                	cmp    %ebx,%ecx
f0105dcd:	75 ed                	jne    f0105dbc <strncpy+0x16>
		// If strlen(src) < size, null-pad 'dst' out to 'size' chars
		if (*src != '\0')
			src++;
	}
	return ret;
}
f0105dcf:	89 f0                	mov    %esi,%eax
f0105dd1:	5b                   	pop    %ebx
f0105dd2:	5e                   	pop    %esi
f0105dd3:	5d                   	pop    %ebp
f0105dd4:	c3                   	ret    

f0105dd5 <strlcpy>:

size_t
strlcpy(char *dst, const char *src, size_t size)
{
f0105dd5:	55                   	push   %ebp
f0105dd6:	89 e5                	mov    %esp,%ebp
f0105dd8:	57                   	push   %edi
f0105dd9:	56                   	push   %esi
f0105dda:	53                   	push   %ebx
f0105ddb:	8b 7d 08             	mov    0x8(%ebp),%edi
f0105dde:	8b 5d 0c             	mov    0xc(%ebp),%ebx
f0105de1:	8b 75 10             	mov    0x10(%ebp),%esi
f0105de4:	89 f8                	mov    %edi,%eax
	char *dst_in;

	dst_in = dst;
	if (size > 0) {
f0105de6:	85 f6                	test   %esi,%esi
f0105de8:	74 34                	je     f0105e1e <strlcpy+0x49>
		while (--size > 0 && *src != '\0')
f0105dea:	83 fe 01             	cmp    $0x1,%esi
f0105ded:	74 26                	je     f0105e15 <strlcpy+0x40>
f0105def:	0f b6 0b             	movzbl (%ebx),%ecx
f0105df2:	84 c9                	test   %cl,%cl
f0105df4:	74 23                	je     f0105e19 <strlcpy+0x44>
f0105df6:	83 ee 02             	sub    $0x2,%esi
f0105df9:	ba 00 00 00 00       	mov    $0x0,%edx
			*dst++ = *src++;
f0105dfe:	83 c0 01             	add    $0x1,%eax
f0105e01:	88 48 ff             	mov    %cl,-0x1(%eax)
{
	char *dst_in;

	dst_in = dst;
	if (size > 0) {
		while (--size > 0 && *src != '\0')
f0105e04:	39 f2                	cmp    %esi,%edx
f0105e06:	74 13                	je     f0105e1b <strlcpy+0x46>
f0105e08:	83 c2 01             	add    $0x1,%edx
f0105e0b:	0f b6 0c 13          	movzbl (%ebx,%edx,1),%ecx
f0105e0f:	84 c9                	test   %cl,%cl
f0105e11:	75 eb                	jne    f0105dfe <strlcpy+0x29>
f0105e13:	eb 06                	jmp    f0105e1b <strlcpy+0x46>
f0105e15:	89 f8                	mov    %edi,%eax
f0105e17:	eb 02                	jmp    f0105e1b <strlcpy+0x46>
f0105e19:	89 f8                	mov    %edi,%eax
			*dst++ = *src++;
		*dst = '\0';
f0105e1b:	c6 00 00             	movb   $0x0,(%eax)
	}
	return dst - dst_in;
f0105e1e:	29 f8                	sub    %edi,%eax
}
f0105e20:	5b                   	pop    %ebx
f0105e21:	5e                   	pop    %esi
f0105e22:	5f                   	pop    %edi
f0105e23:	5d                   	pop    %ebp
f0105e24:	c3                   	ret    

f0105e25 <strcmp>:

int
strcmp(const char *p, const char *q)
{
f0105e25:	55                   	push   %ebp
f0105e26:	89 e5                	mov    %esp,%ebp
f0105e28:	8b 4d 08             	mov    0x8(%ebp),%ecx
f0105e2b:	8b 55 0c             	mov    0xc(%ebp),%edx
	while (*p && *p == *q)
f0105e2e:	0f b6 01             	movzbl (%ecx),%eax
f0105e31:	84 c0                	test   %al,%al
f0105e33:	74 15                	je     f0105e4a <strcmp+0x25>
f0105e35:	3a 02                	cmp    (%edx),%al
f0105e37:	75 11                	jne    f0105e4a <strcmp+0x25>
		p++, q++;
f0105e39:	83 c1 01             	add    $0x1,%ecx
f0105e3c:	83 c2 01             	add    $0x1,%edx
}

int
strcmp(const char *p, const char *q)
{
	while (*p && *p == *q)
f0105e3f:	0f b6 01             	movzbl (%ecx),%eax
f0105e42:	84 c0                	test   %al,%al
f0105e44:	74 04                	je     f0105e4a <strcmp+0x25>
f0105e46:	3a 02                	cmp    (%edx),%al
f0105e48:	74 ef                	je     f0105e39 <strcmp+0x14>
		p++, q++;
	return (int) ((unsigned char) *p - (unsigned char) *q);
f0105e4a:	0f b6 c0             	movzbl %al,%eax
f0105e4d:	0f b6 12             	movzbl (%edx),%edx
f0105e50:	29 d0                	sub    %edx,%eax
}
f0105e52:	5d                   	pop    %ebp
f0105e53:	c3                   	ret    

f0105e54 <strncmp>:

int
strncmp(const char *p, const char *q, size_t n)
{
f0105e54:	55                   	push   %ebp
f0105e55:	89 e5                	mov    %esp,%ebp
f0105e57:	56                   	push   %esi
f0105e58:	53                   	push   %ebx
f0105e59:	8b 5d 08             	mov    0x8(%ebp),%ebx
f0105e5c:	8b 55 0c             	mov    0xc(%ebp),%edx
f0105e5f:	8b 75 10             	mov    0x10(%ebp),%esi
	while (n > 0 && *p && *p == *q)
f0105e62:	85 f6                	test   %esi,%esi
f0105e64:	74 29                	je     f0105e8f <strncmp+0x3b>
f0105e66:	0f b6 03             	movzbl (%ebx),%eax
f0105e69:	84 c0                	test   %al,%al
f0105e6b:	74 30                	je     f0105e9d <strncmp+0x49>
f0105e6d:	3a 02                	cmp    (%edx),%al
f0105e6f:	75 2c                	jne    f0105e9d <strncmp+0x49>
f0105e71:	8d 43 01             	lea    0x1(%ebx),%eax
f0105e74:	01 de                	add    %ebx,%esi
		n--, p++, q++;
f0105e76:	89 c3                	mov    %eax,%ebx
f0105e78:	83 c2 01             	add    $0x1,%edx
}

int
strncmp(const char *p, const char *q, size_t n)
{
	while (n > 0 && *p && *p == *q)
f0105e7b:	39 f0                	cmp    %esi,%eax
f0105e7d:	74 17                	je     f0105e96 <strncmp+0x42>
f0105e7f:	0f b6 08             	movzbl (%eax),%ecx
f0105e82:	84 c9                	test   %cl,%cl
f0105e84:	74 17                	je     f0105e9d <strncmp+0x49>
f0105e86:	83 c0 01             	add    $0x1,%eax
f0105e89:	3a 0a                	cmp    (%edx),%cl
f0105e8b:	74 e9                	je     f0105e76 <strncmp+0x22>
f0105e8d:	eb 0e                	jmp    f0105e9d <strncmp+0x49>
		n--, p++, q++;
	if (n == 0)
		return 0;
f0105e8f:	b8 00 00 00 00       	mov    $0x0,%eax
f0105e94:	eb 0f                	jmp    f0105ea5 <strncmp+0x51>
f0105e96:	b8 00 00 00 00       	mov    $0x0,%eax
f0105e9b:	eb 08                	jmp    f0105ea5 <strncmp+0x51>
	else
		return (int) ((unsigned char) *p - (unsigned char) *q);
f0105e9d:	0f b6 03             	movzbl (%ebx),%eax
f0105ea0:	0f b6 12             	movzbl (%edx),%edx
f0105ea3:	29 d0                	sub    %edx,%eax
}
f0105ea5:	5b                   	pop    %ebx
f0105ea6:	5e                   	pop    %esi
f0105ea7:	5d                   	pop    %ebp
f0105ea8:	c3                   	ret    

f0105ea9 <strchr>:

// Return a pointer to the first occurrence of 'c' in 's',
// or a null pointer if the string has no 'c'.
char *
strchr(const char *s, char c)
{
f0105ea9:	55                   	push   %ebp
f0105eaa:	89 e5                	mov    %esp,%ebp
f0105eac:	53                   	push   %ebx
f0105ead:	8b 45 08             	mov    0x8(%ebp),%eax
f0105eb0:	8b 55 0c             	mov    0xc(%ebp),%edx
	for (; *s; s++)
f0105eb3:	0f b6 18             	movzbl (%eax),%ebx
f0105eb6:	84 db                	test   %bl,%bl
f0105eb8:	74 1d                	je     f0105ed7 <strchr+0x2e>
f0105eba:	89 d1                	mov    %edx,%ecx
		if (*s == c)
f0105ebc:	38 d3                	cmp    %dl,%bl
f0105ebe:	75 06                	jne    f0105ec6 <strchr+0x1d>
f0105ec0:	eb 1a                	jmp    f0105edc <strchr+0x33>
f0105ec2:	38 ca                	cmp    %cl,%dl
f0105ec4:	74 16                	je     f0105edc <strchr+0x33>
// Return a pointer to the first occurrence of 'c' in 's',
// or a null pointer if the string has no 'c'.
char *
strchr(const char *s, char c)
{
	for (; *s; s++)
f0105ec6:	83 c0 01             	add    $0x1,%eax
f0105ec9:	0f b6 10             	movzbl (%eax),%edx
f0105ecc:	84 d2                	test   %dl,%dl
f0105ece:	75 f2                	jne    f0105ec2 <strchr+0x19>
		if (*s == c)
			return (char *) s;
	return 0;
f0105ed0:	b8 00 00 00 00       	mov    $0x0,%eax
f0105ed5:	eb 05                	jmp    f0105edc <strchr+0x33>
f0105ed7:	b8 00 00 00 00       	mov    $0x0,%eax
}
f0105edc:	5b                   	pop    %ebx
f0105edd:	5d                   	pop    %ebp
f0105ede:	c3                   	ret    

f0105edf <strfind>:

// Return a pointer to the first occurrence of 'c' in 's',
// or a pointer to the string-ending null character if the string has no 'c'.
char *
strfind(const char *s, char c)
{
f0105edf:	55                   	push   %ebp
f0105ee0:	89 e5                	mov    %esp,%ebp
f0105ee2:	53                   	push   %ebx
f0105ee3:	8b 45 08             	mov    0x8(%ebp),%eax
f0105ee6:	8b 55 0c             	mov    0xc(%ebp),%edx
	for (; *s; s++)
f0105ee9:	0f b6 18             	movzbl (%eax),%ebx
f0105eec:	84 db                	test   %bl,%bl
f0105eee:	74 16                	je     f0105f06 <strfind+0x27>
f0105ef0:	89 d1                	mov    %edx,%ecx
		if (*s == c)
f0105ef2:	38 d3                	cmp    %dl,%bl
f0105ef4:	75 06                	jne    f0105efc <strfind+0x1d>
f0105ef6:	eb 0e                	jmp    f0105f06 <strfind+0x27>
f0105ef8:	38 ca                	cmp    %cl,%dl
f0105efa:	74 0a                	je     f0105f06 <strfind+0x27>
// Return a pointer to the first occurrence of 'c' in 's',
// or a pointer to the string-ending null character if the string has no 'c'.
char *
strfind(const char *s, char c)
{
	for (; *s; s++)
f0105efc:	83 c0 01             	add    $0x1,%eax
f0105eff:	0f b6 10             	movzbl (%eax),%edx
f0105f02:	84 d2                	test   %dl,%dl
f0105f04:	75 f2                	jne    f0105ef8 <strfind+0x19>
		if (*s == c)
			break;
	return (char *) s;
}
f0105f06:	5b                   	pop    %ebx
f0105f07:	5d                   	pop    %ebp
f0105f08:	c3                   	ret    

f0105f09 <memset>:

#if ASM
void *
memset(void *v, int c, size_t n)
{
f0105f09:	55                   	push   %ebp
f0105f0a:	89 e5                	mov    %esp,%ebp
f0105f0c:	57                   	push   %edi
f0105f0d:	56                   	push   %esi
f0105f0e:	53                   	push   %ebx
f0105f0f:	8b 7d 08             	mov    0x8(%ebp),%edi
f0105f12:	8b 4d 10             	mov    0x10(%ebp),%ecx
	char *p;

	if (n == 0)
f0105f15:	85 c9                	test   %ecx,%ecx
f0105f17:	74 36                	je     f0105f4f <memset+0x46>
		return v;
	if ((int)v%4 == 0 && n%4 == 0) {
f0105f19:	f7 c7 03 00 00 00    	test   $0x3,%edi
f0105f1f:	75 28                	jne    f0105f49 <memset+0x40>
f0105f21:	f6 c1 03             	test   $0x3,%cl
f0105f24:	75 23                	jne    f0105f49 <memset+0x40>
		c &= 0xFF;
f0105f26:	0f b6 55 0c          	movzbl 0xc(%ebp),%edx
		c = (c<<24)|(c<<16)|(c<<8)|c;
f0105f2a:	89 d3                	mov    %edx,%ebx
f0105f2c:	c1 e3 08             	shl    $0x8,%ebx
f0105f2f:	89 d6                	mov    %edx,%esi
f0105f31:	c1 e6 18             	shl    $0x18,%esi
f0105f34:	89 d0                	mov    %edx,%eax
f0105f36:	c1 e0 10             	shl    $0x10,%eax
f0105f39:	09 f0                	or     %esi,%eax
f0105f3b:	09 c2                	or     %eax,%edx
f0105f3d:	89 d0                	mov    %edx,%eax
f0105f3f:	09 d8                	or     %ebx,%eax
		asm volatile("cld; rep stosl\n"
			:: "D" (v), "a" (c), "c" (n/4)
f0105f41:	c1 e9 02             	shr    $0x2,%ecx
	if (n == 0)
		return v;
	if ((int)v%4 == 0 && n%4 == 0) {
		c &= 0xFF;
		c = (c<<24)|(c<<16)|(c<<8)|c;
		asm volatile("cld; rep stosl\n"
f0105f44:	fc                   	cld    
f0105f45:	f3 ab                	rep stos %eax,%es:(%edi)
f0105f47:	eb 06                	jmp    f0105f4f <memset+0x46>
			:: "D" (v), "a" (c), "c" (n/4)
			: "cc", "memory");
	} else
		asm volatile("cld; rep stosb\n"
f0105f49:	8b 45 0c             	mov    0xc(%ebp),%eax
f0105f4c:	fc                   	cld    
f0105f4d:	f3 aa                	rep stos %al,%es:(%edi)
			:: "D" (v), "a" (c), "c" (n)
			: "cc", "memory");
	return v;
}
f0105f4f:	89 f8                	mov    %edi,%eax
f0105f51:	5b                   	pop    %ebx
f0105f52:	5e                   	pop    %esi
f0105f53:	5f                   	pop    %edi
f0105f54:	5d                   	pop    %ebp
f0105f55:	c3                   	ret    

f0105f56 <memmove>:

void *
memmove(void *dst, const void *src, size_t n)
{
f0105f56:	55                   	push   %ebp
f0105f57:	89 e5                	mov    %esp,%ebp
f0105f59:	57                   	push   %edi
f0105f5a:	56                   	push   %esi
f0105f5b:	8b 45 08             	mov    0x8(%ebp),%eax
f0105f5e:	8b 75 0c             	mov    0xc(%ebp),%esi
f0105f61:	8b 4d 10             	mov    0x10(%ebp),%ecx
	const char *s;
	char *d;

	s = src;
	d = dst;
	if (s < d && s + n > d) {
f0105f64:	39 c6                	cmp    %eax,%esi
f0105f66:	73 35                	jae    f0105f9d <memmove+0x47>
f0105f68:	8d 14 0e             	lea    (%esi,%ecx,1),%edx
f0105f6b:	39 d0                	cmp    %edx,%eax
f0105f6d:	73 2e                	jae    f0105f9d <memmove+0x47>
		s += n;
		d += n;
f0105f6f:	8d 3c 08             	lea    (%eax,%ecx,1),%edi
f0105f72:	89 d6                	mov    %edx,%esi
f0105f74:	09 fe                	or     %edi,%esi
		if ((int)s%4 == 0 && (int)d%4 == 0 && n%4 == 0)
f0105f76:	f7 c6 03 00 00 00    	test   $0x3,%esi
f0105f7c:	75 13                	jne    f0105f91 <memmove+0x3b>
f0105f7e:	f6 c1 03             	test   $0x3,%cl
f0105f81:	75 0e                	jne    f0105f91 <memmove+0x3b>
			asm volatile("std; rep movsl\n"
				:: "D" (d-4), "S" (s-4), "c" (n/4) : "cc", "memory");
f0105f83:	83 ef 04             	sub    $0x4,%edi
f0105f86:	8d 72 fc             	lea    -0x4(%edx),%esi
f0105f89:	c1 e9 02             	shr    $0x2,%ecx
	d = dst;
	if (s < d && s + n > d) {
		s += n;
		d += n;
		if ((int)s%4 == 0 && (int)d%4 == 0 && n%4 == 0)
			asm volatile("std; rep movsl\n"
f0105f8c:	fd                   	std    
f0105f8d:	f3 a5                	rep movsl %ds:(%esi),%es:(%edi)
f0105f8f:	eb 09                	jmp    f0105f9a <memmove+0x44>
				:: "D" (d-4), "S" (s-4), "c" (n/4) : "cc", "memory");
		else
			asm volatile("std; rep movsb\n"
				:: "D" (d-1), "S" (s-1), "c" (n) : "cc", "memory");
f0105f91:	83 ef 01             	sub    $0x1,%edi
f0105f94:	8d 72 ff             	lea    -0x1(%edx),%esi
		d += n;
		if ((int)s%4 == 0 && (int)d%4 == 0 && n%4 == 0)
			asm volatile("std; rep movsl\n"
				:: "D" (d-4), "S" (s-4), "c" (n/4) : "cc", "memory");
		else
			asm volatile("std; rep movsb\n"
f0105f97:	fd                   	std    
f0105f98:	f3 a4                	rep movsb %ds:(%esi),%es:(%edi)
				:: "D" (d-1), "S" (s-1), "c" (n) : "cc", "memory");
		// Some versions of GCC rely on DF being clear
		asm volatile("cld" ::: "cc");
f0105f9a:	fc                   	cld    
f0105f9b:	eb 1d                	jmp    f0105fba <memmove+0x64>
f0105f9d:	89 f2                	mov    %esi,%edx
f0105f9f:	09 c2                	or     %eax,%edx
	} else {
		if ((int)s%4 == 0 && (int)d%4 == 0 && n%4 == 0)
f0105fa1:	f6 c2 03             	test   $0x3,%dl
f0105fa4:	75 0f                	jne    f0105fb5 <memmove+0x5f>
f0105fa6:	f6 c1 03             	test   $0x3,%cl
f0105fa9:	75 0a                	jne    f0105fb5 <memmove+0x5f>
			asm volatile("cld; rep movsl\n"
				:: "D" (d), "S" (s), "c" (n/4) : "cc", "memory");
f0105fab:	c1 e9 02             	shr    $0x2,%ecx
				:: "D" (d-1), "S" (s-1), "c" (n) : "cc", "memory");
		// Some versions of GCC rely on DF being clear
		asm volatile("cld" ::: "cc");
	} else {
		if ((int)s%4 == 0 && (int)d%4 == 0 && n%4 == 0)
			asm volatile("cld; rep movsl\n"
f0105fae:	89 c7                	mov    %eax,%edi
f0105fb0:	fc                   	cld    
f0105fb1:	f3 a5                	rep movsl %ds:(%esi),%es:(%edi)
f0105fb3:	eb 05                	jmp    f0105fba <memmove+0x64>
				:: "D" (d), "S" (s), "c" (n/4) : "cc", "memory");
		else
			asm volatile("cld; rep movsb\n"
f0105fb5:	89 c7                	mov    %eax,%edi
f0105fb7:	fc                   	cld    
f0105fb8:	f3 a4                	rep movsb %ds:(%esi),%es:(%edi)
				:: "D" (d), "S" (s), "c" (n) : "cc", "memory");
	}
	return dst;
}
f0105fba:	5e                   	pop    %esi
f0105fbb:	5f                   	pop    %edi
f0105fbc:	5d                   	pop    %ebp
f0105fbd:	c3                   	ret    

f0105fbe <memcpy>:
}
#endif

void *
memcpy(void *dst, const void *src, size_t n)
{
f0105fbe:	55                   	push   %ebp
f0105fbf:	89 e5                	mov    %esp,%ebp
f0105fc1:	83 ec 0c             	sub    $0xc,%esp
	return memmove(dst, src, n);
f0105fc4:	8b 45 10             	mov    0x10(%ebp),%eax
f0105fc7:	89 44 24 08          	mov    %eax,0x8(%esp)
f0105fcb:	8b 45 0c             	mov    0xc(%ebp),%eax
f0105fce:	89 44 24 04          	mov    %eax,0x4(%esp)
f0105fd2:	8b 45 08             	mov    0x8(%ebp),%eax
f0105fd5:	89 04 24             	mov    %eax,(%esp)
f0105fd8:	e8 79 ff ff ff       	call   f0105f56 <memmove>
}
f0105fdd:	c9                   	leave  
f0105fde:	c3                   	ret    

f0105fdf <memcmp>:

int
memcmp(const void *v1, const void *v2, size_t n)
{
f0105fdf:	55                   	push   %ebp
f0105fe0:	89 e5                	mov    %esp,%ebp
f0105fe2:	57                   	push   %edi
f0105fe3:	56                   	push   %esi
f0105fe4:	53                   	push   %ebx
f0105fe5:	8b 5d 08             	mov    0x8(%ebp),%ebx
f0105fe8:	8b 75 0c             	mov    0xc(%ebp),%esi
f0105feb:	8b 45 10             	mov    0x10(%ebp),%eax
	const uint8_t *s1 = (const uint8_t *) v1;
	const uint8_t *s2 = (const uint8_t *) v2;

	while (n-- > 0) {
f0105fee:	8d 78 ff             	lea    -0x1(%eax),%edi
f0105ff1:	85 c0                	test   %eax,%eax
f0105ff3:	74 36                	je     f010602b <memcmp+0x4c>
		if (*s1 != *s2)
f0105ff5:	0f b6 03             	movzbl (%ebx),%eax
f0105ff8:	0f b6 0e             	movzbl (%esi),%ecx
f0105ffb:	ba 00 00 00 00       	mov    $0x0,%edx
f0106000:	38 c8                	cmp    %cl,%al
f0106002:	74 1c                	je     f0106020 <memcmp+0x41>
f0106004:	eb 10                	jmp    f0106016 <memcmp+0x37>
f0106006:	0f b6 44 13 01       	movzbl 0x1(%ebx,%edx,1),%eax
f010600b:	83 c2 01             	add    $0x1,%edx
f010600e:	0f b6 0c 16          	movzbl (%esi,%edx,1),%ecx
f0106012:	38 c8                	cmp    %cl,%al
f0106014:	74 0a                	je     f0106020 <memcmp+0x41>
			return (int) *s1 - (int) *s2;
f0106016:	0f b6 c0             	movzbl %al,%eax
f0106019:	0f b6 c9             	movzbl %cl,%ecx
f010601c:	29 c8                	sub    %ecx,%eax
f010601e:	eb 10                	jmp    f0106030 <memcmp+0x51>
memcmp(const void *v1, const void *v2, size_t n)
{
	const uint8_t *s1 = (const uint8_t *) v1;
	const uint8_t *s2 = (const uint8_t *) v2;

	while (n-- > 0) {
f0106020:	39 fa                	cmp    %edi,%edx
f0106022:	75 e2                	jne    f0106006 <memcmp+0x27>
		if (*s1 != *s2)
			return (int) *s1 - (int) *s2;
		s1++, s2++;
	}

	return 0;
f0106024:	b8 00 00 00 00       	mov    $0x0,%eax
f0106029:	eb 05                	jmp    f0106030 <memcmp+0x51>
f010602b:	b8 00 00 00 00       	mov    $0x0,%eax
}
f0106030:	5b                   	pop    %ebx
f0106031:	5e                   	pop    %esi
f0106032:	5f                   	pop    %edi
f0106033:	5d                   	pop    %ebp
f0106034:	c3                   	ret    

f0106035 <memfind>:

void *
memfind(const void *s, int c, size_t n)
{
f0106035:	55                   	push   %ebp
f0106036:	89 e5                	mov    %esp,%ebp
f0106038:	53                   	push   %ebx
f0106039:	8b 45 08             	mov    0x8(%ebp),%eax
f010603c:	8b 5d 0c             	mov    0xc(%ebp),%ebx
	const void *ends = (const char *) s + n;
f010603f:	89 c2                	mov    %eax,%edx
f0106041:	03 55 10             	add    0x10(%ebp),%edx
	for (; s < ends; s++)
f0106044:	39 d0                	cmp    %edx,%eax
f0106046:	73 13                	jae    f010605b <memfind+0x26>
		if (*(const unsigned char *) s == (unsigned char) c)
f0106048:	89 d9                	mov    %ebx,%ecx
f010604a:	38 18                	cmp    %bl,(%eax)
f010604c:	75 06                	jne    f0106054 <memfind+0x1f>
f010604e:	eb 0b                	jmp    f010605b <memfind+0x26>
f0106050:	38 08                	cmp    %cl,(%eax)
f0106052:	74 07                	je     f010605b <memfind+0x26>

void *
memfind(const void *s, int c, size_t n)
{
	const void *ends = (const char *) s + n;
	for (; s < ends; s++)
f0106054:	83 c0 01             	add    $0x1,%eax
f0106057:	39 d0                	cmp    %edx,%eax
f0106059:	75 f5                	jne    f0106050 <memfind+0x1b>
		if (*(const unsigned char *) s == (unsigned char) c)
			break;
	return (void *) s;
}
f010605b:	5b                   	pop    %ebx
f010605c:	5d                   	pop    %ebp
f010605d:	c3                   	ret    

f010605e <strtol>:

long
strtol(const char *s, char **endptr, int base)
{
f010605e:	55                   	push   %ebp
f010605f:	89 e5                	mov    %esp,%ebp
f0106061:	57                   	push   %edi
f0106062:	56                   	push   %esi
f0106063:	53                   	push   %ebx
f0106064:	8b 55 08             	mov    0x8(%ebp),%edx
f0106067:	8b 45 10             	mov    0x10(%ebp),%eax
	int neg = 0;
	long val = 0;

	// gobble initial whitespace
	while (*s == ' ' || *s == '\t')
f010606a:	0f b6 0a             	movzbl (%edx),%ecx
f010606d:	80 f9 09             	cmp    $0x9,%cl
f0106070:	74 05                	je     f0106077 <strtol+0x19>
f0106072:	80 f9 20             	cmp    $0x20,%cl
f0106075:	75 10                	jne    f0106087 <strtol+0x29>
		s++;
f0106077:	83 c2 01             	add    $0x1,%edx
{
	int neg = 0;
	long val = 0;

	// gobble initial whitespace
	while (*s == ' ' || *s == '\t')
f010607a:	0f b6 0a             	movzbl (%edx),%ecx
f010607d:	80 f9 09             	cmp    $0x9,%cl
f0106080:	74 f5                	je     f0106077 <strtol+0x19>
f0106082:	80 f9 20             	cmp    $0x20,%cl
f0106085:	74 f0                	je     f0106077 <strtol+0x19>
		s++;

	// plus/minus sign
	if (*s == '+')
f0106087:	80 f9 2b             	cmp    $0x2b,%cl
f010608a:	75 0a                	jne    f0106096 <strtol+0x38>
		s++;
f010608c:	83 c2 01             	add    $0x1,%edx
}

long
strtol(const char *s, char **endptr, int base)
{
	int neg = 0;
f010608f:	bf 00 00 00 00       	mov    $0x0,%edi
f0106094:	eb 11                	jmp    f01060a7 <strtol+0x49>
f0106096:	bf 00 00 00 00       	mov    $0x0,%edi
		s++;

	// plus/minus sign
	if (*s == '+')
		s++;
	else if (*s == '-')
f010609b:	80 f9 2d             	cmp    $0x2d,%cl
f010609e:	75 07                	jne    f01060a7 <strtol+0x49>
		s++, neg = 1;
f01060a0:	83 c2 01             	add    $0x1,%edx
f01060a3:	66 bf 01 00          	mov    $0x1,%di

	// hex or octal base prefix
	if ((base == 0 || base == 16) && (s[0] == '0' && s[1] == 'x'))
f01060a7:	a9 ef ff ff ff       	test   $0xffffffef,%eax
f01060ac:	75 15                	jne    f01060c3 <strtol+0x65>
f01060ae:	80 3a 30             	cmpb   $0x30,(%edx)
f01060b1:	75 10                	jne    f01060c3 <strtol+0x65>
f01060b3:	80 7a 01 78          	cmpb   $0x78,0x1(%edx)
f01060b7:	75 0a                	jne    f01060c3 <strtol+0x65>
		s += 2, base = 16;
f01060b9:	83 c2 02             	add    $0x2,%edx
f01060bc:	b8 10 00 00 00       	mov    $0x10,%eax
f01060c1:	eb 10                	jmp    f01060d3 <strtol+0x75>
	else if (base == 0 && s[0] == '0')
f01060c3:	85 c0                	test   %eax,%eax
f01060c5:	75 0c                	jne    f01060d3 <strtol+0x75>
		s++, base = 8;
	else if (base == 0)
		base = 10;
f01060c7:	b0 0a                	mov    $0xa,%al
		s++, neg = 1;

	// hex or octal base prefix
	if ((base == 0 || base == 16) && (s[0] == '0' && s[1] == 'x'))
		s += 2, base = 16;
	else if (base == 0 && s[0] == '0')
f01060c9:	80 3a 30             	cmpb   $0x30,(%edx)
f01060cc:	75 05                	jne    f01060d3 <strtol+0x75>
		s++, base = 8;
f01060ce:	83 c2 01             	add    $0x1,%edx
f01060d1:	b0 08                	mov    $0x8,%al
	else if (base == 0)
		base = 10;
f01060d3:	bb 00 00 00 00       	mov    $0x0,%ebx
f01060d8:	89 45 10             	mov    %eax,0x10(%ebp)

	// digits
	while (1) {
		int dig;

		if (*s >= '0' && *s <= '9')
f01060db:	0f b6 0a             	movzbl (%edx),%ecx
f01060de:	8d 71 d0             	lea    -0x30(%ecx),%esi
f01060e1:	89 f0                	mov    %esi,%eax
f01060e3:	3c 09                	cmp    $0x9,%al
f01060e5:	77 08                	ja     f01060ef <strtol+0x91>
			dig = *s - '0';
f01060e7:	0f be c9             	movsbl %cl,%ecx
f01060ea:	83 e9 30             	sub    $0x30,%ecx
f01060ed:	eb 20                	jmp    f010610f <strtol+0xb1>
		else if (*s >= 'a' && *s <= 'z')
f01060ef:	8d 71 9f             	lea    -0x61(%ecx),%esi
f01060f2:	89 f0                	mov    %esi,%eax
f01060f4:	3c 19                	cmp    $0x19,%al
f01060f6:	77 08                	ja     f0106100 <strtol+0xa2>
			dig = *s - 'a' + 10;
f01060f8:	0f be c9             	movsbl %cl,%ecx
f01060fb:	83 e9 57             	sub    $0x57,%ecx
f01060fe:	eb 0f                	jmp    f010610f <strtol+0xb1>
		else if (*s >= 'A' && *s <= 'Z')
f0106100:	8d 71 bf             	lea    -0x41(%ecx),%esi
f0106103:	89 f0                	mov    %esi,%eax
f0106105:	3c 19                	cmp    $0x19,%al
f0106107:	77 16                	ja     f010611f <strtol+0xc1>
			dig = *s - 'A' + 10;
f0106109:	0f be c9             	movsbl %cl,%ecx
f010610c:	83 e9 37             	sub    $0x37,%ecx
		else
			break;
		if (dig >= base)
f010610f:	3b 4d 10             	cmp    0x10(%ebp),%ecx
f0106112:	7d 0f                	jge    f0106123 <strtol+0xc5>
			break;
		s++, val = (val * base) + dig;
f0106114:	83 c2 01             	add    $0x1,%edx
f0106117:	0f af 5d 10          	imul   0x10(%ebp),%ebx
f010611b:	01 cb                	add    %ecx,%ebx
		// we don't properly detect overflow!
	}
f010611d:	eb bc                	jmp    f01060db <strtol+0x7d>
f010611f:	89 d8                	mov    %ebx,%eax
f0106121:	eb 02                	jmp    f0106125 <strtol+0xc7>
f0106123:	89 d8                	mov    %ebx,%eax

	if (endptr)
f0106125:	83 7d 0c 00          	cmpl   $0x0,0xc(%ebp)
f0106129:	74 05                	je     f0106130 <strtol+0xd2>
		*endptr = (char *) s;
f010612b:	8b 75 0c             	mov    0xc(%ebp),%esi
f010612e:	89 16                	mov    %edx,(%esi)
	return (neg ? -val : val);
f0106130:	f7 d8                	neg    %eax
f0106132:	85 ff                	test   %edi,%edi
f0106134:	0f 44 c3             	cmove  %ebx,%eax
}
f0106137:	5b                   	pop    %ebx
f0106138:	5e                   	pop    %esi
f0106139:	5f                   	pop    %edi
f010613a:	5d                   	pop    %ebp
f010613b:	c3                   	ret    

f010613c <mpentry_start>:
.set PROT_MODE_DSEG, 0x10	# kernel data segment selector

.code16           
.globl mpentry_start
mpentry_start:
	cli            
f010613c:	fa                   	cli    

	xorw    %ax, %ax
f010613d:	31 c0                	xor    %eax,%eax
	movw    %ax, %ds
f010613f:	8e d8                	mov    %eax,%ds
	movw    %ax, %es
f0106141:	8e c0                	mov    %eax,%es
	movw    %ax, %ss
f0106143:	8e d0                	mov    %eax,%ss

	lgdt    MPBOOTPHYS(gdtdesc)
f0106145:	0f 01 16             	lgdtl  (%esi)
f0106148:	74 70                	je     f01061ba <mpentry_end+0x4>
	movl    %cr0, %eax
f010614a:	0f 20 c0             	mov    %cr0,%eax
	orl     $CR0_PE, %eax
f010614d:	66 83 c8 01          	or     $0x1,%ax
	movl    %eax, %cr0
f0106151:	0f 22 c0             	mov    %eax,%cr0

	ljmpl   $(PROT_MODE_CSEG), $(MPBOOTPHYS(start32))
f0106154:	66 ea 20 70 00 00    	ljmpw  $0x0,$0x7020
f010615a:	08 00                	or     %al,(%eax)

f010615c <start32>:

.code32
start32:
	movw    $(PROT_MODE_DSEG), %ax
f010615c:	66 b8 10 00          	mov    $0x10,%ax
	movw    %ax, %ds
f0106160:	8e d8                	mov    %eax,%ds
	movw    %ax, %es
f0106162:	8e c0                	mov    %eax,%es
	movw    %ax, %ss
f0106164:	8e d0                	mov    %eax,%ss
	movw    $0, %ax
f0106166:	66 b8 00 00          	mov    $0x0,%ax
	movw    %ax, %fs
f010616a:	8e e0                	mov    %eax,%fs
	movw    %ax, %gs
f010616c:	8e e8                	mov    %eax,%gs

	# Set up initial page table. We cannot use kern_pgdir yet because
	# we are still running at a low EIP.
	movl    $(RELOC(entry_pgdir)), %eax
f010616e:	b8 00 f0 11 00       	mov    $0x11f000,%eax
	movl    %eax, %cr3
f0106173:	0f 22 d8             	mov    %eax,%cr3
	# Turn on paging.
	movl    %cr0, %eax
f0106176:	0f 20 c0             	mov    %cr0,%eax
	orl     $(CR0_PE|CR0_PG|CR0_WP), %eax
f0106179:	0d 01 00 01 80       	or     $0x80010001,%eax
	movl    %eax, %cr0
f010617e:	0f 22 c0             	mov    %eax,%cr0

	# Switch to the per-cpu stack allocated in boot_aps()
	movl    mpentry_kstack, %esp
f0106181:	8b 25 84 3e 20 f0    	mov    0xf0203e84,%esp
	movl    $0x0, %ebp       # nuke frame pointer
f0106187:	bd 00 00 00 00       	mov    $0x0,%ebp

	# Call mp_main().  (Exercise for the reader: why the indirect call?)
	movl    $mp_main, %eax
f010618c:	b8 17 02 10 f0       	mov    $0xf0100217,%eax
	call    *%eax
f0106191:	ff d0                	call   *%eax

f0106193 <spin>:

	# If mp_main returns (it shouldn't), loop.
spin:
	jmp     spin
f0106193:	eb fe                	jmp    f0106193 <spin>
f0106195:	8d 76 00             	lea    0x0(%esi),%esi

f0106198 <gdt>:
	...
f01061a0:	ff                   	(bad)  
f01061a1:	ff 00                	incl   (%eax)
f01061a3:	00 00                	add    %al,(%eax)
f01061a5:	9a cf 00 ff ff 00 00 	lcall  $0x0,$0xffff00cf
f01061ac:	00 92 cf 00 17 00    	add    %dl,0x1700cf(%edx)

f01061b0 <gdtdesc>:
f01061b0:	17                   	pop    %ss
f01061b1:	00 5c 70 00          	add    %bl,0x0(%eax,%esi,2)
	...

f01061b6 <mpentry_end>:
	.word   0x17				# sizeof(gdt) - 1
	.long   MPBOOTPHYS(gdt)			# address gdt

.globl mpentry_end
mpentry_end:
	nop
f01061b6:	90                   	nop
f01061b7:	66 90                	xchg   %ax,%ax
f01061b9:	66 90                	xchg   %ax,%ax
f01061bb:	66 90                	xchg   %ax,%ax
f01061bd:	66 90                	xchg   %ax,%ax
f01061bf:	90                   	nop

f01061c0 <mpsearch1>:
}

// Look for an MP structure in the len bytes at physical address addr.
static struct mp *
mpsearch1(physaddr_t a, int len)
{
f01061c0:	55                   	push   %ebp
f01061c1:	89 e5                	mov    %esp,%ebp
f01061c3:	56                   	push   %esi
f01061c4:	53                   	push   %ebx
f01061c5:	83 ec 10             	sub    $0x10,%esp
#define KADDR(pa) _kaddr(__FILE__, __LINE__, pa)

static inline void*
_kaddr(const char *file, int line, physaddr_t pa)
{
	if (PGNUM(pa) >= npages)
f01061c8:	8b 0d 88 3e 20 f0    	mov    0xf0203e88,%ecx
f01061ce:	89 c3                	mov    %eax,%ebx
f01061d0:	c1 eb 0c             	shr    $0xc,%ebx
f01061d3:	39 cb                	cmp    %ecx,%ebx
f01061d5:	72 20                	jb     f01061f7 <mpsearch1+0x37>
		_panic(file, line, "KADDR called with invalid pa %08lx", pa);
f01061d7:	89 44 24 0c          	mov    %eax,0xc(%esp)
f01061db:	c7 44 24 08 e4 6c 10 	movl   $0xf0106ce4,0x8(%esp)
f01061e2:	f0 
f01061e3:	c7 44 24 04 57 00 00 	movl   $0x57,0x4(%esp)
f01061ea:	00 
f01061eb:	c7 04 24 5d 89 10 f0 	movl   $0xf010895d,(%esp)
f01061f2:	e8 49 9e ff ff       	call   f0100040 <_panic>
	return (void *)(pa + KERNBASE);
f01061f7:	8d 98 00 00 00 f0    	lea    -0x10000000(%eax),%ebx
	struct mp *mp = KADDR(a), *end = KADDR(a + len);
f01061fd:	01 d0                	add    %edx,%eax
#define KADDR(pa) _kaddr(__FILE__, __LINE__, pa)

static inline void*
_kaddr(const char *file, int line, physaddr_t pa)
{
	if (PGNUM(pa) >= npages)
f01061ff:	89 c2                	mov    %eax,%edx
f0106201:	c1 ea 0c             	shr    $0xc,%edx
f0106204:	39 d1                	cmp    %edx,%ecx
f0106206:	77 20                	ja     f0106228 <mpsearch1+0x68>
		_panic(file, line, "KADDR called with invalid pa %08lx", pa);
f0106208:	89 44 24 0c          	mov    %eax,0xc(%esp)
f010620c:	c7 44 24 08 e4 6c 10 	movl   $0xf0106ce4,0x8(%esp)
f0106213:	f0 
f0106214:	c7 44 24 04 57 00 00 	movl   $0x57,0x4(%esp)
f010621b:	00 
f010621c:	c7 04 24 5d 89 10 f0 	movl   $0xf010895d,(%esp)
f0106223:	e8 18 9e ff ff       	call   f0100040 <_panic>
	return (void *)(pa + KERNBASE);
f0106228:	8d b0 00 00 00 f0    	lea    -0x10000000(%eax),%esi

	for (; mp < end; mp++)
f010622e:	39 f3                	cmp    %esi,%ebx
f0106230:	73 40                	jae    f0106272 <mpsearch1+0xb2>
		if (memcmp(mp->signature, "_MP_", 4) == 0 &&
f0106232:	c7 44 24 08 04 00 00 	movl   $0x4,0x8(%esp)
f0106239:	00 
f010623a:	c7 44 24 04 6d 89 10 	movl   $0xf010896d,0x4(%esp)
f0106241:	f0 
f0106242:	89 1c 24             	mov    %ebx,(%esp)
f0106245:	e8 95 fd ff ff       	call   f0105fdf <memcmp>
f010624a:	85 c0                	test   %eax,%eax
f010624c:	75 17                	jne    f0106265 <mpsearch1+0xa5>
f010624e:	ba 00 00 00 00       	mov    $0x0,%edx
{
	int i, sum;

	sum = 0;
	for (i = 0; i < len; i++)
		sum += ((uint8_t *)addr)[i];
f0106253:	0f b6 0c 03          	movzbl (%ebx,%eax,1),%ecx
f0106257:	01 ca                	add    %ecx,%edx
sum(void *addr, int len)
{
	int i, sum;

	sum = 0;
	for (i = 0; i < len; i++)
f0106259:	83 c0 01             	add    $0x1,%eax
f010625c:	83 f8 10             	cmp    $0x10,%eax
f010625f:	75 f2                	jne    f0106253 <mpsearch1+0x93>
mpsearch1(physaddr_t a, int len)
{
	struct mp *mp = KADDR(a), *end = KADDR(a + len);

	for (; mp < end; mp++)
		if (memcmp(mp->signature, "_MP_", 4) == 0 &&
f0106261:	84 d2                	test   %dl,%dl
f0106263:	74 14                	je     f0106279 <mpsearch1+0xb9>
static struct mp *
mpsearch1(physaddr_t a, int len)
{
	struct mp *mp = KADDR(a), *end = KADDR(a + len);

	for (; mp < end; mp++)
f0106265:	83 c3 10             	add    $0x10,%ebx
f0106268:	39 f3                	cmp    %esi,%ebx
f010626a:	72 c6                	jb     f0106232 <mpsearch1+0x72>
f010626c:	8d 74 26 00          	lea    0x0(%esi,%eiz,1),%esi
f0106270:	eb 0b                	jmp    f010627d <mpsearch1+0xbd>
		if (memcmp(mp->signature, "_MP_", 4) == 0 &&
		    sum(mp, sizeof(*mp)) == 0)
			return mp;
	return NULL;
f0106272:	b8 00 00 00 00       	mov    $0x0,%eax
f0106277:	eb 09                	jmp    f0106282 <mpsearch1+0xc2>
f0106279:	89 d8                	mov    %ebx,%eax
f010627b:	eb 05                	jmp    f0106282 <mpsearch1+0xc2>
f010627d:	b8 00 00 00 00       	mov    $0x0,%eax
}
f0106282:	83 c4 10             	add    $0x10,%esp
f0106285:	5b                   	pop    %ebx
f0106286:	5e                   	pop    %esi
f0106287:	5d                   	pop    %ebp
f0106288:	c3                   	ret    

f0106289 <mp_init>:
	return conf;
}

void
mp_init(void)
{
f0106289:	55                   	push   %ebp
f010628a:	89 e5                	mov    %esp,%ebp
f010628c:	57                   	push   %edi
f010628d:	56                   	push   %esi
f010628e:	53                   	push   %ebx
f010628f:	83 ec 2c             	sub    $0x2c,%esp
	struct mpconf *conf;
	struct mpproc *proc;
	uint8_t *p;
	unsigned int i;

	bootcpu = &cpus[0];
f0106292:	c7 05 c0 43 20 f0 20 	movl   $0xf0204020,0xf02043c0
f0106299:	40 20 f0 
#define KADDR(pa) _kaddr(__FILE__, __LINE__, pa)

static inline void*
_kaddr(const char *file, int line, physaddr_t pa)
{
	if (PGNUM(pa) >= npages)
f010629c:	83 3d 88 3e 20 f0 00 	cmpl   $0x0,0xf0203e88
f01062a3:	75 24                	jne    f01062c9 <mp_init+0x40>
		_panic(file, line, "KADDR called with invalid pa %08lx", pa);
f01062a5:	c7 44 24 0c 00 04 00 	movl   $0x400,0xc(%esp)
f01062ac:	00 
f01062ad:	c7 44 24 08 e4 6c 10 	movl   $0xf0106ce4,0x8(%esp)
f01062b4:	f0 
f01062b5:	c7 44 24 04 6f 00 00 	movl   $0x6f,0x4(%esp)
f01062bc:	00 
f01062bd:	c7 04 24 5d 89 10 f0 	movl   $0xf010895d,(%esp)
f01062c4:	e8 77 9d ff ff       	call   f0100040 <_panic>
	// The BIOS data area lives in 16-bit segment 0x40.
	bda = (uint8_t *) KADDR(0x40 << 4);

	// [MP 4] The 16-bit segment of the EBDA is in the two bytes
	// starting at byte 0x0E of the BDA.  0 if not present.
	if ((p = *(uint16_t *) (bda + 0x0E))) {
f01062c9:	0f b7 05 0e 04 00 f0 	movzwl 0xf000040e,%eax
f01062d0:	85 c0                	test   %eax,%eax
f01062d2:	74 16                	je     f01062ea <mp_init+0x61>
		p <<= 4;	// Translate from segment to PA
f01062d4:	c1 e0 04             	shl    $0x4,%eax
		if ((mp = mpsearch1(p, 1024)))
f01062d7:	ba 00 04 00 00       	mov    $0x400,%edx
f01062dc:	e8 df fe ff ff       	call   f01061c0 <mpsearch1>
f01062e1:	89 45 e4             	mov    %eax,-0x1c(%ebp)
f01062e4:	85 c0                	test   %eax,%eax
f01062e6:	75 3c                	jne    f0106324 <mp_init+0x9b>
f01062e8:	eb 20                	jmp    f010630a <mp_init+0x81>
			return mp;
	} else {
		// The size of base memory, in KB is in the two bytes
		// starting at 0x13 of the BDA.
		p = *(uint16_t *) (bda + 0x13) * 1024;
f01062ea:	0f b7 05 13 04 00 f0 	movzwl 0xf0000413,%eax
f01062f1:	c1 e0 0a             	shl    $0xa,%eax
		if ((mp = mpsearch1(p - 1024, 1024)))
f01062f4:	2d 00 04 00 00       	sub    $0x400,%eax
f01062f9:	ba 00 04 00 00       	mov    $0x400,%edx
f01062fe:	e8 bd fe ff ff       	call   f01061c0 <mpsearch1>
f0106303:	89 45 e4             	mov    %eax,-0x1c(%ebp)
f0106306:	85 c0                	test   %eax,%eax
f0106308:	75 1a                	jne    f0106324 <mp_init+0x9b>
			return mp;
	}
	return mpsearch1(0xF0000, 0x10000);
f010630a:	ba 00 00 01 00       	mov    $0x10000,%edx
f010630f:	b8 00 00 0f 00       	mov    $0xf0000,%eax
f0106314:	e8 a7 fe ff ff       	call   f01061c0 <mpsearch1>
f0106319:	89 45 e4             	mov    %eax,-0x1c(%ebp)
mpconfig(struct mp **pmp)
{
	struct mpconf *conf;
	struct mp *mp;

	if ((mp = mpsearch()) == 0)
f010631c:	85 c0                	test   %eax,%eax
f010631e:	0f 84 5f 02 00 00    	je     f0106583 <mp_init+0x2fa>
		return NULL;
	if (mp->physaddr == 0 || mp->type != 0) {
f0106324:	8b 45 e4             	mov    -0x1c(%ebp),%eax
f0106327:	8b 70 04             	mov    0x4(%eax),%esi
f010632a:	85 f6                	test   %esi,%esi
f010632c:	74 06                	je     f0106334 <mp_init+0xab>
f010632e:	80 78 0b 00          	cmpb   $0x0,0xb(%eax)
f0106332:	74 11                	je     f0106345 <mp_init+0xbc>
		cprintf("SMP: Default configurations not implemented\n");
f0106334:	c7 04 24 d0 87 10 f0 	movl   $0xf01087d0,(%esp)
f010633b:	e8 25 de ff ff       	call   f0104165 <cprintf>
f0106340:	e9 3e 02 00 00       	jmp    f0106583 <mp_init+0x2fa>
#define KADDR(pa) _kaddr(__FILE__, __LINE__, pa)

static inline void*
_kaddr(const char *file, int line, physaddr_t pa)
{
	if (PGNUM(pa) >= npages)
f0106345:	89 f0                	mov    %esi,%eax
f0106347:	c1 e8 0c             	shr    $0xc,%eax
f010634a:	3b 05 88 3e 20 f0    	cmp    0xf0203e88,%eax
f0106350:	72 20                	jb     f0106372 <mp_init+0xe9>
		_panic(file, line, "KADDR called with invalid pa %08lx", pa);
f0106352:	89 74 24 0c          	mov    %esi,0xc(%esp)
f0106356:	c7 44 24 08 e4 6c 10 	movl   $0xf0106ce4,0x8(%esp)
f010635d:	f0 
f010635e:	c7 44 24 04 90 00 00 	movl   $0x90,0x4(%esp)
f0106365:	00 
f0106366:	c7 04 24 5d 89 10 f0 	movl   $0xf010895d,(%esp)
f010636d:	e8 ce 9c ff ff       	call   f0100040 <_panic>
	return (void *)(pa + KERNBASE);
f0106372:	8d 9e 00 00 00 f0    	lea    -0x10000000(%esi),%ebx
		return NULL;
	}
	conf = (struct mpconf *) KADDR(mp->physaddr);
	if (memcmp(conf, "PCMP", 4) != 0) {
f0106378:	c7 44 24 08 04 00 00 	movl   $0x4,0x8(%esp)
f010637f:	00 
f0106380:	c7 44 24 04 72 89 10 	movl   $0xf0108972,0x4(%esp)
f0106387:	f0 
f0106388:	89 1c 24             	mov    %ebx,(%esp)
f010638b:	e8 4f fc ff ff       	call   f0105fdf <memcmp>
f0106390:	85 c0                	test   %eax,%eax
f0106392:	74 11                	je     f01063a5 <mp_init+0x11c>
		cprintf("SMP: Incorrect MP configuration table signature\n");
f0106394:	c7 04 24 00 88 10 f0 	movl   $0xf0108800,(%esp)
f010639b:	e8 c5 dd ff ff       	call   f0104165 <cprintf>
f01063a0:	e9 de 01 00 00       	jmp    f0106583 <mp_init+0x2fa>
		return NULL;
	}
	if (sum(conf, conf->length) != 0) {
f01063a5:	0f b7 43 04          	movzwl 0x4(%ebx),%eax
f01063a9:	66 89 45 e2          	mov    %ax,-0x1e(%ebp)
f01063ad:	0f b7 f8             	movzwl %ax,%edi
sum(void *addr, int len)
{
	int i, sum;

	sum = 0;
	for (i = 0; i < len; i++)
f01063b0:	85 ff                	test   %edi,%edi
f01063b2:	7e 30                	jle    f01063e4 <mp_init+0x15b>
static uint8_t
sum(void *addr, int len)
{
	int i, sum;

	sum = 0;
f01063b4:	ba 00 00 00 00       	mov    $0x0,%edx
	for (i = 0; i < len; i++)
f01063b9:	b8 00 00 00 00       	mov    $0x0,%eax
		sum += ((uint8_t *)addr)[i];
f01063be:	0f b6 8c 30 00 00 00 	movzbl -0x10000000(%eax,%esi,1),%ecx
f01063c5:	f0 
f01063c6:	01 ca                	add    %ecx,%edx
sum(void *addr, int len)
{
	int i, sum;

	sum = 0;
	for (i = 0; i < len; i++)
f01063c8:	83 c0 01             	add    $0x1,%eax
f01063cb:	39 c7                	cmp    %eax,%edi
f01063cd:	7f ef                	jg     f01063be <mp_init+0x135>
	conf = (struct mpconf *) KADDR(mp->physaddr);
	if (memcmp(conf, "PCMP", 4) != 0) {
		cprintf("SMP: Incorrect MP configuration table signature\n");
		return NULL;
	}
	if (sum(conf, conf->length) != 0) {
f01063cf:	84 d2                	test   %dl,%dl
f01063d1:	74 11                	je     f01063e4 <mp_init+0x15b>
		cprintf("SMP: Bad MP configuration checksum\n");
f01063d3:	c7 04 24 34 88 10 f0 	movl   $0xf0108834,(%esp)
f01063da:	e8 86 dd ff ff       	call   f0104165 <cprintf>
f01063df:	e9 9f 01 00 00       	jmp    f0106583 <mp_init+0x2fa>
		return NULL;
	}
	if (conf->version != 1 && conf->version != 4) {
f01063e4:	0f b6 43 06          	movzbl 0x6(%ebx),%eax
f01063e8:	3c 04                	cmp    $0x4,%al
f01063ea:	74 1e                	je     f010640a <mp_init+0x181>
f01063ec:	3c 01                	cmp    $0x1,%al
f01063ee:	66 90                	xchg   %ax,%ax
f01063f0:	74 18                	je     f010640a <mp_init+0x181>
		cprintf("SMP: Unsupported MP version %d\n", conf->version);
f01063f2:	0f b6 c0             	movzbl %al,%eax
f01063f5:	89 44 24 04          	mov    %eax,0x4(%esp)
f01063f9:	c7 04 24 58 88 10 f0 	movl   $0xf0108858,(%esp)
f0106400:	e8 60 dd ff ff       	call   f0104165 <cprintf>
f0106405:	e9 79 01 00 00       	jmp    f0106583 <mp_init+0x2fa>
		return NULL;
	}
	if (sum((uint8_t *)conf + conf->length, conf->xlength) != conf->xchecksum) {
f010640a:	0f b7 73 28          	movzwl 0x28(%ebx),%esi
f010640e:	0f b7 7d e2          	movzwl -0x1e(%ebp),%edi
f0106412:	01 df                	add    %ebx,%edi
sum(void *addr, int len)
{
	int i, sum;

	sum = 0;
	for (i = 0; i < len; i++)
f0106414:	85 f6                	test   %esi,%esi
f0106416:	7e 19                	jle    f0106431 <mp_init+0x1a8>
static uint8_t
sum(void *addr, int len)
{
	int i, sum;

	sum = 0;
f0106418:	ba 00 00 00 00       	mov    $0x0,%edx
	for (i = 0; i < len; i++)
f010641d:	b8 00 00 00 00       	mov    $0x0,%eax
		sum += ((uint8_t *)addr)[i];
f0106422:	0f b6 0c 07          	movzbl (%edi,%eax,1),%ecx
f0106426:	01 ca                	add    %ecx,%edx
sum(void *addr, int len)
{
	int i, sum;

	sum = 0;
	for (i = 0; i < len; i++)
f0106428:	83 c0 01             	add    $0x1,%eax
f010642b:	39 c6                	cmp    %eax,%esi
f010642d:	7f f3                	jg     f0106422 <mp_init+0x199>
f010642f:	eb 05                	jmp    f0106436 <mp_init+0x1ad>
static uint8_t
sum(void *addr, int len)
{
	int i, sum;

	sum = 0;
f0106431:	ba 00 00 00 00       	mov    $0x0,%edx
	}
	if (conf->version != 1 && conf->version != 4) {
		cprintf("SMP: Unsupported MP version %d\n", conf->version);
		return NULL;
	}
	if (sum((uint8_t *)conf + conf->length, conf->xlength) != conf->xchecksum) {
f0106436:	38 53 2a             	cmp    %dl,0x2a(%ebx)
f0106439:	74 11                	je     f010644c <mp_init+0x1c3>
		cprintf("SMP: Bad MP configuration extended checksum\n");
f010643b:	c7 04 24 78 88 10 f0 	movl   $0xf0108878,(%esp)
f0106442:	e8 1e dd ff ff       	call   f0104165 <cprintf>
f0106447:	e9 37 01 00 00       	jmp    f0106583 <mp_init+0x2fa>
	struct mpproc *proc;
	uint8_t *p;
	unsigned int i;

	bootcpu = &cpus[0];
	if ((conf = mpconfig(&mp)) == 0)
f010644c:	85 db                	test   %ebx,%ebx
f010644e:	0f 84 2f 01 00 00    	je     f0106583 <mp_init+0x2fa>
		return;
	ismp = 1;
f0106454:	c7 05 00 40 20 f0 01 	movl   $0x1,0xf0204000
f010645b:	00 00 00 
	lapicaddr = conf->lapicaddr;
f010645e:	8b 43 24             	mov    0x24(%ebx),%eax
f0106461:	a3 00 50 24 f0       	mov    %eax,0xf0245000

	for (p = conf->entries, i = 0; i < conf->entry; i++) {
f0106466:	8d 7b 2c             	lea    0x2c(%ebx),%edi
f0106469:	66 83 7b 22 00       	cmpw   $0x0,0x22(%ebx)
f010646e:	0f 84 94 00 00 00    	je     f0106508 <mp_init+0x27f>
f0106474:	be 00 00 00 00       	mov    $0x0,%esi
		switch (*p) {
f0106479:	0f b6 07             	movzbl (%edi),%eax
f010647c:	84 c0                	test   %al,%al
f010647e:	74 06                	je     f0106486 <mp_init+0x1fd>
f0106480:	3c 04                	cmp    $0x4,%al
f0106482:	77 54                	ja     f01064d8 <mp_init+0x24f>
f0106484:	eb 4d                	jmp    f01064d3 <mp_init+0x24a>
		case MPPROC:
			proc = (struct mpproc *)p;
			if (proc->flags & MPPROC_BOOT)
f0106486:	f6 47 03 02          	testb  $0x2,0x3(%edi)
f010648a:	74 11                	je     f010649d <mp_init+0x214>
				bootcpu = &cpus[ncpu];
f010648c:	6b 05 c4 43 20 f0 74 	imul   $0x74,0xf02043c4,%eax
f0106493:	05 20 40 20 f0       	add    $0xf0204020,%eax
f0106498:	a3 c0 43 20 f0       	mov    %eax,0xf02043c0
			if (ncpu < NCPU) {
f010649d:	a1 c4 43 20 f0       	mov    0xf02043c4,%eax
f01064a2:	83 f8 07             	cmp    $0x7,%eax
f01064a5:	7f 13                	jg     f01064ba <mp_init+0x231>
				cpus[ncpu].cpu_id = ncpu;
f01064a7:	6b d0 74             	imul   $0x74,%eax,%edx
f01064aa:	88 82 20 40 20 f0    	mov    %al,-0xfdfbfe0(%edx)
				ncpu++;
f01064b0:	83 c0 01             	add    $0x1,%eax
f01064b3:	a3 c4 43 20 f0       	mov    %eax,0xf02043c4
f01064b8:	eb 14                	jmp    f01064ce <mp_init+0x245>
			} else {
				cprintf("SMP: too many CPUs, CPU %d disabled\n",
f01064ba:	0f b6 47 01          	movzbl 0x1(%edi),%eax
f01064be:	89 44 24 04          	mov    %eax,0x4(%esp)
f01064c2:	c7 04 24 a8 88 10 f0 	movl   $0xf01088a8,(%esp)
f01064c9:	e8 97 dc ff ff       	call   f0104165 <cprintf>
					proc->apicid);
			}
			p += sizeof(struct mpproc);
f01064ce:	83 c7 14             	add    $0x14,%edi
			continue;
f01064d1:	eb 26                	jmp    f01064f9 <mp_init+0x270>
		case MPBUS:
		case MPIOAPIC:
		case MPIOINTR:
		case MPLINTR:
			p += 8;
f01064d3:	83 c7 08             	add    $0x8,%edi
			continue;
f01064d6:	eb 21                	jmp    f01064f9 <mp_init+0x270>
		default:
			cprintf("mpinit: unknown config type %x\n", *p);
f01064d8:	0f b6 c0             	movzbl %al,%eax
f01064db:	89 44 24 04          	mov    %eax,0x4(%esp)
f01064df:	c7 04 24 d0 88 10 f0 	movl   $0xf01088d0,(%esp)
f01064e6:	e8 7a dc ff ff       	call   f0104165 <cprintf>
			ismp = 0;
f01064eb:	c7 05 00 40 20 f0 00 	movl   $0x0,0xf0204000
f01064f2:	00 00 00 
			i = conf->entry;
f01064f5:	0f b7 73 22          	movzwl 0x22(%ebx),%esi
	if ((conf = mpconfig(&mp)) == 0)
		return;
	ismp = 1;
	lapicaddr = conf->lapicaddr;

	for (p = conf->entries, i = 0; i < conf->entry; i++) {
f01064f9:	83 c6 01             	add    $0x1,%esi
f01064fc:	0f b7 43 22          	movzwl 0x22(%ebx),%eax
f0106500:	39 f0                	cmp    %esi,%eax
f0106502:	0f 87 71 ff ff ff    	ja     f0106479 <mp_init+0x1f0>
			ismp = 0;
			i = conf->entry;
		}
	}

	bootcpu->cpu_status = CPU_STARTED;
f0106508:	a1 c0 43 20 f0       	mov    0xf02043c0,%eax
f010650d:	c7 40 04 01 00 00 00 	movl   $0x1,0x4(%eax)
	if (!ismp) {
f0106514:	83 3d 00 40 20 f0 00 	cmpl   $0x0,0xf0204000
f010651b:	75 22                	jne    f010653f <mp_init+0x2b6>
		// Didn't like what we found; fall back to no MP.
		ncpu = 1;
f010651d:	c7 05 c4 43 20 f0 01 	movl   $0x1,0xf02043c4
f0106524:	00 00 00 
		lapicaddr = 0;
f0106527:	c7 05 00 50 24 f0 00 	movl   $0x0,0xf0245000
f010652e:	00 00 00 
		cprintf("SMP: configuration not found, SMP disabled\n");
f0106531:	c7 04 24 f0 88 10 f0 	movl   $0xf01088f0,(%esp)
f0106538:	e8 28 dc ff ff       	call   f0104165 <cprintf>
		return;
f010653d:	eb 44                	jmp    f0106583 <mp_init+0x2fa>
	}
	cprintf("SMP: CPU %d found %d CPU(s)\n", bootcpu->cpu_id,  ncpu);
f010653f:	8b 15 c4 43 20 f0    	mov    0xf02043c4,%edx
f0106545:	89 54 24 08          	mov    %edx,0x8(%esp)
f0106549:	0f b6 00             	movzbl (%eax),%eax
f010654c:	89 44 24 04          	mov    %eax,0x4(%esp)
f0106550:	c7 04 24 77 89 10 f0 	movl   $0xf0108977,(%esp)
f0106557:	e8 09 dc ff ff       	call   f0104165 <cprintf>

	if (mp->imcrp) {
f010655c:	8b 45 e4             	mov    -0x1c(%ebp),%eax
f010655f:	80 78 0c 00          	cmpb   $0x0,0xc(%eax)
f0106563:	74 1e                	je     f0106583 <mp_init+0x2fa>
		// [MP 3.2.6.1] If the hardware implements PIC mode,
		// switch to getting interrupts from the LAPIC.
		cprintf("SMP: Setting IMCR to switch from PIC mode to symmetric I/O mode\n");
f0106565:	c7 04 24 1c 89 10 f0 	movl   $0xf010891c,(%esp)
f010656c:	e8 f4 db ff ff       	call   f0104165 <cprintf>
}

static __inline void
outb(int port, uint8_t data)
{
	__asm __volatile("outb %0,%w1" : : "a" (data), "d" (port));
f0106571:	ba 22 00 00 00       	mov    $0x22,%edx
f0106576:	b8 70 00 00 00       	mov    $0x70,%eax
f010657b:	ee                   	out    %al,(%dx)

static __inline uint8_t
inb(int port)
{
	uint8_t data;
	__asm __volatile("inb %w1,%0" : "=a" (data) : "d" (port));
f010657c:	b2 23                	mov    $0x23,%dl
f010657e:	ec                   	in     (%dx),%al
		outb(0x22, 0x70);   // Select IMCR
		outb(0x23, inb(0x23) | 1);  // Mask external interrupts.
f010657f:	83 c8 01             	or     $0x1,%eax
}

static __inline void
outb(int port, uint8_t data)
{
	__asm __volatile("outb %0,%w1" : : "a" (data), "d" (port));
f0106582:	ee                   	out    %al,(%dx)
	}
}
f0106583:	83 c4 2c             	add    $0x2c,%esp
f0106586:	5b                   	pop    %ebx
f0106587:	5e                   	pop    %esi
f0106588:	5f                   	pop    %edi
f0106589:	5d                   	pop    %ebp
f010658a:	c3                   	ret    

f010658b <lapicw>:
physaddr_t lapicaddr;        // Initialized in mpconfig.c
volatile uint32_t *lapic;

static void
lapicw(int index, int value)
{
f010658b:	55                   	push   %ebp
f010658c:	89 e5                	mov    %esp,%ebp
	lapic[index] = value;
f010658e:	8b 0d 04 50 24 f0    	mov    0xf0245004,%ecx
f0106594:	8d 04 81             	lea    (%ecx,%eax,4),%eax
f0106597:	89 10                	mov    %edx,(%eax)
	lapic[ID];  // wait for write to finish, by reading
f0106599:	a1 04 50 24 f0       	mov    0xf0245004,%eax
f010659e:	8b 40 20             	mov    0x20(%eax),%eax
}
f01065a1:	5d                   	pop    %ebp
f01065a2:	c3                   	ret    

f01065a3 <cpunum>:
	lapicw(TPR, 0);
}

int
cpunum(void)
{
f01065a3:	55                   	push   %ebp
f01065a4:	89 e5                	mov    %esp,%ebp
	if (lapic)
f01065a6:	a1 04 50 24 f0       	mov    0xf0245004,%eax
f01065ab:	85 c0                	test   %eax,%eax
f01065ad:	74 08                	je     f01065b7 <cpunum+0x14>
		return lapic[ID] >> 24;
f01065af:	8b 40 20             	mov    0x20(%eax),%eax
f01065b2:	c1 e8 18             	shr    $0x18,%eax
f01065b5:	eb 05                	jmp    f01065bc <cpunum+0x19>
	return 0;
f01065b7:	b8 00 00 00 00       	mov    $0x0,%eax
}
f01065bc:	5d                   	pop    %ebp
f01065bd:	c3                   	ret    

f01065be <lapic_init>:
}

void
lapic_init(void)
{
	if (!lapicaddr)
f01065be:	a1 00 50 24 f0       	mov    0xf0245000,%eax
f01065c3:	85 c0                	test   %eax,%eax
f01065c5:	0f 84 23 01 00 00    	je     f01066ee <lapic_init+0x130>
	lapic[ID];  // wait for write to finish, by reading
}

void
lapic_init(void)
{
f01065cb:	55                   	push   %ebp
f01065cc:	89 e5                	mov    %esp,%ebp
f01065ce:	83 ec 18             	sub    $0x18,%esp
	if (!lapicaddr)
		return;

	// lapicaddr is the physical address of the LAPIC's 4K MMIO
	// region.  Map it in to virtual memory so we can access it.
	lapic = mmio_map_region(lapicaddr, 4096);
f01065d1:	c7 44 24 04 00 10 00 	movl   $0x1000,0x4(%esp)
f01065d8:	00 
f01065d9:	89 04 24             	mov    %eax,(%esp)
f01065dc:	e8 6f b0 ff ff       	call   f0101650 <mmio_map_region>
f01065e1:	a3 04 50 24 f0       	mov    %eax,0xf0245004

	// Enable local APIC; set spurious interrupt vector.
	lapicw(SVR, ENABLE | (IRQ_OFFSET + IRQ_SPURIOUS));
f01065e6:	ba 27 01 00 00       	mov    $0x127,%edx
f01065eb:	b8 3c 00 00 00       	mov    $0x3c,%eax
f01065f0:	e8 96 ff ff ff       	call   f010658b <lapicw>

	// The timer repeatedly counts down at bus frequency
	// from lapic[TICR] and then issues an interrupt.  
	// If we cared more about precise timekeeping,
	// TICR would be calibrated using an external time source.
	lapicw(TDCR, X1);
f01065f5:	ba 0b 00 00 00       	mov    $0xb,%edx
f01065fa:	b8 f8 00 00 00       	mov    $0xf8,%eax
f01065ff:	e8 87 ff ff ff       	call   f010658b <lapicw>
	lapicw(TIMER, PERIODIC | (IRQ_OFFSET + IRQ_TIMER));
f0106604:	ba 20 00 02 00       	mov    $0x20020,%edx
f0106609:	b8 c8 00 00 00       	mov    $0xc8,%eax
f010660e:	e8 78 ff ff ff       	call   f010658b <lapicw>
	lapicw(TICR, 10000000); 
f0106613:	ba 80 96 98 00       	mov    $0x989680,%edx
f0106618:	b8 e0 00 00 00       	mov    $0xe0,%eax
f010661d:	e8 69 ff ff ff       	call   f010658b <lapicw>
	//
	// According to Intel MP Specification, the BIOS should initialize
	// BSP's local APIC in Virtual Wire Mode, in which 8259A's
	// INTR is virtually connected to BSP's LINTIN0. In this mode,
	// we do not need to program the IOAPIC.
	if (thiscpu != bootcpu)
f0106622:	e8 7c ff ff ff       	call   f01065a3 <cpunum>
f0106627:	6b c0 74             	imul   $0x74,%eax,%eax
f010662a:	05 20 40 20 f0       	add    $0xf0204020,%eax
f010662f:	39 05 c0 43 20 f0    	cmp    %eax,0xf02043c0
f0106635:	74 0f                	je     f0106646 <lapic_init+0x88>
		lapicw(LINT0, MASKED);
f0106637:	ba 00 00 01 00       	mov    $0x10000,%edx
f010663c:	b8 d4 00 00 00       	mov    $0xd4,%eax
f0106641:	e8 45 ff ff ff       	call   f010658b <lapicw>

	// Disable NMI (LINT1) on all CPUs
	lapicw(LINT1, MASKED);
f0106646:	ba 00 00 01 00       	mov    $0x10000,%edx
f010664b:	b8 d8 00 00 00       	mov    $0xd8,%eax
f0106650:	e8 36 ff ff ff       	call   f010658b <lapicw>

	// Disable performance counter overflow interrupts
	// on machines that provide that interrupt entry.
	if (((lapic[VER]>>16) & 0xFF) >= 4)
f0106655:	a1 04 50 24 f0       	mov    0xf0245004,%eax
f010665a:	8b 40 30             	mov    0x30(%eax),%eax
f010665d:	c1 e8 10             	shr    $0x10,%eax
f0106660:	3c 03                	cmp    $0x3,%al
f0106662:	76 0f                	jbe    f0106673 <lapic_init+0xb5>
		lapicw(PCINT, MASKED);
f0106664:	ba 00 00 01 00       	mov    $0x10000,%edx
f0106669:	b8 d0 00 00 00       	mov    $0xd0,%eax
f010666e:	e8 18 ff ff ff       	call   f010658b <lapicw>

	// Map error interrupt to IRQ_ERROR.
	lapicw(ERROR, IRQ_OFFSET + IRQ_ERROR);
f0106673:	ba 33 00 00 00       	mov    $0x33,%edx
f0106678:	b8 dc 00 00 00       	mov    $0xdc,%eax
f010667d:	e8 09 ff ff ff       	call   f010658b <lapicw>

	// Clear error status register (requires back-to-back writes).
	lapicw(ESR, 0);
f0106682:	ba 00 00 00 00       	mov    $0x0,%edx
f0106687:	b8 a0 00 00 00       	mov    $0xa0,%eax
f010668c:	e8 fa fe ff ff       	call   f010658b <lapicw>
	lapicw(ESR, 0);
f0106691:	ba 00 00 00 00       	mov    $0x0,%edx
f0106696:	b8 a0 00 00 00       	mov    $0xa0,%eax
f010669b:	e8 eb fe ff ff       	call   f010658b <lapicw>

	// Ack any outstanding interrupts.
	lapicw(EOI, 0);
f01066a0:	ba 00 00 00 00       	mov    $0x0,%edx
f01066a5:	b8 2c 00 00 00       	mov    $0x2c,%eax
f01066aa:	e8 dc fe ff ff       	call   f010658b <lapicw>

	// Send an Init Level De-Assert to synchronize arbitration ID's.
	lapicw(ICRHI, 0);
f01066af:	ba 00 00 00 00       	mov    $0x0,%edx
f01066b4:	b8 c4 00 00 00       	mov    $0xc4,%eax
f01066b9:	e8 cd fe ff ff       	call   f010658b <lapicw>
	lapicw(ICRLO, BCAST | INIT | LEVEL);
f01066be:	ba 00 85 08 00       	mov    $0x88500,%edx
f01066c3:	b8 c0 00 00 00       	mov    $0xc0,%eax
f01066c8:	e8 be fe ff ff       	call   f010658b <lapicw>
	while(lapic[ICRLO] & DELIVS)
f01066cd:	8b 15 04 50 24 f0    	mov    0xf0245004,%edx
f01066d3:	8b 82 00 03 00 00    	mov    0x300(%edx),%eax
f01066d9:	f6 c4 10             	test   $0x10,%ah
f01066dc:	75 f5                	jne    f01066d3 <lapic_init+0x115>
		;

	// Enable interrupts on the APIC (but not on the processor).
	lapicw(TPR, 0);
f01066de:	ba 00 00 00 00       	mov    $0x0,%edx
f01066e3:	b8 20 00 00 00       	mov    $0x20,%eax
f01066e8:	e8 9e fe ff ff       	call   f010658b <lapicw>
}
f01066ed:	c9                   	leave  
f01066ee:	f3 c3                	repz ret 

f01066f0 <lapic_eoi>:

// Acknowledge interrupt.
void
lapic_eoi(void)
{
	if (lapic)
f01066f0:	83 3d 04 50 24 f0 00 	cmpl   $0x0,0xf0245004
f01066f7:	74 13                	je     f010670c <lapic_eoi+0x1c>
}

// Acknowledge interrupt.
void
lapic_eoi(void)
{
f01066f9:	55                   	push   %ebp
f01066fa:	89 e5                	mov    %esp,%ebp
	if (lapic)
		lapicw(EOI, 0);
f01066fc:	ba 00 00 00 00       	mov    $0x0,%edx
f0106701:	b8 2c 00 00 00       	mov    $0x2c,%eax
f0106706:	e8 80 fe ff ff       	call   f010658b <lapicw>
}
f010670b:	5d                   	pop    %ebp
f010670c:	f3 c3                	repz ret 

f010670e <lapic_startap>:

// Start additional processor running entry code at addr.
// See Appendix B of MultiProcessor Specification.
void
lapic_startap(uint8_t apicid, uint32_t addr)
{
f010670e:	55                   	push   %ebp
f010670f:	89 e5                	mov    %esp,%ebp
f0106711:	56                   	push   %esi
f0106712:	53                   	push   %ebx
f0106713:	83 ec 10             	sub    $0x10,%esp
f0106716:	8b 5d 08             	mov    0x8(%ebp),%ebx
f0106719:	8b 75 0c             	mov    0xc(%ebp),%esi
f010671c:	ba 70 00 00 00       	mov    $0x70,%edx
f0106721:	b8 0f 00 00 00       	mov    $0xf,%eax
f0106726:	ee                   	out    %al,(%dx)
f0106727:	b2 71                	mov    $0x71,%dl
f0106729:	b8 0a 00 00 00       	mov    $0xa,%eax
f010672e:	ee                   	out    %al,(%dx)
#define KADDR(pa) _kaddr(__FILE__, __LINE__, pa)

static inline void*
_kaddr(const char *file, int line, physaddr_t pa)
{
	if (PGNUM(pa) >= npages)
f010672f:	83 3d 88 3e 20 f0 00 	cmpl   $0x0,0xf0203e88
f0106736:	75 24                	jne    f010675c <lapic_startap+0x4e>
		_panic(file, line, "KADDR called with invalid pa %08lx", pa);
f0106738:	c7 44 24 0c 67 04 00 	movl   $0x467,0xc(%esp)
f010673f:	00 
f0106740:	c7 44 24 08 e4 6c 10 	movl   $0xf0106ce4,0x8(%esp)
f0106747:	f0 
f0106748:	c7 44 24 04 98 00 00 	movl   $0x98,0x4(%esp)
f010674f:	00 
f0106750:	c7 04 24 94 89 10 f0 	movl   $0xf0108994,(%esp)
f0106757:	e8 e4 98 ff ff       	call   f0100040 <_panic>
	// and the warm reset vector (DWORD based at 40:67) to point at
	// the AP startup code prior to the [universal startup algorithm]."
	outb(IO_RTC, 0xF);  // offset 0xF is shutdown code
	outb(IO_RTC+1, 0x0A);
	wrv = (uint16_t *)KADDR((0x40 << 4 | 0x67));  // Warm reset vector
	wrv[0] = 0;
f010675c:	66 c7 05 67 04 00 f0 	movw   $0x0,0xf0000467
f0106763:	00 00 
	wrv[1] = addr >> 4;
f0106765:	89 f0                	mov    %esi,%eax
f0106767:	c1 e8 04             	shr    $0x4,%eax
f010676a:	66 a3 69 04 00 f0    	mov    %ax,0xf0000469

	// "Universal startup algorithm."
	// Send INIT (level-triggered) interrupt to reset other CPU.
	lapicw(ICRHI, apicid << 24);
f0106770:	c1 e3 18             	shl    $0x18,%ebx
f0106773:	89 da                	mov    %ebx,%edx
f0106775:	b8 c4 00 00 00       	mov    $0xc4,%eax
f010677a:	e8 0c fe ff ff       	call   f010658b <lapicw>
	lapicw(ICRLO, INIT | LEVEL | ASSERT);
f010677f:	ba 00 c5 00 00       	mov    $0xc500,%edx
f0106784:	b8 c0 00 00 00       	mov    $0xc0,%eax
f0106789:	e8 fd fd ff ff       	call   f010658b <lapicw>
	microdelay(200);
	lapicw(ICRLO, INIT | LEVEL);
f010678e:	ba 00 85 00 00       	mov    $0x8500,%edx
f0106793:	b8 c0 00 00 00       	mov    $0xc0,%eax
f0106798:	e8 ee fd ff ff       	call   f010658b <lapicw>
	// when it is in the halted state due to an INIT.  So the second
	// should be ignored, but it is part of the official Intel algorithm.
	// Bochs complains about the second one.  Too bad for Bochs.
	for (i = 0; i < 2; i++) {
		lapicw(ICRHI, apicid << 24);
		lapicw(ICRLO, STARTUP | (addr >> 12));
f010679d:	c1 ee 0c             	shr    $0xc,%esi
f01067a0:	81 ce 00 06 00 00    	or     $0x600,%esi
	// Regular hardware is supposed to only accept a STARTUP
	// when it is in the halted state due to an INIT.  So the second
	// should be ignored, but it is part of the official Intel algorithm.
	// Bochs complains about the second one.  Too bad for Bochs.
	for (i = 0; i < 2; i++) {
		lapicw(ICRHI, apicid << 24);
f01067a6:	89 da                	mov    %ebx,%edx
f01067a8:	b8 c4 00 00 00       	mov    $0xc4,%eax
f01067ad:	e8 d9 fd ff ff       	call   f010658b <lapicw>
		lapicw(ICRLO, STARTUP | (addr >> 12));
f01067b2:	89 f2                	mov    %esi,%edx
f01067b4:	b8 c0 00 00 00       	mov    $0xc0,%eax
f01067b9:	e8 cd fd ff ff       	call   f010658b <lapicw>
	// Regular hardware is supposed to only accept a STARTUP
	// when it is in the halted state due to an INIT.  So the second
	// should be ignored, but it is part of the official Intel algorithm.
	// Bochs complains about the second one.  Too bad for Bochs.
	for (i = 0; i < 2; i++) {
		lapicw(ICRHI, apicid << 24);
f01067be:	89 da                	mov    %ebx,%edx
f01067c0:	b8 c4 00 00 00       	mov    $0xc4,%eax
f01067c5:	e8 c1 fd ff ff       	call   f010658b <lapicw>
		lapicw(ICRLO, STARTUP | (addr >> 12));
f01067ca:	89 f2                	mov    %esi,%edx
f01067cc:	b8 c0 00 00 00       	mov    $0xc0,%eax
f01067d1:	e8 b5 fd ff ff       	call   f010658b <lapicw>
		microdelay(200);
	}
}
f01067d6:	83 c4 10             	add    $0x10,%esp
f01067d9:	5b                   	pop    %ebx
f01067da:	5e                   	pop    %esi
f01067db:	5d                   	pop    %ebp
f01067dc:	c3                   	ret    

f01067dd <lapic_ipi>:

void
lapic_ipi(int vector)
{
f01067dd:	55                   	push   %ebp
f01067de:	89 e5                	mov    %esp,%ebp
	lapicw(ICRLO, OTHERS | FIXED | vector);
f01067e0:	8b 55 08             	mov    0x8(%ebp),%edx
f01067e3:	81 ca 00 00 0c 00    	or     $0xc0000,%edx
f01067e9:	b8 c0 00 00 00       	mov    $0xc0,%eax
f01067ee:	e8 98 fd ff ff       	call   f010658b <lapicw>
	while (lapic[ICRLO] & DELIVS)
f01067f3:	8b 15 04 50 24 f0    	mov    0xf0245004,%edx
f01067f9:	8b 82 00 03 00 00    	mov    0x300(%edx),%eax
f01067ff:	f6 c4 10             	test   $0x10,%ah
f0106802:	75 f5                	jne    f01067f9 <lapic_ipi+0x1c>
		;
}
f0106804:	5d                   	pop    %ebp
f0106805:	c3                   	ret    

f0106806 <__spin_initlock>:
}
#endif

void
__spin_initlock(struct spinlock *lk, char *name)
{
f0106806:	55                   	push   %ebp
f0106807:	89 e5                	mov    %esp,%ebp
f0106809:	8b 45 08             	mov    0x8(%ebp),%eax
	lk->locked = 0;
f010680c:	c7 00 00 00 00 00    	movl   $0x0,(%eax)
#ifdef DEBUG_SPINLOCK
	lk->name = name;
f0106812:	8b 55 0c             	mov    0xc(%ebp),%edx
f0106815:	89 50 04             	mov    %edx,0x4(%eax)
	lk->cpu = 0;
f0106818:	c7 40 08 00 00 00 00 	movl   $0x0,0x8(%eax)
#endif
}
f010681f:	5d                   	pop    %ebp
f0106820:	c3                   	ret    

f0106821 <spin_lock>:
// Loops (spins) until the lock is acquired.
// Holding a lock for a long time may cause
// other CPUs to waste time spinning to acquire it.
void
spin_lock(struct spinlock *lk)
{
f0106821:	55                   	push   %ebp
f0106822:	89 e5                	mov    %esp,%ebp
f0106824:	56                   	push   %esi
f0106825:	53                   	push   %ebx
f0106826:	83 ec 20             	sub    $0x20,%esp
f0106829:	8b 5d 08             	mov    0x8(%ebp),%ebx

// Check whether this CPU is holding the lock.
static int
holding(struct spinlock *lock)
{
	return lock->locked && lock->cpu == thiscpu;
f010682c:	83 3b 00             	cmpl   $0x0,(%ebx)
f010682f:	74 14                	je     f0106845 <spin_lock+0x24>
f0106831:	8b 73 08             	mov    0x8(%ebx),%esi
f0106834:	e8 6a fd ff ff       	call   f01065a3 <cpunum>
f0106839:	6b c0 74             	imul   $0x74,%eax,%eax
f010683c:	05 20 40 20 f0       	add    $0xf0204020,%eax
// other CPUs to waste time spinning to acquire it.
void
spin_lock(struct spinlock *lk)
{
#ifdef DEBUG_SPINLOCK
	if (holding(lk))
f0106841:	39 c6                	cmp    %eax,%esi
f0106843:	74 15                	je     f010685a <spin_lock+0x39>
#endif

	// The xchg is atomic.
	// It also serializes, so that reads after acquire are not
	// reordered before it. 
	while (xchg(&lk->locked, 1) != 0)
f0106845:	89 da                	mov    %ebx,%edx
xchg(volatile uint32_t *addr, uint32_t newval)
{
	uint32_t result;

	// The + in "+m" denotes a read-modify-write operand.
	asm volatile("lock; xchgl %0, %1" :
f0106847:	b8 01 00 00 00       	mov    $0x1,%eax
f010684c:	f0 87 03             	lock xchg %eax,(%ebx)
f010684f:	b9 01 00 00 00       	mov    $0x1,%ecx
f0106854:	85 c0                	test   %eax,%eax
f0106856:	75 2e                	jne    f0106886 <spin_lock+0x65>
f0106858:	eb 37                	jmp    f0106891 <spin_lock+0x70>
void
spin_lock(struct spinlock *lk)
{
#ifdef DEBUG_SPINLOCK
	if (holding(lk))
		panic("CPU %d cannot acquire %s: already holding", cpunum(), lk->name);
f010685a:	8b 5b 04             	mov    0x4(%ebx),%ebx
f010685d:	e8 41 fd ff ff       	call   f01065a3 <cpunum>
f0106862:	89 5c 24 10          	mov    %ebx,0x10(%esp)
f0106866:	89 44 24 0c          	mov    %eax,0xc(%esp)
f010686a:	c7 44 24 08 a4 89 10 	movl   $0xf01089a4,0x8(%esp)
f0106871:	f0 
f0106872:	c7 44 24 04 41 00 00 	movl   $0x41,0x4(%esp)
f0106879:	00 
f010687a:	c7 04 24 08 8a 10 f0 	movl   $0xf0108a08,(%esp)
f0106881:	e8 ba 97 ff ff       	call   f0100040 <_panic>

	// The xchg is atomic.
	// It also serializes, so that reads after acquire are not
	// reordered before it. 
	while (xchg(&lk->locked, 1) != 0)
		asm volatile ("pause");
f0106886:	f3 90                	pause  
f0106888:	89 c8                	mov    %ecx,%eax
f010688a:	f0 87 02             	lock xchg %eax,(%edx)
#endif

	// The xchg is atomic.
	// It also serializes, so that reads after acquire are not
	// reordered before it. 
	while (xchg(&lk->locked, 1) != 0)
f010688d:	85 c0                	test   %eax,%eax
f010688f:	75 f5                	jne    f0106886 <spin_lock+0x65>
		asm volatile ("pause");

	// Record info about lock acquisition for debugging.
#ifdef DEBUG_SPINLOCK
	lk->cpu = thiscpu;
f0106891:	e8 0d fd ff ff       	call   f01065a3 <cpunum>
f0106896:	6b c0 74             	imul   $0x74,%eax,%eax
f0106899:	05 20 40 20 f0       	add    $0xf0204020,%eax
f010689e:	89 43 08             	mov    %eax,0x8(%ebx)
	get_caller_pcs(lk->pcs);
f01068a1:	8d 4b 0c             	lea    0xc(%ebx),%ecx

static __inline uint32_t
read_ebp(void)
{
	uint32_t ebp;
	__asm __volatile("movl %%ebp,%0" : "=r" (ebp));
f01068a4:	89 e8                	mov    %ebp,%eax
	uint32_t *ebp;
	int i;

	ebp = (uint32_t *)read_ebp();
	for (i = 0; i < 10; i++){
		if (ebp == 0 || ebp < (uint32_t *)ULIM)
f01068a6:	3d ff ff 7f ef       	cmp    $0xef7fffff,%eax
f01068ab:	77 34                	ja     f01068e1 <spin_lock+0xc0>
f01068ad:	eb 2b                	jmp    f01068da <spin_lock+0xb9>
f01068af:	81 fa ff ff 7f ef    	cmp    $0xef7fffff,%edx
f01068b5:	76 12                	jbe    f01068c9 <spin_lock+0xa8>
			break;
		pcs[i] = ebp[1];          // saved %eip
f01068b7:	8b 5a 04             	mov    0x4(%edx),%ebx
f01068ba:	89 1c 81             	mov    %ebx,(%ecx,%eax,4)
		ebp = (uint32_t *)ebp[0]; // saved %ebp
f01068bd:	8b 12                	mov    (%edx),%edx
{
	uint32_t *ebp;
	int i;

	ebp = (uint32_t *)read_ebp();
	for (i = 0; i < 10; i++){
f01068bf:	83 c0 01             	add    $0x1,%eax
f01068c2:	83 f8 0a             	cmp    $0xa,%eax
f01068c5:	75 e8                	jne    f01068af <spin_lock+0x8e>
f01068c7:	eb 27                	jmp    f01068f0 <spin_lock+0xcf>
			break;
		pcs[i] = ebp[1];          // saved %eip
		ebp = (uint32_t *)ebp[0]; // saved %ebp
	}
	for (; i < 10; i++)
		pcs[i] = 0;
f01068c9:	c7 04 81 00 00 00 00 	movl   $0x0,(%ecx,%eax,4)
		if (ebp == 0 || ebp < (uint32_t *)ULIM)
			break;
		pcs[i] = ebp[1];          // saved %eip
		ebp = (uint32_t *)ebp[0]; // saved %ebp
	}
	for (; i < 10; i++)
f01068d0:	83 c0 01             	add    $0x1,%eax
f01068d3:	83 f8 09             	cmp    $0x9,%eax
f01068d6:	7e f1                	jle    f01068c9 <spin_lock+0xa8>
f01068d8:	eb 16                	jmp    f01068f0 <spin_lock+0xcf>
{
	uint32_t *ebp;
	int i;

	ebp = (uint32_t *)read_ebp();
	for (i = 0; i < 10; i++){
f01068da:	b8 00 00 00 00       	mov    $0x0,%eax
f01068df:	eb e8                	jmp    f01068c9 <spin_lock+0xa8>
		if (ebp == 0 || ebp < (uint32_t *)ULIM)
			break;
		pcs[i] = ebp[1];          // saved %eip
f01068e1:	8b 50 04             	mov    0x4(%eax),%edx
f01068e4:	89 53 0c             	mov    %edx,0xc(%ebx)
		ebp = (uint32_t *)ebp[0]; // saved %ebp
f01068e7:	8b 10                	mov    (%eax),%edx
{
	uint32_t *ebp;
	int i;

	ebp = (uint32_t *)read_ebp();
	for (i = 0; i < 10; i++){
f01068e9:	b8 01 00 00 00       	mov    $0x1,%eax
f01068ee:	eb bf                	jmp    f01068af <spin_lock+0x8e>
	// Record info about lock acquisition for debugging.
#ifdef DEBUG_SPINLOCK
	lk->cpu = thiscpu;
	get_caller_pcs(lk->pcs);
#endif
}
f01068f0:	83 c4 20             	add    $0x20,%esp
f01068f3:	5b                   	pop    %ebx
f01068f4:	5e                   	pop    %esi
f01068f5:	5d                   	pop    %ebp
f01068f6:	c3                   	ret    

f01068f7 <spin_unlock>:

// Release the lock.
void
spin_unlock(struct spinlock *lk)
{
f01068f7:	55                   	push   %ebp
f01068f8:	89 e5                	mov    %esp,%ebp
f01068fa:	57                   	push   %edi
f01068fb:	56                   	push   %esi
f01068fc:	53                   	push   %ebx
f01068fd:	83 ec 6c             	sub    $0x6c,%esp
f0106900:	8b 5d 08             	mov    0x8(%ebp),%ebx

// Check whether this CPU is holding the lock.
static int
holding(struct spinlock *lock)
{
	return lock->locked && lock->cpu == thiscpu;
f0106903:	83 3b 00             	cmpl   $0x0,(%ebx)
f0106906:	74 18                	je     f0106920 <spin_unlock+0x29>
f0106908:	8b 73 08             	mov    0x8(%ebx),%esi
f010690b:	e8 93 fc ff ff       	call   f01065a3 <cpunum>
f0106910:	6b c0 74             	imul   $0x74,%eax,%eax
f0106913:	05 20 40 20 f0       	add    $0xf0204020,%eax
// Release the lock.
void
spin_unlock(struct spinlock *lk)
{
#ifdef DEBUG_SPINLOCK
	if (!holding(lk)) {
f0106918:	39 c6                	cmp    %eax,%esi
f010691a:	0f 84 d4 00 00 00    	je     f01069f4 <spin_unlock+0xfd>
		int i;
		uint32_t pcs[10];
		// Nab the acquiring EIP chain before it gets released
		memmove(pcs, lk->pcs, sizeof pcs);
f0106920:	c7 44 24 08 28 00 00 	movl   $0x28,0x8(%esp)
f0106927:	00 
f0106928:	8d 43 0c             	lea    0xc(%ebx),%eax
f010692b:	89 44 24 04          	mov    %eax,0x4(%esp)
f010692f:	8d 45 c0             	lea    -0x40(%ebp),%eax
f0106932:	89 04 24             	mov    %eax,(%esp)
f0106935:	e8 1c f6 ff ff       	call   f0105f56 <memmove>
		cprintf("CPU %d cannot release %s: held by CPU %d\nAcquired at:", 
			cpunum(), lk->name, lk->cpu->cpu_id);
f010693a:	8b 43 08             	mov    0x8(%ebx),%eax
	if (!holding(lk)) {
		int i;
		uint32_t pcs[10];
		// Nab the acquiring EIP chain before it gets released
		memmove(pcs, lk->pcs, sizeof pcs);
		cprintf("CPU %d cannot release %s: held by CPU %d\nAcquired at:", 
f010693d:	0f b6 30             	movzbl (%eax),%esi
f0106940:	8b 5b 04             	mov    0x4(%ebx),%ebx
f0106943:	e8 5b fc ff ff       	call   f01065a3 <cpunum>
f0106948:	89 74 24 0c          	mov    %esi,0xc(%esp)
f010694c:	89 5c 24 08          	mov    %ebx,0x8(%esp)
f0106950:	89 44 24 04          	mov    %eax,0x4(%esp)
f0106954:	c7 04 24 d0 89 10 f0 	movl   $0xf01089d0,(%esp)
f010695b:	e8 05 d8 ff ff       	call   f0104165 <cprintf>
			cpunum(), lk->name, lk->cpu->cpu_id);
		for (i = 0; i < 10 && pcs[i]; i++) {
f0106960:	8b 45 c0             	mov    -0x40(%ebp),%eax
f0106963:	85 c0                	test   %eax,%eax
f0106965:	74 71                	je     f01069d8 <spin_unlock+0xe1>
f0106967:	8d 5d c0             	lea    -0x40(%ebp),%ebx
f010696a:	8d 7d e4             	lea    -0x1c(%ebp),%edi
			struct Eipdebuginfo info;
			if (debuginfo_eip(pcs[i], &info) >= 0)
f010696d:	8d 75 a8             	lea    -0x58(%ebp),%esi
f0106970:	89 74 24 04          	mov    %esi,0x4(%esp)
f0106974:	89 04 24             	mov    %eax,(%esp)
f0106977:	e8 75 e9 ff ff       	call   f01052f1 <debuginfo_eip>
f010697c:	85 c0                	test   %eax,%eax
f010697e:	78 39                	js     f01069b9 <spin_unlock+0xc2>
				cprintf("  %08x %s:%d: %.*s+%x\n", pcs[i],
					info.eip_file, info.eip_line,
					info.eip_fn_namelen, info.eip_fn_name,
					pcs[i] - info.eip_fn_addr);
f0106980:	8b 03                	mov    (%ebx),%eax
		cprintf("CPU %d cannot release %s: held by CPU %d\nAcquired at:", 
			cpunum(), lk->name, lk->cpu->cpu_id);
		for (i = 0; i < 10 && pcs[i]; i++) {
			struct Eipdebuginfo info;
			if (debuginfo_eip(pcs[i], &info) >= 0)
				cprintf("  %08x %s:%d: %.*s+%x\n", pcs[i],
f0106982:	89 c2                	mov    %eax,%edx
f0106984:	2b 55 b8             	sub    -0x48(%ebp),%edx
f0106987:	89 54 24 18          	mov    %edx,0x18(%esp)
f010698b:	8b 55 b0             	mov    -0x50(%ebp),%edx
f010698e:	89 54 24 14          	mov    %edx,0x14(%esp)
f0106992:	8b 55 b4             	mov    -0x4c(%ebp),%edx
f0106995:	89 54 24 10          	mov    %edx,0x10(%esp)
f0106999:	8b 55 ac             	mov    -0x54(%ebp),%edx
f010699c:	89 54 24 0c          	mov    %edx,0xc(%esp)
f01069a0:	8b 55 a8             	mov    -0x58(%ebp),%edx
f01069a3:	89 54 24 08          	mov    %edx,0x8(%esp)
f01069a7:	89 44 24 04          	mov    %eax,0x4(%esp)
f01069ab:	c7 04 24 18 8a 10 f0 	movl   $0xf0108a18,(%esp)
f01069b2:	e8 ae d7 ff ff       	call   f0104165 <cprintf>
f01069b7:	eb 12                	jmp    f01069cb <spin_unlock+0xd4>
					info.eip_file, info.eip_line,
					info.eip_fn_namelen, info.eip_fn_name,
					pcs[i] - info.eip_fn_addr);
			else
				cprintf("  %08x\n", pcs[i]);
f01069b9:	8b 03                	mov    (%ebx),%eax
f01069bb:	89 44 24 04          	mov    %eax,0x4(%esp)
f01069bf:	c7 04 24 2f 8a 10 f0 	movl   $0xf0108a2f,(%esp)
f01069c6:	e8 9a d7 ff ff       	call   f0104165 <cprintf>
		uint32_t pcs[10];
		// Nab the acquiring EIP chain before it gets released
		memmove(pcs, lk->pcs, sizeof pcs);
		cprintf("CPU %d cannot release %s: held by CPU %d\nAcquired at:", 
			cpunum(), lk->name, lk->cpu->cpu_id);
		for (i = 0; i < 10 && pcs[i]; i++) {
f01069cb:	39 fb                	cmp    %edi,%ebx
f01069cd:	74 09                	je     f01069d8 <spin_unlock+0xe1>
f01069cf:	83 c3 04             	add    $0x4,%ebx
f01069d2:	8b 03                	mov    (%ebx),%eax
f01069d4:	85 c0                	test   %eax,%eax
f01069d6:	75 98                	jne    f0106970 <spin_unlock+0x79>
					info.eip_fn_namelen, info.eip_fn_name,
					pcs[i] - info.eip_fn_addr);
			else
				cprintf("  %08x\n", pcs[i]);
		}
		panic("spin_unlock");
f01069d8:	c7 44 24 08 37 8a 10 	movl   $0xf0108a37,0x8(%esp)
f01069df:	f0 
f01069e0:	c7 44 24 04 67 00 00 	movl   $0x67,0x4(%esp)
f01069e7:	00 
f01069e8:	c7 04 24 08 8a 10 f0 	movl   $0xf0108a08,(%esp)
f01069ef:	e8 4c 96 ff ff       	call   f0100040 <_panic>
	}

	lk->pcs[0] = 0;
f01069f4:	c7 43 0c 00 00 00 00 	movl   $0x0,0xc(%ebx)
	lk->cpu = 0;
f01069fb:	c7 43 08 00 00 00 00 	movl   $0x0,0x8(%ebx)
xchg(volatile uint32_t *addr, uint32_t newval)
{
	uint32_t result;

	// The + in "+m" denotes a read-modify-write operand.
	asm volatile("lock; xchgl %0, %1" :
f0106a02:	b8 00 00 00 00       	mov    $0x0,%eax
f0106a07:	f0 87 03             	lock xchg %eax,(%ebx)
	// Paper says that Intel 64 and IA-32 will not move a load
	// after a store. So lock->locked = 0 would work here.
	// The xchg being asm volatile ensures gcc emits it after
	// the above assignments (and after the critical section).
	xchg(&lk->locked, 0);
}
f0106a0a:	83 c4 6c             	add    $0x6c,%esp
f0106a0d:	5b                   	pop    %ebx
f0106a0e:	5e                   	pop    %esi
f0106a0f:	5f                   	pop    %edi
f0106a10:	5d                   	pop    %ebp
f0106a11:	c3                   	ret    
f0106a12:	66 90                	xchg   %ax,%ax
f0106a14:	66 90                	xchg   %ax,%ax
f0106a16:	66 90                	xchg   %ax,%ax
f0106a18:	66 90                	xchg   %ax,%ax
f0106a1a:	66 90                	xchg   %ax,%ax
f0106a1c:	66 90                	xchg   %ax,%ax
f0106a1e:	66 90                	xchg   %ax,%ax

f0106a20 <__udivdi3>:
f0106a20:	55                   	push   %ebp
f0106a21:	57                   	push   %edi
f0106a22:	56                   	push   %esi
f0106a23:	83 ec 0c             	sub    $0xc,%esp
f0106a26:	8b 44 24 28          	mov    0x28(%esp),%eax
f0106a2a:	8b 7c 24 1c          	mov    0x1c(%esp),%edi
f0106a2e:	8b 6c 24 20          	mov    0x20(%esp),%ebp
f0106a32:	8b 4c 24 24          	mov    0x24(%esp),%ecx
f0106a36:	85 c0                	test   %eax,%eax
f0106a38:	89 7c 24 04          	mov    %edi,0x4(%esp)
f0106a3c:	89 ea                	mov    %ebp,%edx
f0106a3e:	89 0c 24             	mov    %ecx,(%esp)
f0106a41:	75 2d                	jne    f0106a70 <__udivdi3+0x50>
f0106a43:	39 e9                	cmp    %ebp,%ecx
f0106a45:	77 61                	ja     f0106aa8 <__udivdi3+0x88>
f0106a47:	85 c9                	test   %ecx,%ecx
f0106a49:	89 ce                	mov    %ecx,%esi
f0106a4b:	75 0b                	jne    f0106a58 <__udivdi3+0x38>
f0106a4d:	b8 01 00 00 00       	mov    $0x1,%eax
f0106a52:	31 d2                	xor    %edx,%edx
f0106a54:	f7 f1                	div    %ecx
f0106a56:	89 c6                	mov    %eax,%esi
f0106a58:	31 d2                	xor    %edx,%edx
f0106a5a:	89 e8                	mov    %ebp,%eax
f0106a5c:	f7 f6                	div    %esi
f0106a5e:	89 c5                	mov    %eax,%ebp
f0106a60:	89 f8                	mov    %edi,%eax
f0106a62:	f7 f6                	div    %esi
f0106a64:	89 ea                	mov    %ebp,%edx
f0106a66:	83 c4 0c             	add    $0xc,%esp
f0106a69:	5e                   	pop    %esi
f0106a6a:	5f                   	pop    %edi
f0106a6b:	5d                   	pop    %ebp
f0106a6c:	c3                   	ret    
f0106a6d:	8d 76 00             	lea    0x0(%esi),%esi
f0106a70:	39 e8                	cmp    %ebp,%eax
f0106a72:	77 24                	ja     f0106a98 <__udivdi3+0x78>
f0106a74:	0f bd e8             	bsr    %eax,%ebp
f0106a77:	83 f5 1f             	xor    $0x1f,%ebp
f0106a7a:	75 3c                	jne    f0106ab8 <__udivdi3+0x98>
f0106a7c:	8b 74 24 04          	mov    0x4(%esp),%esi
f0106a80:	39 34 24             	cmp    %esi,(%esp)
f0106a83:	0f 86 9f 00 00 00    	jbe    f0106b28 <__udivdi3+0x108>
f0106a89:	39 d0                	cmp    %edx,%eax
f0106a8b:	0f 82 97 00 00 00    	jb     f0106b28 <__udivdi3+0x108>
f0106a91:	8d b4 26 00 00 00 00 	lea    0x0(%esi,%eiz,1),%esi
f0106a98:	31 d2                	xor    %edx,%edx
f0106a9a:	31 c0                	xor    %eax,%eax
f0106a9c:	83 c4 0c             	add    $0xc,%esp
f0106a9f:	5e                   	pop    %esi
f0106aa0:	5f                   	pop    %edi
f0106aa1:	5d                   	pop    %ebp
f0106aa2:	c3                   	ret    
f0106aa3:	90                   	nop
f0106aa4:	8d 74 26 00          	lea    0x0(%esi,%eiz,1),%esi
f0106aa8:	89 f8                	mov    %edi,%eax
f0106aaa:	f7 f1                	div    %ecx
f0106aac:	31 d2                	xor    %edx,%edx
f0106aae:	83 c4 0c             	add    $0xc,%esp
f0106ab1:	5e                   	pop    %esi
f0106ab2:	5f                   	pop    %edi
f0106ab3:	5d                   	pop    %ebp
f0106ab4:	c3                   	ret    
f0106ab5:	8d 76 00             	lea    0x0(%esi),%esi
f0106ab8:	89 e9                	mov    %ebp,%ecx
f0106aba:	8b 3c 24             	mov    (%esp),%edi
f0106abd:	d3 e0                	shl    %cl,%eax
f0106abf:	89 c6                	mov    %eax,%esi
f0106ac1:	b8 20 00 00 00       	mov    $0x20,%eax
f0106ac6:	29 e8                	sub    %ebp,%eax
f0106ac8:	89 c1                	mov    %eax,%ecx
f0106aca:	d3 ef                	shr    %cl,%edi
f0106acc:	89 e9                	mov    %ebp,%ecx
f0106ace:	89 7c 24 08          	mov    %edi,0x8(%esp)
f0106ad2:	8b 3c 24             	mov    (%esp),%edi
f0106ad5:	09 74 24 08          	or     %esi,0x8(%esp)
f0106ad9:	89 d6                	mov    %edx,%esi
f0106adb:	d3 e7                	shl    %cl,%edi
f0106add:	89 c1                	mov    %eax,%ecx
f0106adf:	89 3c 24             	mov    %edi,(%esp)
f0106ae2:	8b 7c 24 04          	mov    0x4(%esp),%edi
f0106ae6:	d3 ee                	shr    %cl,%esi
f0106ae8:	89 e9                	mov    %ebp,%ecx
f0106aea:	d3 e2                	shl    %cl,%edx
f0106aec:	89 c1                	mov    %eax,%ecx
f0106aee:	d3 ef                	shr    %cl,%edi
f0106af0:	09 d7                	or     %edx,%edi
f0106af2:	89 f2                	mov    %esi,%edx
f0106af4:	89 f8                	mov    %edi,%eax
f0106af6:	f7 74 24 08          	divl   0x8(%esp)
f0106afa:	89 d6                	mov    %edx,%esi
f0106afc:	89 c7                	mov    %eax,%edi
f0106afe:	f7 24 24             	mull   (%esp)
f0106b01:	39 d6                	cmp    %edx,%esi
f0106b03:	89 14 24             	mov    %edx,(%esp)
f0106b06:	72 30                	jb     f0106b38 <__udivdi3+0x118>
f0106b08:	8b 54 24 04          	mov    0x4(%esp),%edx
f0106b0c:	89 e9                	mov    %ebp,%ecx
f0106b0e:	d3 e2                	shl    %cl,%edx
f0106b10:	39 c2                	cmp    %eax,%edx
f0106b12:	73 05                	jae    f0106b19 <__udivdi3+0xf9>
f0106b14:	3b 34 24             	cmp    (%esp),%esi
f0106b17:	74 1f                	je     f0106b38 <__udivdi3+0x118>
f0106b19:	89 f8                	mov    %edi,%eax
f0106b1b:	31 d2                	xor    %edx,%edx
f0106b1d:	e9 7a ff ff ff       	jmp    f0106a9c <__udivdi3+0x7c>
f0106b22:	8d b6 00 00 00 00    	lea    0x0(%esi),%esi
f0106b28:	31 d2                	xor    %edx,%edx
f0106b2a:	b8 01 00 00 00       	mov    $0x1,%eax
f0106b2f:	e9 68 ff ff ff       	jmp    f0106a9c <__udivdi3+0x7c>
f0106b34:	8d 74 26 00          	lea    0x0(%esi,%eiz,1),%esi
f0106b38:	8d 47 ff             	lea    -0x1(%edi),%eax
f0106b3b:	31 d2                	xor    %edx,%edx
f0106b3d:	83 c4 0c             	add    $0xc,%esp
f0106b40:	5e                   	pop    %esi
f0106b41:	5f                   	pop    %edi
f0106b42:	5d                   	pop    %ebp
f0106b43:	c3                   	ret    
f0106b44:	66 90                	xchg   %ax,%ax
f0106b46:	66 90                	xchg   %ax,%ax
f0106b48:	66 90                	xchg   %ax,%ax
f0106b4a:	66 90                	xchg   %ax,%ax
f0106b4c:	66 90                	xchg   %ax,%ax
f0106b4e:	66 90                	xchg   %ax,%ax

f0106b50 <__umoddi3>:
f0106b50:	55                   	push   %ebp
f0106b51:	57                   	push   %edi
f0106b52:	56                   	push   %esi
f0106b53:	83 ec 14             	sub    $0x14,%esp
f0106b56:	8b 44 24 28          	mov    0x28(%esp),%eax
f0106b5a:	8b 4c 24 24          	mov    0x24(%esp),%ecx
f0106b5e:	8b 74 24 2c          	mov    0x2c(%esp),%esi
f0106b62:	89 c7                	mov    %eax,%edi
f0106b64:	89 44 24 04          	mov    %eax,0x4(%esp)
f0106b68:	8b 44 24 30          	mov    0x30(%esp),%eax
f0106b6c:	89 4c 24 10          	mov    %ecx,0x10(%esp)
f0106b70:	89 34 24             	mov    %esi,(%esp)
f0106b73:	89 4c 24 08          	mov    %ecx,0x8(%esp)
f0106b77:	85 c0                	test   %eax,%eax
f0106b79:	89 c2                	mov    %eax,%edx
f0106b7b:	89 7c 24 0c          	mov    %edi,0xc(%esp)
f0106b7f:	75 17                	jne    f0106b98 <__umoddi3+0x48>
f0106b81:	39 fe                	cmp    %edi,%esi
f0106b83:	76 4b                	jbe    f0106bd0 <__umoddi3+0x80>
f0106b85:	89 c8                	mov    %ecx,%eax
f0106b87:	89 fa                	mov    %edi,%edx
f0106b89:	f7 f6                	div    %esi
f0106b8b:	89 d0                	mov    %edx,%eax
f0106b8d:	31 d2                	xor    %edx,%edx
f0106b8f:	83 c4 14             	add    $0x14,%esp
f0106b92:	5e                   	pop    %esi
f0106b93:	5f                   	pop    %edi
f0106b94:	5d                   	pop    %ebp
f0106b95:	c3                   	ret    
f0106b96:	66 90                	xchg   %ax,%ax
f0106b98:	39 f8                	cmp    %edi,%eax
f0106b9a:	77 54                	ja     f0106bf0 <__umoddi3+0xa0>
f0106b9c:	0f bd e8             	bsr    %eax,%ebp
f0106b9f:	83 f5 1f             	xor    $0x1f,%ebp
f0106ba2:	75 5c                	jne    f0106c00 <__umoddi3+0xb0>
f0106ba4:	8b 7c 24 08          	mov    0x8(%esp),%edi
f0106ba8:	39 3c 24             	cmp    %edi,(%esp)
f0106bab:	0f 87 e7 00 00 00    	ja     f0106c98 <__umoddi3+0x148>
f0106bb1:	8b 7c 24 04          	mov    0x4(%esp),%edi
f0106bb5:	29 f1                	sub    %esi,%ecx
f0106bb7:	19 c7                	sbb    %eax,%edi
f0106bb9:	89 4c 24 08          	mov    %ecx,0x8(%esp)
f0106bbd:	89 7c 24 0c          	mov    %edi,0xc(%esp)
f0106bc1:	8b 44 24 08          	mov    0x8(%esp),%eax
f0106bc5:	8b 54 24 0c          	mov    0xc(%esp),%edx
f0106bc9:	83 c4 14             	add    $0x14,%esp
f0106bcc:	5e                   	pop    %esi
f0106bcd:	5f                   	pop    %edi
f0106bce:	5d                   	pop    %ebp
f0106bcf:	c3                   	ret    
f0106bd0:	85 f6                	test   %esi,%esi
f0106bd2:	89 f5                	mov    %esi,%ebp
f0106bd4:	75 0b                	jne    f0106be1 <__umoddi3+0x91>
f0106bd6:	b8 01 00 00 00       	mov    $0x1,%eax
f0106bdb:	31 d2                	xor    %edx,%edx
f0106bdd:	f7 f6                	div    %esi
f0106bdf:	89 c5                	mov    %eax,%ebp
f0106be1:	8b 44 24 04          	mov    0x4(%esp),%eax
f0106be5:	31 d2                	xor    %edx,%edx
f0106be7:	f7 f5                	div    %ebp
f0106be9:	89 c8                	mov    %ecx,%eax
f0106beb:	f7 f5                	div    %ebp
f0106bed:	eb 9c                	jmp    f0106b8b <__umoddi3+0x3b>
f0106bef:	90                   	nop
f0106bf0:	89 c8                	mov    %ecx,%eax
f0106bf2:	89 fa                	mov    %edi,%edx
f0106bf4:	83 c4 14             	add    $0x14,%esp
f0106bf7:	5e                   	pop    %esi
f0106bf8:	5f                   	pop    %edi
f0106bf9:	5d                   	pop    %ebp
f0106bfa:	c3                   	ret    
f0106bfb:	90                   	nop
f0106bfc:	8d 74 26 00          	lea    0x0(%esi,%eiz,1),%esi
f0106c00:	8b 04 24             	mov    (%esp),%eax
f0106c03:	be 20 00 00 00       	mov    $0x20,%esi
f0106c08:	89 e9                	mov    %ebp,%ecx
f0106c0a:	29 ee                	sub    %ebp,%esi
f0106c0c:	d3 e2                	shl    %cl,%edx
f0106c0e:	89 f1                	mov    %esi,%ecx
f0106c10:	d3 e8                	shr    %cl,%eax
f0106c12:	89 e9                	mov    %ebp,%ecx
f0106c14:	89 44 24 04          	mov    %eax,0x4(%esp)
f0106c18:	8b 04 24             	mov    (%esp),%eax
f0106c1b:	09 54 24 04          	or     %edx,0x4(%esp)
f0106c1f:	89 fa                	mov    %edi,%edx
f0106c21:	d3 e0                	shl    %cl,%eax
f0106c23:	89 f1                	mov    %esi,%ecx
f0106c25:	89 44 24 08          	mov    %eax,0x8(%esp)
f0106c29:	8b 44 24 10          	mov    0x10(%esp),%eax
f0106c2d:	d3 ea                	shr    %cl,%edx
f0106c2f:	89 e9                	mov    %ebp,%ecx
f0106c31:	d3 e7                	shl    %cl,%edi
f0106c33:	89 f1                	mov    %esi,%ecx
f0106c35:	d3 e8                	shr    %cl,%eax
f0106c37:	89 e9                	mov    %ebp,%ecx
f0106c39:	09 f8                	or     %edi,%eax
f0106c3b:	8b 7c 24 10          	mov    0x10(%esp),%edi
f0106c3f:	f7 74 24 04          	divl   0x4(%esp)
f0106c43:	d3 e7                	shl    %cl,%edi
f0106c45:	89 7c 24 0c          	mov    %edi,0xc(%esp)
f0106c49:	89 d7                	mov    %edx,%edi
f0106c4b:	f7 64 24 08          	mull   0x8(%esp)
f0106c4f:	39 d7                	cmp    %edx,%edi
f0106c51:	89 c1                	mov    %eax,%ecx
f0106c53:	89 14 24             	mov    %edx,(%esp)
f0106c56:	72 2c                	jb     f0106c84 <__umoddi3+0x134>
f0106c58:	39 44 24 0c          	cmp    %eax,0xc(%esp)
f0106c5c:	72 22                	jb     f0106c80 <__umoddi3+0x130>
f0106c5e:	8b 44 24 0c          	mov    0xc(%esp),%eax
f0106c62:	29 c8                	sub    %ecx,%eax
f0106c64:	19 d7                	sbb    %edx,%edi
f0106c66:	89 e9                	mov    %ebp,%ecx
f0106c68:	89 fa                	mov    %edi,%edx
f0106c6a:	d3 e8                	shr    %cl,%eax
f0106c6c:	89 f1                	mov    %esi,%ecx
f0106c6e:	d3 e2                	shl    %cl,%edx
f0106c70:	89 e9                	mov    %ebp,%ecx
f0106c72:	d3 ef                	shr    %cl,%edi
f0106c74:	09 d0                	or     %edx,%eax
f0106c76:	89 fa                	mov    %edi,%edx
f0106c78:	83 c4 14             	add    $0x14,%esp
f0106c7b:	5e                   	pop    %esi
f0106c7c:	5f                   	pop    %edi
f0106c7d:	5d                   	pop    %ebp
f0106c7e:	c3                   	ret    
f0106c7f:	90                   	nop
f0106c80:	39 d7                	cmp    %edx,%edi
f0106c82:	75 da                	jne    f0106c5e <__umoddi3+0x10e>
f0106c84:	8b 14 24             	mov    (%esp),%edx
f0106c87:	89 c1                	mov    %eax,%ecx
f0106c89:	2b 4c 24 08          	sub    0x8(%esp),%ecx
f0106c8d:	1b 54 24 04          	sbb    0x4(%esp),%edx
f0106c91:	eb cb                	jmp    f0106c5e <__umoddi3+0x10e>
f0106c93:	90                   	nop
f0106c94:	8d 74 26 00          	lea    0x0(%esi,%eiz,1),%esi
f0106c98:	3b 44 24 0c          	cmp    0xc(%esp),%eax
f0106c9c:	0f 82 0f ff ff ff    	jb     f0106bb1 <__umoddi3+0x61>
f0106ca2:	e9 1a ff ff ff       	jmp    f0106bc1 <__umoddi3+0x71>
